
kernel.o:     file format elf64-littleriscv


Disassembly of section .text:

0000000000000000 <core>:
   0:	715d                	addi	sp,sp,-80
   2:	fc4a                	sd	s2,56(sp)
   4:	f84e                	sd	s3,48(sp)
   6:	f452                	sd	s4,40(sp)
   8:	e4a2                	sd	s0,72(sp)
   a:	e0a6                	sd	s1,64(sp)
   c:	f056                	sd	s5,32(sp)
   e:	ec5a                	sd	s6,24(sp)
  10:	e85e                	sd	s7,16(sp)
  12:	e462                	sd	s8,8(sp)
  14:	e066                	sd	s9,0(sp)
  16:	69c6                	ld	s3,80(sp)
  18:	05811903          	lh	s2,88(sp)
  1c:	06011a03          	lh	s4,96(sp)
  20:	72a6                	ld	t0,104(sp)
  22:	c0202373          	rdinstret	t1
  26:	00000437          	lui	s0,0x0
  2a:	00643023          	sd	t1,0(s0) # 0 <core>
  2e:	0e028a63          	beqz	t0,122 <.L2>
  32:	0286                	slli	t0,t0,0x1
  34:	84b6                	mv	s1,a3
  36:	83aa                	mv	t2,a0
  38:	00568bb3          	add	s7,a3,t0
  3c:	00570ab3          	add	s5,a4,t0
  40:	8b2a                	mv	s6,a0

0000000000000042 <.L3>:
  42:	8fb2                	mv	t6,a2
  44:	8eba                	mv	t4,a4
  46:	8e5a                	mv	t3,s6

0000000000000048 <.L4>:
  48:	000edc83          	lhu	s9,0(t4)
  4c:	000fdc03          	lhu	s8,0(t6)
  50:	0004d303          	lhu	t1,0(s1)
  54:	0005df03          	lhu	t5,0(a1)
  58:	000e5683          	lhu	a3,0(t3)
  5c:	0393033b          	mulw	t1,t1,s9
  60:	0e09                	addi	t3,t3,2
  62:	0e89                	addi	t4,t4,2
  64:	0f89                	addi	t6,t6,2
  66:	038f0f3b          	mulw	t5,t5,s8
  6a:	01e3033b          	addw	t1,t1,t5
  6e:	00d3033b          	addw	t1,t1,a3
  72:	fe6e1f23          	sh	t1,-2(t3)
  76:	fdda99e3          	bne	s5,t4,48 <.L4>
  7a:	0489                	addi	s1,s1,2
  7c:	9b16                	add	s6,s6,t0
  7e:	0589                	addi	a1,a1,2
  80:	fc9b91e3          	bne	s7,s1,42 <.L3>
  84:	1a42                	slli	s4,s4,0x30
  86:	030a5a13          	srli	s4,s4,0x30
  8a:	00580e33          	add	t3,a6,t0
  8e:	00588f33          	add	t5,a7,t0
  92:	8ec2                	mv	t4,a6

0000000000000094 <.L6>:
  94:	000e9683          	lh	a3,0(t4)
  98:	8646                	mv	a2,a7
  9a:	85aa                	mv	a1,a0

000000000000009c <.L7>:
  9c:	0005d703          	lhu	a4,0(a1)
  a0:	00065303          	lhu	t1,0(a2)
  a4:	0609                	addi	a2,a2,2
  a6:	9596                	add	a1,a1,t0
  a8:	0267073b          	mulw	a4,a4,t1
  ac:	0347073b          	mulw	a4,a4,s4
  b0:	9eb9                	addw	a3,a3,a4
  b2:	0106969b          	slliw	a3,a3,0x10
  b6:	4106d69b          	sraiw	a3,a3,0x10
  ba:	00de9023          	sh	a3,0(t4)
  be:	fccf1fe3          	bne	t5,a2,9c <.L7>
  c2:	0e89                	addi	t4,t4,2
  c4:	0509                	addi	a0,a0,2
  c6:	fdde17e3          	bne	t3,t4,94 <.L6>
  ca:	8742                	mv	a4,a6

00000000000000cc <.L9>:
  cc:	00075683          	lhu	a3,0(a4)
  d0:	0009d603          	lhu	a2,0(s3)
  d4:	0709                	addi	a4,a4,2
  d6:	0989                	addi	s3,s3,2
  d8:	9eb1                	addw	a3,a3,a2
  da:	fed71f23          	sh	a3,-2(a4)
  de:	feee17e3          	bne	t3,a4,cc <.L9>
  e2:	1942                	slli	s2,s2,0x30
  e4:	03095913          	srli	s2,s2,0x30
  e8:	005788b3          	add	a7,a5,t0

00000000000000ec <.L10>:
  ec:	00079683          	lh	a3,0(a5)
  f0:	8642                	mv	a2,a6
  f2:	859e                	mv	a1,t2

00000000000000f4 <.L11>:
  f4:	0005d703          	lhu	a4,0(a1)
  f8:	00065503          	lhu	a0,0(a2)
  fc:	0609                	addi	a2,a2,2
  fe:	0589                	addi	a1,a1,2
 100:	02a7073b          	mulw	a4,a4,a0
 104:	0327073b          	mulw	a4,a4,s2
 108:	9eb9                	addw	a3,a3,a4
 10a:	0106969b          	slliw	a3,a3,0x10
 10e:	4106d69b          	sraiw	a3,a3,0x10
 112:	00d79023          	sh	a3,0(a5)
 116:	fcce1fe3          	bne	t3,a2,f4 <.L11>
 11a:	0789                	addi	a5,a5,2
 11c:	9396                	add	t2,t2,t0
 11e:	fcf897e3          	bne	a7,a5,ec <.L10>

0000000000000122 <.L2>:
 122:	c02027f3          	rdinstret	a5
 126:	00043583          	ld	a1,0(s0)
 12a:	6426                	ld	s0,72(sp)
 12c:	6486                	ld	s1,64(sp)
 12e:	7962                	ld	s2,56(sp)
 130:	79c2                	ld	s3,48(sp)
 132:	7a22                	ld	s4,40(sp)
 134:	7a82                	ld	s5,32(sp)
 136:	6b62                	ld	s6,24(sp)
 138:	6bc2                	ld	s7,16(sp)
 13a:	6c22                	ld	s8,8(sp)
 13c:	6c82                	ld	s9,0(sp)
 13e:	00000737          	lui	a4,0x0
 142:	00000537          	lui	a0,0x0
 146:	00f73023          	sd	a5,0(a4) # 0 <core>
 14a:	863e                	mv	a2,a5
 14c:	00050513          	mv	a0,a0
 150:	6161                	addi	sp,sp,80
 152:	00000317          	auipc	t1,0x0
 156:	00030067          	jr	t1 # 152 <.L2+0x30>
