
kernel.o:	file format elf64-littleriscv

Disassembly of section .text:

0000000000000000 <.text>:
       0: 01 00        	nop

0000000000000002 <core>:
       2: 5d 71        	addi	sp, sp, -80
       4: a2 e4        	sd	s0, 72(sp)
       6: a6 e0        	sd	s1, 64(sp)
       8: 4a fc        	sd	s2, 56(sp)
       a: 4e f8        	sd	s3, 48(sp)
       c: 52 f4        	sd	s4, 40(sp)
       e: 56 f0        	sd	s5, 32(sp)
      10: 5a ec        	sd	s6, 24(sp)
      12: 5e e8        	sd	s7, 16(sp)
      14: 62 e4        	sd	s8, 8(sp)
      16: f3 24 20 c0  	rdinstret	s1
      1a: b7 08 00 00  	lui	a7, 0
      1e: 23 b0 98 00  	sd	s1, 0(a7)
      22: 81 c3        	beqz	a5, 0x22 <core+0x20>
      24: 81 42        	li	t0, 0
      26: 01 43        	li	t1, 0
      28: 93 13 28 00  	slli	t2, a6, 2
      2c: 13 1e 38 00  	slli	t3, a6, 3
      30: 53 00 00 f2  	fmv.d.x	ft0, zero
      34: f3 2e 20 c2  	csrr	t4, vlenb
      38: 13 df 3e 00  	srli	t5, t4, 3
      3c: 93 0f ff ff  	addi	t6, t5, -1
      40: 93 db 1e 00  	srli	s7, t4, 1
      44: 57 74 80 0d  	vsetvli	s0, zero, e64, m1, ta, ma
      48: 57 34 00 5e  	vmv.v.i	v8, 0
      4c: d7 64 00 42  	vmv.s.x	v9, zero
      50: 2a 89        	mv	s2, a0
      52: 2e 8b        	mv	s6, a1
      54: 01 a0        	j	0x54 <core+0x52>

0000000000000056 <.LBB0_2>:
      56: 13 14 33 00  	slli	s0, t1, 3
      5a: 3a 94        	add	s0, s0, a4
      5c: 07 31 04 00  	fld	ft2, 0(s0)
      60: d3 70 11 02  	fadd.d	ft1, ft2, ft1
      64: 27 30 14 00  	fsd	ft1, 0(s0)
      68: 05 03        	addi	t1, t1, 1
      6a: 1e 9b        	add	s6, s6, t2
      6c: 72 99        	add	s2, s2, t3
      6e: c2 92        	add	t0, t0, a6
      70: 63 00 f3 00  	beq	t1, a5, 0x70 <.LBB0_2+0x1a>

0000000000000074 <.LBB0_3>:
      74: 13 14 23 00  	slli	s0, t1, 2
      78: 32 94        	add	s0, s0, a2
      7a: 83 29 04 00  	lw	s3, 0(s0)
      7e: d3 00 00 22  	fmv.d	ft1, ft0
      82: 63 50 30 01  	blez	s3, 0x82 <.LBB0_3+0xe>
      86: 63 f0 e9 01  	bgeu	s3, t5, 0x86 <.LBB0_3+0x12>
      8a: 01 4a        	li	s4, 0
      8c: d3 00 00 22  	fmv.d	ft1, ft0
      90: 01 a0        	j	0x90 <.LBB0_3+0x1c>

0000000000000092 <.LBB0_6>:
      92: b3 fa f9 01  	and	s5, s3, t6
      96: 33 8a 59 41  	sub	s4, s3, s5
      9a: 52 8c        	mv	s8, s4
      9c: ca 84        	mv	s1, s2
      9e: 5a 84        	mv	s0, s6
      a0: 57 35 80 9e  	vmv1r.v	v10, v8

00000000000000a4 <.LBB0_7>:
      a4: 87 65 04 02  	vle32.v	v11, (s0)
      a8: 07 f6 84 02  	vl1re64.v	v12, (s1)
      ac: d7 26 b3 4a  	vzext.vf2	v13, v11
      b0: d7 b5 d1 96  	vsll.vi	v11, v13, 3
      b4: 87 f5 b6 06  	vluxei64.v	v11, (a3), v11
      b8: 57 95 c5 b2  	vfmacc.vv	v10, v11, v12
      bc: 5e 94        	add	s0, s0, s7
      be: 33 0c ec 41  	sub	s8, s8, t5
      c2: f6 94        	add	s1, s1, t4
      c4: 63 10 0c 00  	bnez	s8, 0xc4 <.LBB0_7+0x20>
      c8: 57 95 a4 06  	vfredusum.vs	v10, v10, v9
      cc: d7 10 a0 42  	vfmv.f.s	ft1, v10
      d0: 63 80 0a 00  	beqz	s5, 0xd0 <.LBB0_7+0x2c>

00000000000000d4 <.LBB0_9>:
      d4: 33 04 5a 00  	add	s0, s4, t0
      d8: 93 1a 24 00  	slli	s5, s0, 2
      dc: ae 9a        	add	s5, s5, a1
      de: 0e 04        	slli	s0, s0, 3
      e0: 2a 94        	add	s0, s0, a0
      e2: b3 84 49 41  	sub	s1, s3, s4

00000000000000e6 <.LBB0_10>:
      e6: 83 e9 0a 00  	lwu	s3, 0(s5)
      ea: 07 31 04 00  	fld	ft2, 0(s0)
      ee: 8e 09        	slli	s3, s3, 3
      f0: b6 99        	add	s3, s3, a3
      f2: 87 b1 09 00  	fld	ft3, 0(s3)
      f6: c3 f0 21 0a  	fmadd.d	ft1, ft3, ft2, ft1
      fa: 91 0a        	addi	s5, s5, 4
      fc: fd 14        	addi	s1, s1, -1
      fe: 21 04        	addi	s0, s0, 8
     100: 81 e0        	bnez	s1, 0x100 <.LBB0_10+0x1a>
     102: 01 a0        	j	0x102 <.LBB0_10+0x1c>

0000000000000104 <.LBB0_11>:
     104: 73 26 20 c0  	rdinstret	a2
     108: 83 b5 08 00  	ld	a1, 0(a7)
     10c: b7 06 00 00  	lui	a3, 0
     110: 37 05 00 00  	lui	a0, 0
     114: 13 05 05 00  	mv	a0, a0
     118: 23 b0 c6 00  	sd	a2, 0(a3)
     11c: 26 64        	ld	s0, 72(sp)
     11e: 86 64        	ld	s1, 64(sp)
     120: 62 79        	ld	s2, 56(sp)
     122: c2 79        	ld	s3, 48(sp)
     124: 22 7a        	ld	s4, 40(sp)
     126: 82 7a        	ld	s5, 32(sp)
     128: 62 6b        	ld	s6, 24(sp)
     12a: c2 6b        	ld	s7, 16(sp)
     12c: 22 6c        	ld	s8, 8(sp)
     12e: 61 61        	addi	sp, sp, 80
     130: 17 03 00 00  	auipc	t1, 0
     134: 67 00 03 00  	jr	t1
