
kernel.o:     file format elf64-littleriscv


Disassembly of section .text:

0000000000000000 <core>:
   0:	4881                	li	a7,0
   2:	4305                	li	t1,1
   4:	c0202e73          	rdinstret	t3
   8:	0106618b          	ss.sta.ld.w.inds	u3,a2
   c:	34f0018b          	ss.end	u3,zero,a5,t1
  10:	0106638b          	ss.sta.ld.w.inds	u7,a2
  14:	34f0038b          	ss.end	u7,zero,a5,t1
  18:	0106650b          	ss.sta.ld.w.inds	u10,a2
  1c:	34f0050b          	ss.end	u10,zero,a5,t1
  20:	f805708b          	ss.sta.ld.d.v.m	u1,a0
  24:	82f0008b          	ss.app	u1,zero,a5,a6
  28:	1303e08b          	ss.app.ind.siz.set.2	u1,u7
  2c:	3400008b          	ss.end	u1,zero,zero,t1
  30:	0105e10b          	ss.sta.ld.w.inds	u2,a1
  34:	82f0010b          	ss.app	u2,zero,a5,a6
  38:	1301e10b          	ss.app.ind.siz.set.2	u2,u3
  3c:	3400010b          	ss.end	u2,zero,zero,t1
  40:	f806f20b          	ss.sta.ld.d.v.m	u4,a3
  44:	02f0020b          	ss.app	u4,zero,a5,zero
  48:	1305620b          	ss.app.ind.siz.set.2	u4,u10
  4c:	0200020b          	ss.app	u4,zero,zero,zero
  50:	0ca1620b          	ss.end.sgi.ofs.add	u4,u2
  54:	0007328b          	ss.sta.st.d	u5,a4
  58:	34f0028b          	ss.end	u5,zero,a5,t1

000000000000005c <.iLoop114>:
  5c:	ac00342b          	so.v.dp.d	u8,zero,p0

0000000000000060 <.jloop14>:
  60:	3040d42b          	so.a.mac.fp	u8,u1,u4,p0
  64:	ffd09eab          	so.b.ndc.2	u1,60 <.jloop14>
  68:	200412ab          	so.a.adde.fp	u5,u8,p0
  6c:	ffd0f8ab          	so.b.nc	u1,5c <.iLoop114>
  70:	c0202ef3          	rdinstret	t4
  74:	00000537          	lui	a0,0x0
  78:	000006b7          	lui	a3,0x0
  7c:	00000737          	lui	a4,0x0
  80:	8676                	mv	a2,t4
  82:	85f2                	mv	a1,t3
  84:	00050513          	mv	a0,a0
  88:	01c6b023          	sd	t3,0(a3) # 0 <core>
  8c:	01d73023          	sd	t4,0(a4) # 0 <core>
  90:	00000317          	auipc	t1,0x0
  94:	00030067          	jr	t1 # 90 <.jloop14+0x30>
