
kernel.o:     file format elf64-littleriscv


Disassembly of section .text:

0000000000000000 <core>:
   0:	1141                	addi	sp,sp,-16
   2:	e422                	sd	s0,8(sp)
   4:	c02027f3          	rdinstret	a5
   8:	219c                	fld	fa5,0(a1)
   a:	00000437          	lui	s0,0x0
   e:	00f43023          	sd	a5,0(s0) # 0 <core>
  12:	00858813          	addi	a6,a1,8
  16:	a21c                	fsd	fa5,0(a2)
  18:	05050713          	addi	a4,a0,80
  1c:	87b2                	mv	a5,a2
  1e:	4581                	li	a1,0
  20:	48a5                	li	a7,9
  22:	4305                	li	t1,1
  24:	4e09                	li	t3,2
  26:	4e8d                	li	t4,3
  28:	4f11                	li	t5,4
  2a:	4f95                	li	t6,5
  2c:	4299                	li	t0,6
  2e:	43a1                	li	t2,8
  30:	a849                	j	c2 <.L2>

0000000000000032 <.L4>:
  32:	00083707          	fld	fa4,0(a6)
  36:	07a1                	addi	a5,a5,8
  38:	0005869b          	sext.w	a3,a1
  3c:	a398                	fsd	fa4,0(a5)
  3e:	221c                	fld	fa5,0(a2)
  40:	2314                	fld	fa3,0(a4)
  42:	72d7f7cb          	fnmsub.d	fa5,fa5,fa3,fa4
  46:	a39c                	fsd	fa5,0(a5)
  48:	c5bd                	beqz	a1,b6 <.L3>
  4a:	2614                	fld	fa3,8(a2)
  4c:	2718                	fld	fa4,8(a4)
  4e:	7ae6f7cb          	fnmsub.d	fa5,fa3,fa4,fa5
  52:	a39c                	fsd	fa5,0(a5)
  54:	06668163          	beq	a3,t1,b6 <.L3>
  58:	2a14                	fld	fa3,16(a2)
  5a:	2b18                	fld	fa4,16(a4)
  5c:	7ae6f7cb          	fnmsub.d	fa5,fa3,fa4,fa5
  60:	a39c                	fsd	fa5,0(a5)
  62:	05c68a63          	beq	a3,t3,b6 <.L3>
  66:	2f14                	fld	fa3,24(a4)
  68:	2e18                	fld	fa4,24(a2)
  6a:	7ae6f7cb          	fnmsub.d	fa5,fa3,fa4,fa5
  6e:	a39c                	fsd	fa5,0(a5)
  70:	05d68363          	beq	a3,t4,b6 <.L3>
  74:	3314                	fld	fa3,32(a4)
  76:	3218                	fld	fa4,32(a2)
  78:	7ae6f7cb          	fnmsub.d	fa5,fa3,fa4,fa5
  7c:	a39c                	fsd	fa5,0(a5)
  7e:	03e68c63          	beq	a3,t5,b6 <.L3>
  82:	3714                	fld	fa3,40(a4)
  84:	3618                	fld	fa4,40(a2)
  86:	7ae6f7cb          	fnmsub.d	fa5,fa3,fa4,fa5
  8a:	a39c                	fsd	fa5,0(a5)
  8c:	03f68563          	beq	a3,t6,b6 <.L3>
  90:	3b14                	fld	fa3,48(a4)
  92:	3a18                	fld	fa4,48(a2)
  94:	7ae6f7cb          	fnmsub.d	fa5,fa3,fa4,fa5
  98:	a39c                	fsd	fa5,0(a5)
  9a:	00568e63          	beq	a3,t0,b6 <.L3>
  9e:	3f14                	fld	fa3,56(a4)
  a0:	3e18                	fld	fa4,56(a2)
  a2:	7ae6f7cb          	fnmsub.d	fa5,fa3,fa4,fa5
  a6:	a39c                	fsd	fa5,0(a5)
  a8:	00769763          	bne	a3,t2,b6 <.L3>
  ac:	2334                	fld	fa3,64(a4)
  ae:	2238                	fld	fa4,64(a2)
  b0:	7ae6f7cb          	fnmsub.d	fa5,fa3,fa4,fa5
  b4:	a39c                	fsd	fa5,0(a5)

00000000000000b6 <.L3>:
  b6:	0585                	addi	a1,a1,1
  b8:	05850513          	addi	a0,a0,88
  bc:	0821                	addi	a6,a6,8
  be:	05070713          	addi	a4,a4,80

00000000000000c2 <.L2>:
  c2:	2118                	fld	fa4,0(a0)
  c4:	1ae7f7d3          	fdiv.d	fa5,fa5,fa4
  c8:	a39c                	fsd	fa5,0(a5)
  ca:	f71594e3          	bne	a1,a7,32 <.L4>
  ce:	c02027f3          	rdinstret	a5
  d2:	00043583          	ld	a1,0(s0)
  d6:	6422                	ld	s0,8(sp)
  d8:	00000737          	lui	a4,0x0
  dc:	00000537          	lui	a0,0x0
  e0:	00f73023          	sd	a5,0(a4) # 0 <core>
  e4:	863e                	mv	a2,a5
  e6:	00050513          	mv	a0,a0
  ea:	0141                	addi	sp,sp,16
  ec:	00000317          	auipc	t1,0x0
  f0:	00030067          	jr	t1 # ec <.L2+0x2a>
