
kernel.o:	file format elf64-littleriscv

Disassembly of section .text:

0000000000000000 <core>:
       0: 715d         	addi	sp, sp, -0x50
       2: e4a2         	sd	s0, 0x48(sp)
       4: e0a6         	sd	s1, 0x40(sp)
       6: fc4a         	sd	s2, 0x38(sp)
       8: f84e         	sd	s3, 0x30(sp)
       a: f452         	sd	s4, 0x28(sp)
       c: f056         	sd	s5, 0x20(sp)
       e: ec5a         	sd	s6, 0x18(sp)
      10: e85e         	sd	s7, 0x10(sp)
      12: e462         	sd	s8, 0x8(sp)
      14: e066         	sd	s9, 0x0(sp)
      16: c02024f3     	rdinstret	s1
      1a: 00000837     	lui	a6, 0x0
      1e: 00983023     	sd	s1, 0x0(a6)
      22: 00b05063     	blez	a1, 0x22 <core+0x22>
      26: 4881         	li	a7, 0x0
      28: 4281         	li	t0, 0x0
      2a: 00158313     	addi	t1, a1, 0x1
      2e: 02051493     	slli	s1, a0, 0x20
      32: 0204d393     	srli	t2, s1, 0x20
      36: 01d4de13     	srli	t3, s1, 0x1d
      3a: f20007d3     	fmv.d.x	fa5, zero
      3e: a001         	j	0x3e <core+0x3e>
      40: 0285         	addi	t0, t0, 0x1
      42: 98ae         	add	a7, a7, a1
      44: 00b28063     	beq	t0, a1, 0x44 <core+0x44>
      48: 00a05063     	blez	a0, 0x48 <core+0x48>
      4c: 4e81         	li	t4, 0x0
      4e: 00329f93     	slli	t6, t0, 0x3
      52: 02089493     	slli	s1, a7, 0x20
      56: 01d4df13     	srli	t5, s1, 0x1d
      5a: 9f36         	add	t5, t5, a3
      5c: 9ffa         	add	t6, t6, t5
      5e: 0253043b     	mulw	s0, t1, t0
      62: 040e         	slli	s0, s0, 0x3
      64: 008689b3     	add	s3, a3, s0
      68: 02a28433     	mul	s0, t0, a0
      6c: 1402         	slli	s0, s0, 0x20
      6e: 02045913     	srli	s2, s0, 0x20
      72: 8ab2         	mv	s5, a2
      74: 8b3a         	mv	s6, a4
      76: a001         	j	0x76 <core+0x76>
      78: 0a0e         	slli	s4, s4, 0x3
      7a: 01460433     	add	s0, a2, s4
      7e: 2014         	fld	fa3, 0x0(s0)
      80: 9a3a         	add	s4, s4, a4
      82: 000a3607     	fld	fa2, 0x0(s4)
      86: 0009b007     	fld	ft0, 0x0(s3)
      8a: 12b6f6d3     	fmul.d	fa3, fa3, fa1
      8e: 72c07743     	fmadd.d	fa4, ft0, fa2, fa4
      92: 6aa77743     	fmadd.d	fa4, fa4, fa0, fa3
      96: a018         	fsd	fa4, 0x0(s0)
      98: 0e85         	addi	t4, t4, 0x1
      9a: 0b21         	addi	s6, s6, 0x8
      9c: 0aa1         	addi	s5, s5, 0x8
      9e: 007e8063     	beq	t4, t2, 0x9e <core+0x9e>
      a2: 003e9c13     	slli	s8, t4, 0x3
      a6: 9c3e         	add	s8, s8, a5
      a8: 000c3023     	sd	zero, 0x0(s8)
      ac: 8a76         	mv	s4, t4
      ae: 22f78753     	fmv.d	fa4, fa5
      b2: 00028063     	beqz	t0, 0xb2 <core+0xb2>
      b6: 012e8a33     	add	s4, t4, s2
      ba: 003a1b93     	slli	s7, s4, 0x3
      be: 9bba         	add	s7, s7, a4
      c0: 8456         	mv	s0, s5
      c2: 8cda         	mv	s9, s6
      c4: 84fa         	mv	s1, t5
      c6: 000bb707     	fld	fa4, 0x0(s7)
      ca: 2094         	fld	fa3, 0x0(s1)
      cc: 2010         	fld	fa2, 0x0(s0)
      ce: 12a77753     	fmul.d	fa4, fa4, fa0
      d2: 62d77743     	fmadd.d	fa4, fa4, fa3, fa2
      d6: a018         	fsd	fa4, 0x0(s0)
      d8: 000cb707     	fld	fa4, 0x0(s9)
      dc: 2094         	fld	fa3, 0x0(s1)
      de: 000c3607     	fld	fa2, 0x0(s8)
      e2: 62e6f743     	fmadd.d	fa4, fa3, fa4, fa2
      e6: 00ec3027     	fsd	fa4, 0x0(s8)
      ea: 04a1         	addi	s1, s1, 0x8
      ec: 9cf2         	add	s9, s9, t3
      ee: 9472         	add	s0, s0, t3
      f0: 01f49063     	bne	s1, t6, 0xf0 <core+0xf0>
      f4: a001         	j	0xf4 <core+0xf4>
      f6: c0202673     	rdinstret	a2
      fa: 00083583     	ld	a1, 0x0(a6)
      fe: 000006b7     	lui	a3, 0x0
     102: 00000537     	lui	a0, 0x0
     106: 00050513     	mv	a0, a0
     10a: 00c6b023     	sd	a2, 0x0(a3)
     10e: 6426         	ld	s0, 0x48(sp)
     110: 6486         	ld	s1, 0x40(sp)
     112: 7962         	ld	s2, 0x38(sp)
     114: 79c2         	ld	s3, 0x30(sp)
     116: 7a22         	ld	s4, 0x28(sp)
     118: 7a82         	ld	s5, 0x20(sp)
     11a: 6b62         	ld	s6, 0x18(sp)
     11c: 6bc2         	ld	s7, 0x10(sp)
     11e: 6c22         	ld	s8, 0x8(sp)
     120: 6c82         	ld	s9, 0x0(sp)
     122: 6161         	addi	sp, sp, 0x50
     124: 00000317     	auipc	t1, 0x0
     128: 00030067     	jr	t1 <core+0x124>
