
kernel.o:	file format elf64-littleriscv

Disassembly of section .text:

0000000000000000 <.text>:
       0: 01 00        	nop

0000000000000002 <core>:
       2: 19 71        	addi	sp, sp, -128
       4: 86 fc        	sd	ra, 120(sp)
       6: a2 f8        	sd	s0, 112(sp)
       8: a6 f4        	sd	s1, 104(sp)
       a: ca f0        	sd	s2, 96(sp)
       c: ce ec        	sd	s3, 88(sp)
       e: d2 e8        	sd	s4, 80(sp)
      10: d6 e4        	sd	s5, 72(sp)
      12: da e0        	sd	s6, 64(sp)
      14: 5e fc        	sd	s7, 56(sp)
      16: 62 f8        	sd	s8, 48(sp)
      18: 66 f4        	sd	s9, 40(sp)
      1a: 6a f0        	sd	s10, 32(sp)
      1c: 6e ec        	sd	s11, 24(sp)
      1e: b6 8b        	mv	s7, a3
      20: f3 26 20 c0  	rdinstret	a3
      24: b7 07 00 00  	lui	a5, 0
      28: 23 b0 d7 00  	sd	a3, 0(a5)
      2c: 63 50 a0 00  	blez	a0, 0x2c <core+0x2a>
      30: 93 19 05 02  	slli	s3, a0, 32
      34: 13 14 35 00  	slli	s0, a0, 3
      38: 63 50 b0 00  	blez	a1, 0x38 <core+0x36>
      3c: fd 56        	li	a3, -1
      3e: 13 d8 36 00  	srli	a6, a3, 3
      42: 13 db 09 02  	srli	s6, s3, 32
      46: f3 22 20 c2  	csrr	t0, vlenb
      4a: 13 df 32 00  	srli	t5, t0, 3
      4e: 91 46        	li	a3, 4
      50: b3 87 05 01  	add	a5, a1, a6
      54: 7a 8e        	mv	t3, t5
      56: 63 e0 e6 01  	bltu	a3, t5, 0x56 <core+0x54>
      5a: 11 4e        	li	t3, 4

000000000000005c <.LBB0_4>:
      5c: b7 06 00 00  	lui	a3, 0
      60: 07 b0 06 00  	fld	ft0, 0(a3)
      64: 01 49        	li	s2, 0
      66: b3 88 67 03  	mul	a7, a5, s6
      6a: 53 70 a0 1a  	fdiv.d	ft0, ft0, fa0
      6e: d3 00 00 f2  	fmv.d.x	ft1, zero
      72: 93 06 ff ff  	addi	a3, t5, -1
      76: 33 f3 d5 00  	and	t1, a1, a3
      7a: b3 83 65 40  	sub	t2, a1, t1
      7e: b3 0f e4 03  	mul	t6, s0, t5
      82: d7 76 80 0d  	vsetvli	a3, zero, e64, m1, ta, ma
      86: 57 34 00 5e  	vmv.v.i	v8, 0
      8a: d7 64 00 42  	vmv.s.x	v9, zero
      8e: b2 8e        	mv	t4, a2

0000000000000090 <.LBB0_5>:
      90: 81 44        	li	s1, 0
      92: 93 16 39 00  	slli	a3, s2, 3
      96: b3 07 d7 00  	add	a5, a4, a3
      9a: 23 b0 07 00  	sd	zero, 0(a5)
      9e: 53 81 10 22  	fmv.d	ft2, ft1
      a2: 63 e0 c5 01  	bltu	a1, t3, 0xa2 <.LBB0_5+0x12>
      a6: b2 96        	add	a3, a3, a2
      a8: b3 84 28 01  	add	s1, a7, s2
      ac: 8e 04        	slli	s1, s1, 3
      ae: b2 94        	add	s1, s1, a2
      b0: 36 8a        	mv	s4, a3
      b2: 63 e0 d4 00  	bltu	s1, a3, 0xb2 <.LBB0_5+0x22>
      b6: 26 8a        	mv	s4, s1

00000000000000b8 <.LBB0_8>:
      b8: 63 e0 96 00  	bltu	a3, s1, 0xb8 <.LBB0_8>
      bc: a6 86        	mv	a3, s1

00000000000000be <.LBB0_10>:
      be: 21 0a        	addi	s4, s4, 8
      c0: 93 84 87 00  	addi	s1, a5, 8
      c4: 33 ba 47 01  	sltu	s4, a5, s4
      c8: b3 b6 96 00  	sltu	a3, a3, s1
      cc: b3 76 da 00  	and	a3, s4, a3
      d0: 81 c2        	beqz	a3, 0xd0 <.LBB0_10+0x12>
      d2: 81 44        	li	s1, 0
      d4: 53 81 10 22  	fmv.d	ft2, ft1
      d8: 01 a0        	j	0xd8 <.LBB0_10+0x1a>

00000000000000da <.LBB0_12>:
      da: d7 76 80 0d  	vsetvli	a3, zero, e64, m1, ta, ma
      de: f6 86        	mv	a3, t4
      e0: 9e 84        	mv	s1, t2
      e2: 57 35 80 9e  	vmv1r.v	v10, v8

00000000000000e6 <.LBB0_13>:
      e6: 87 f5 86 0a  	vlse64.v	v11, (a3), s0
      ea: 57 95 a5 02  	vfadd.vv	v10, v10, v11
      ee: b3 84 e4 41  	sub	s1, s1, t5
      f2: fe 96        	add	a3, a3, t6
      f4: 81 e0        	bnez	s1, 0xf4 <.LBB0_13+0xe>
      f6: 57 95 a4 06  	vfredusum.vs	v10, v10, v9
      fa: 57 11 a0 42  	vfmv.f.s	ft2, v10
      fe: 57 f0 80 cd  	vsetivli	zero, 1, e64, m1, ta, ma
     102: 27 f5 07 02  	vse64.v	v10, (a5)
     106: 9e 84        	mv	s1, t2
     108: 63 00 03 00  	beqz	t1, 0x108 <.LBB0_13+0x22>

000000000000010c <.LBB0_15>:
     10c: b3 06 95 02  	mul	a3, a0, s1
     110: ca 96        	add	a3, a3, s2
     112: 8e 06        	slli	a3, a3, 3
     114: b2 96        	add	a3, a3, a2
     116: b3 84 95 40  	sub	s1, a1, s1

000000000000011a <.LBB0_16>:
     11a: 87 b1 06 00  	fld	ft3, 0(a3)
     11e: 53 71 31 02  	fadd.d	ft2, ft2, ft3
     122: 27 b0 27 00  	fsd	ft2, 0(a5)
     126: fd 14        	addi	s1, s1, -1
     128: a2 96        	add	a3, a3, s0
     12a: 81 e0        	bnez	s1, 0x12a <.LBB0_16+0x10>

000000000000012c <.LBB0_17>:
     12c: 53 71 01 12  	fmul.d	ft2, ft2, ft0
     130: 27 b0 27 00  	fsd	ft2, 0(a5)
     134: 05 09        	addi	s2, s2, 1
     136: a1 0e        	addi	t4, t4, 8
     138: 63 10 69 01  	bne	s2, s6, 0x138 <.LBB0_17+0xc>
     13c: 63 50 b0 00  	blez	a1, 0x13c <.LBB0_17+0x10>
     140: 63 50 a0 00  	blez	a0, 0x140 <.LBB0_17+0x14>
     144: 93 96 05 02  	slli	a3, a1, 32
     148: 13 da 32 00  	srli	s4, t0, 3
     14c: 91 47        	li	a5, 4
     14e: 93 18 3b 00  	slli	a7, s6, 3
     152: 52 83        	mv	t1, s4
     154: 63 e0 47 01  	bltu	a5, s4, 0x154 <.LBB0_17+0x28>
     158: 11 43        	li	t1, 4

000000000000015a <.LBB0_22>:
     15a: 01 49        	li	s2, 0
     15c: 81 4a        	li	s5, 0
     15e: 93 d3 06 02  	srli	t2, a3, 32
     162: 33 0e 17 01  	add	t3, a4, a7
     166: 93 06 fa ff  	addi	a3, s4, -1
     16a: b3 7e db 00  	and	t4, s6, a3
     16e: 33 0f db 41  	sub	t5, s6, t4
     172: b2 8f        	mv	t6, a2
     174: 01 a0        	j	0x174 <.LBB0_22+0x1a>

0000000000000176 <.LBB0_23>:
     176: 85 0a        	addi	s5, s5, 1
     178: a2 9f        	add	t6, t6, s0
     17a: 2a 99        	add	s2, s2, a0
     17c: 63 80 7a 00  	beq	s5, t2, 0x17c <.LBB0_23+0x6>

0000000000000180 <.LBB0_24>:
     180: 63 60 6b 00  	bltu	s6, t1, 0x180 <.LBB0_24>
     184: b3 86 58 03  	mul	a3, a7, s5
     188: b3 87 d8 00  	add	a5, a7, a3
     18c: b2 97        	add	a5, a5, a2
     18e: b2 96        	add	a3, a3, a2
     190: b3 b6 c6 01  	sltu	a3, a3, t3
     194: b3 37 f7 00  	sltu	a5, a4, a5
     198: fd 8e        	and	a3, a3, a5
     19a: 81 c2        	beqz	a3, 0x19a <.LBB0_24+0x1a>

000000000000019c <.LBB0_26>:
     19c: 81 46        	li	a3, 0

000000000000019e <.LBB0_27>:
     19e: b3 87 26 01  	add	a5, a3, s2
     1a2: 8e 07        	slli	a5, a5, 3
     1a4: b3 04 f6 00  	add	s1, a2, a5
     1a8: 93 97 36 00  	slli	a5, a3, 3
     1ac: ba 97        	add	a5, a5, a4
     1ae: b3 06 d5 40  	sub	a3, a0, a3

00000000000001b2 <.LBB0_28>:
     1b2: 07 b0 07 00  	fld	ft0, 0(a5)
     1b6: 87 b0 04 00  	fld	ft1, 0(s1)
     1ba: 53 f0 00 0a  	fsub.d	ft0, ft1, ft0
     1be: 27 b0 04 00  	fsd	ft0, 0(s1)
     1c2: a1 04        	addi	s1, s1, 8
     1c4: fd 16        	addi	a3, a3, -1
     1c6: a1 07        	addi	a5, a5, 8
     1c8: 81 e2        	bnez	a3, 0x1c8 <.LBB0_28+0x16>
     1ca: 01 a0        	j	0x1ca <.LBB0_28+0x18>

00000000000001cc <.LBB0_29>:
     1cc: d7 76 80 0d  	vsetvli	a3, zero, e64, m1, ta, ma
     1d0: fa 86        	mv	a3, t5
     1d2: fe 87        	mv	a5, t6
     1d4: ba 84        	mv	s1, a4

00000000000001d6 <.LBB0_30>:
     1d6: 07 f4 84 02  	vl1re64.v	v8, (s1)
     1da: 87 f4 87 02  	vl1re64.v	v9, (a5)
     1de: 57 14 94 0a  	vfsub.vv	v8, v9, v8
     1e2: 27 84 87 02  	vs1r.v	v8, (a5)
     1e6: 96 94        	add	s1, s1, t0
     1e8: b3 86 46 41  	sub	a3, a3, s4
     1ec: 96 97        	add	a5, a5, t0
     1ee: 81 e2        	bnez	a3, 0x1ee <.LBB0_30+0x18>
     1f0: fa 86        	mv	a3, t5
     1f2: 63 90 0e 00  	bnez	t4, 0x1f2 <.LBB0_30+0x1c>
     1f6: 01 a0        	j	0x1f6 <.LBB0_30+0x20>

00000000000001f8 <.LBB0_32>:
     1f8: 63 50 a0 00  	blez	a0, 0x1f8 <.LBB0_32>
     1fc: 63 50 b0 00  	blez	a1, 0x1fc <.LBB0_32+0x4>
     200: 37 05 00 00  	lui	a0, 0
     204: 07 30 05 00  	fld	ft0, 0(a0)
     208: 53 70 05 02  	fadd.d	ft0, fa0, ft0
     20c: 13 15 3b 00  	slli	a0, s6, 3
     210: 13 df 32 00  	srli	t5, t0, 3
     214: 19 47        	li	a4, 6
     216: b3 86 05 01  	add	a3, a1, a6
     21a: 63 60 e7 01  	bltu	a4, t5, 0x21a <.LBB0_32+0x22>
     21e: 19 4f        	li	t5, 6

0000000000000220 <.LBB0_36>:
     220: 37 07 00 00  	lui	a4, 0
     224: 87 30 07 00  	fld	ft1, 0(a4)
     228: 81 43        	li	t2, 0
     22a: 13 07 85 00  	addi	a4, a0, 8
     22e: 3a e8        	sd	a4, 16(sp)
     230: b3 86 66 03  	mul	a3, a3, s6
     234: 36 e4        	sd	a3, 8(sp)
     236: 53 f0 00 1a  	fdiv.d	ft0, ft1, ft0
     23a: 93 d7 d9 01  	srli	a5, s3, 29
     23e: d3 00 00 f2  	fmv.d.x	ft1, zero
     242: d7 76 80 0d  	vsetvli	a3, zero, e64, m1, ta, ma
     246: 57 34 00 5e  	vmv.v.i	v8, 0
     24a: d7 64 00 42  	vmv.s.x	v9, zero
     24e: 32 88        	mv	a6, a2
     250: 01 a0        	j	0x250 <.LBB0_36+0x30>

0000000000000252 <.LBB0_37>:
     252: 85 03        	addi	t2, t2, 1
     254: 21 08        	addi	a6, a6, 8
     256: 63 80 63 01  	beq	t2, s6, 0x256 <.LBB0_37+0x4>

000000000000025a <.LBB0_38>:
     25a: 13 99 33 00  	slli	s2, t2, 3
     25e: 22 6e        	ld	t3, 8(sp)
     260: 1e 9e        	add	t3, t3, t2
     262: 0e 0e        	slli	t3, t3, 3
     264: 33 0a 26 01  	add	s4, a2, s2
     268: b3 06 c6 01  	add	a3, a2, t3
     26c: d2 8e        	mv	t4, s4
     26e: 63 60 da 00  	bltu	s4, a3, 0x26e <.LBB0_38+0x14>
     272: b6 8e        	mv	t4, a3

0000000000000274 <.LBB0_40>:
     274: 63 e0 46 01  	bltu	a3, s4, 0x274 <.LBB0_40>
     278: 36 8a        	mv	s4, a3

000000000000027a <.LBB0_42>:
     27a: 81 4d        	li	s11, 0
     27c: c2 66        	ld	a3, 16(sp)
     27e: b3 8f 76 02  	mul	t6, a3, t2
     282: 93 89 8f 00  	addi	s3, t6, 8
     286: 21 0a        	addi	s4, s4, 8
     288: b3 8a 63 03  	mul	s5, t2, s6
     28c: c2 8c        	mv	s9, a6
     28e: 1e 8c        	mv	s8, t2
     290: 01 a0        	j	0x290 <.LBB0_42+0x16>

0000000000000292 <.LBB0_43>:
     292: 53 71 01 12  	fmul.d	ft2, ft2, ft0
     296: 27 30 24 00  	fsd	ft2, 0(s0)
     29a: b3 06 6c 03  	mul	a3, s8, s6
     29e: 9e 96        	add	a3, a3, t2
     2a0: 8e 06        	slli	a3, a3, 3
     2a2: de 96        	add	a3, a3, s7
     2a4: 27 b0 26 00  	fsd	ft2, 0(a3)
     2a8: 05 0c        	addi	s8, s8, 1
     2aa: 85 0d        	addi	s11, s11, 1
     2ac: a1 0c        	addi	s9, s9, 8
     2ae: 63 00 6c 01  	beq	s8, s6, 0x2ae <.LBB0_43+0x1c>

00000000000002b2 <.LBB0_44>:
     2b2: 81 48        	li	a7, 0
     2b4: b3 06 5c 01  	add	a3, s8, s5
     2b8: 8e 06        	slli	a3, a3, 3
     2ba: 33 84 db 00  	add	s0, s7, a3
     2be: 23 30 04 00  	sd	zero, 0(s0)
     2c2: 53 81 10 22  	fmv.d	ft2, ft1
     2c6: 63 e0 e5 01  	bltu	a1, t5, 0x2c6 <.LBB0_44+0x14>
     2ca: 13 93 3d 00  	slli	t1, s11, 3
     2ce: 33 07 69 00  	add	a4, s2, t1
     2d2: 32 97        	add	a4, a4, a2
     2d4: b3 04 6e 00  	add	s1, t3, t1
     2d8: b2 94        	add	s1, s1, a2
     2da: ba 88        	mv	a7, a4
     2dc: 63 e0 e4 00  	bltu	s1, a4, 0x2dc <.LBB0_44+0x2a>
     2e0: a6 88        	mv	a7, s1

00000000000002e2 <.LBB0_47>:
     2e2: 63 60 97 00  	bltu	a4, s1, 0x2e2 <.LBB0_47>
     2e6: 26 87        	mv	a4, s1

00000000000002e8 <.LBB0_49>:
     2e8: a1 08        	addi	a7, a7, 8
     2ea: b3 86 69 00  	add	a3, s3, t1
     2ee: de 96        	add	a3, a3, s7
     2f0: 7e 93        	add	t1, t1, t6
     2f2: 5e 93        	add	t1, t1, s7
     2f4: b3 34 13 01  	sltu	s1, t1, a7
     2f8: 33 37 d7 00  	sltu	a4, a4, a3
     2fc: 65 8f        	and	a4, a4, s1
     2fe: b3 34 43 01  	sltu	s1, t1, s4
     302: b3 b6 de 00  	sltu	a3, t4, a3
     306: e5 8e        	and	a3, a3, s1
     308: d9 8e        	or	a3, a3, a4
     30a: 81 c2        	beqz	a3, 0x30a <.LBB0_49+0x22>
     30c: 81 48        	li	a7, 0
     30e: 53 81 10 22  	fmv.d	ft2, ft1
     312: 01 a0        	j	0x312 <.LBB0_49+0x2a>

0000000000000314 <.LBB0_51>:
     314: 93 d6 32 00  	srli	a3, t0, 3
     318: 13 87 f6 ff  	addi	a4, a3, -1
     31c: 33 fd e5 00  	and	s10, a1, a4
     320: b3 88 a5 41  	sub	a7, a1, s10
     324: b3 84 d7 02  	mul	s1, a5, a3
     328: 57 77 80 0d  	vsetvli	a4, zero, e64, m1, ta, ma
     32c: 66 87        	mv	a4, s9
     32e: 42 83        	mv	t1, a6
     330: c6 80        	mv	ra, a7
     332: 57 35 80 9e  	vmv1r.v	v10, v8

0000000000000336 <.LBB0_52>:
     336: 87 75 a3 0a  	vlse64.v	v11, (t1), a0
     33a: 07 76 a7 0a  	vlse64.v	v12, (a4), a0
     33e: 57 15 b6 b2  	vfmacc.vv	v10, v12, v11
     342: b3 80 d0 40  	sub	ra, ra, a3
     346: 26 93        	add	t1, t1, s1
     348: 26 97        	add	a4, a4, s1
     34a: 63 90 00 00  	bnez	ra, 0x34a <.LBB0_52+0x14>
     34e: 57 95 a4 06  	vfredusum.vs	v10, v10, v9
     352: 57 11 a0 42  	vfmv.f.s	ft2, v10
     356: 57 f0 80 cd  	vsetivli	zero, 1, e64, m1, ta, ma
     35a: 27 75 04 02  	vse64.v	v10, (s0)
     35e: 63 00 0d 00  	beqz	s10, 0x35e <.LBB0_52+0x28>

0000000000000362 <.LBB0_54>:
     362: 33 07 1b 03  	mul	a4, s6, a7
     366: b3 06 ec 00  	add	a3, s8, a4
     36a: 8e 06        	slli	a3, a3, 3
     36c: b2 96        	add	a3, a3, a2
     36e: 1e 97        	add	a4, a4, t2
     370: 0e 07        	slli	a4, a4, 3
     372: b3 04 e6 00  	add	s1, a2, a4
     376: 33 87 15 41  	sub	a4, a1, a7

000000000000037a <.LBB0_55>:
     37a: 87 b1 04 00  	fld	ft3, 0(s1)
     37e: 07 b2 06 00  	fld	ft4, 0(a3)
     382: 43 71 32 12  	fmadd.d	ft2, ft4, ft3, ft2
     386: 27 30 24 00  	fsd	ft2, 0(s0)
     38a: be 96        	add	a3, a3, a5
     38c: 7d 17        	addi	a4, a4, -1
     38e: be 94        	add	s1, s1, a5
     390: 01 e3        	bnez	a4, 0x390 <.LBB0_55+0x16>
     392: 01 a0        	j	0x392 <.LBB0_55+0x18>

0000000000000394 <.LBB0_56>:
     394: 3a 85        	mv	a0, a4
     396: 81 45        	li	a1, 0
     398: 22 86        	mv	a2, s0
     39a: 97 00 00 00  	auipc	ra, 0
     39e: e7 80 00 00  	jalr	ra

00000000000003a2 <.LBB0_57>:
     3a2: 01 45        	li	a0, 0
     3a4: 93 d5 09 02  	srli	a1, s3, 32
     3a8: 93 d6 d9 01  	srli	a3, s3, 29
     3ac: 13 84 86 00  	addi	s0, a3, 8
     3b0: 2e 87        	mv	a4, a1

00000000000003b2 <.LBB0_58>:
     3b2: ba 87        	mv	a5, a4
     3b4: de 84        	mv	s1, s7
     3b6: 5e 86        	mv	a2, s7

00000000000003b8 <.LBB0_59>:
     3b8: 23 b0 04 00  	sd	zero, 0(s1)
     3bc: 23 30 06 00  	sd	zero, 0(a2)
     3c0: 36 96        	add	a2, a2, a3
     3c2: fd 17        	addi	a5, a5, -1
     3c4: a1 04        	addi	s1, s1, 8
     3c6: 81 e3        	bnez	a5, 0x3c6 <.LBB0_59+0xe>
     3c8: 05 05        	addi	a0, a0, 1
     3ca: a2 9b        	add	s7, s7, s0
     3cc: 7d 17        	addi	a4, a4, -1
     3ce: 63 10 b5 00  	bne	a0, a1, 0x3ce <.LBB0_59+0x16>

00000000000003d2 <.LBB0_61>:
     3d2: 73 26 20 c0  	rdinstret	a2
     3d6: 37 05 00 00  	lui	a0, 0
     3da: 83 35 05 00  	ld	a1, 0(a0)
     3de: b7 06 00 00  	lui	a3, 0
     3e2: 37 05 00 00  	lui	a0, 0
     3e6: 13 05 05 00  	mv	a0, a0
     3ea: 23 b0 c6 00  	sd	a2, 0(a3)
     3ee: e6 70        	ld	ra, 120(sp)
     3f0: 46 74        	ld	s0, 112(sp)
     3f2: a6 74        	ld	s1, 104(sp)
     3f4: 06 79        	ld	s2, 96(sp)
     3f6: e6 69        	ld	s3, 88(sp)
     3f8: 46 6a        	ld	s4, 80(sp)
     3fa: a6 6a        	ld	s5, 72(sp)
     3fc: 06 6b        	ld	s6, 64(sp)
     3fe: e2 7b        	ld	s7, 56(sp)
     400: 42 7c        	ld	s8, 48(sp)
     402: a2 7c        	ld	s9, 40(sp)
     404: 02 7d        	ld	s10, 32(sp)
     406: e2 6d        	ld	s11, 24(sp)
     408: 09 61        	addi	sp, sp, 128
     40a: 17 03 00 00  	auipc	t1, 0
     40e: 67 00 03 00  	jr	t1
