
kernel.o:	file format elf64-littleriscv

Disassembly of section .text:

0000000000000000 <.text>:
       0: 01 00        	nop

0000000000000002 <core_kernel>:
       2: 81 48        	li	a7, 0
       4: 37 07 00 00  	lui	a4, 0
       8: 07 30 07 00  	fld	ft0, 0(a4)
       c: 37 07 00 00  	lui	a4, 0
      10: 87 30 07 00  	fld	ft1, 0(a4)
      14: 53 01 00 f2  	fmv.d.x	ft2, zero
      18: a9 42        	li	t0, 10
      1a: 13 08 40 06  	li	a6, 100
      1e: 53 05 21 22  	fmv.d	fa0, ft2

0000000000000022 <.LBB0_1>:
      22: 13 03 a0 1b  	li	t1, 442
      26: aa 83        	mv	t2, a0
      28: 2e 8e        	mv	t3, a1
      2a: b2 87        	mv	a5, a2

000000000000002c <.LBB0_2>:
      2c: 03 b7 03 00  	ld	a4, 0(t2)
      30: 87 31 07 00  	fld	ft3, 0(a4)
      34: 07 b2 06 00  	fld	ft4, 0(a3)
      38: 87 32 87 00  	fld	ft5, 8(a4)
      3c: 07 b3 86 00  	fld	ft6, 8(a3)
      40: 87 33 07 01  	fld	ft7, 16(a4)
      44: 8c 2a        	fld	fa1, 16(a3)
      46: c3 f1 41 12  	fmadd.d	ft3, ft3, ft4, ft2
      4a: c3 f1 62 1a  	fmadd.d	ft3, ft5, ft6, ft3
      4e: c3 f1 b3 1a  	fmadd.d	ft3, ft7, fa1, ft3
      52: 07 32 87 01  	fld	ft4, 24(a4)
      56: 87 b2 86 01  	fld	ft5, 24(a3)
      5a: 07 33 07 02  	fld	ft6, 32(a4)
      5e: 87 b3 06 02  	fld	ft7, 32(a3)
      62: 0c 37        	fld	fa1, 40(a4)
      64: 90 36        	fld	fa2, 40(a3)
      66: 14 3b        	fld	fa3, 48(a4)
      68: 98 3a        	fld	fa4, 48(a3)
      6a: c3 71 52 1a  	fmadd.d	ft3, ft4, ft5, ft3
      6e: c3 71 73 1a  	fmadd.d	ft3, ft6, ft7, ft3
      72: c3 f1 c5 1a  	fmadd.d	ft3, fa1, fa2, ft3
      76: c3 f1 e6 1a  	fmadd.d	ft3, fa3, fa4, ft3
      7a: 07 32 87 03  	fld	ft4, 56(a4)
      7e: 87 b2 86 03  	fld	ft5, 56(a3)
      82: 07 33 07 04  	fld	ft6, 64(a4)
      86: 87 b3 06 04  	fld	ft7, 64(a3)
      8a: 2c 27        	fld	fa1, 72(a4)
      8c: b0 26        	fld	fa2, 72(a3)
      8e: c3 71 52 1a  	fmadd.d	ft3, ft4, ft5, ft3
      92: 07 32 0e 00  	fld	ft4, 0(t3)
      96: c3 71 73 1a  	fmadd.d	ft3, ft6, ft7, ft3
      9a: c3 f1 c5 1a  	fmadd.d	ft3, fa1, fa2, ft3
      9e: d3 71 35 02  	fadd.d	ft3, fa0, ft3
      a2: d3 71 32 0a  	fsub.d	ft3, ft4, ft3
      a6: 27 b0 37 00  	fsd	ft3, 0(a5)
      aa: a1 07        	addi	a5, a5, 8
      ac: 21 0e        	addi	t3, t3, 8
      ae: 7d 13        	addi	t1, t1, -1
      b0: a1 03        	addi	t2, t2, 8
      b2: 63 10 03 00  	bnez	t1, 0xb2 <.LBB0_2+0x86>
      b6: 13 07 a0 1b  	li	a4, 442
      ba: b2 87        	mv	a5, a2
      bc: d3 01 21 22  	fmv.d	ft3, ft2

00000000000000c0 <.LBB0_4>:
      c0: 07 b2 07 00  	fld	ft4, 0(a5)
      c4: d3 f1 41 02  	fadd.d	ft3, ft3, ft4
      c8: 7d 17        	addi	a4, a4, -1
      ca: a1 07        	addi	a5, a5, 8
      cc: 01 e3        	bnez	a4, 0xcc <.LBB0_4+0xc>
      ce: 01 43        	li	t1, 0
      d0: d3 f1 01 1a  	fdiv.d	ft3, ft3, ft0

00000000000000d4 <.LBB0_6>:
      d4: 93 03 a0 1b  	li	t2, 442
      d8: 2a 87        	mv	a4, a0
      da: b2 87        	mv	a5, a2
      dc: 53 02 21 22  	fmv.d	ft4, ft2

00000000000000e0 <.LBB0_7>:
      e0: 83 3e 07 00  	ld	t4, 0(a4)
      e4: 13 1e 33 00  	slli	t3, t1, 3
      e8: f2 9e        	add	t4, t4, t3
      ea: 87 b2 0e 00  	fld	ft5, 0(t4)
      ee: 07 b3 07 00  	fld	ft6, 0(a5)
      f2: 43 f2 62 22  	fmadd.d	ft4, ft5, ft6, ft4
      f6: a1 07        	addi	a5, a5, 8
      f8: fd 13        	addi	t2, t2, -1
      fa: 21 07        	addi	a4, a4, 8
      fc: 63 90 03 00  	bnez	t2, 0xfc <.LBB0_7+0x1c>
     100: 36 9e        	add	t3, t3, a3
     102: 87 32 0e 00  	fld	ft5, 0(t3)
     106: 43 72 12 2a  	fmadd.d	ft4, ft4, ft1, ft5
     10a: 05 03        	addi	t1, t1, 1
     10c: 27 30 4e 00  	fsd	ft4, 0(t3)
     110: 63 10 53 00  	bne	t1, t0, 0x110 <.LBB0_7+0x30>
     114: 85 28        	addiw	a7, a7, 1
     116: 43 f5 11 52  	fmadd.d	fa0, ft3, ft1, fa0
     11a: 63 90 08 01  	bne	a7, a6, 0x11a <.LBB0_7+0x3a>
     11e: 82 80        	ret

0000000000000120 <predict>:
     120: 93 06 a0 1b  	li	a3, 442
     124: 53 00 00 f2  	fmv.d.x	ft0, zero

0000000000000128 <.LBB1_1>:
     128: 98 61        	ld	a4, 0(a1)
     12a: 87 30 07 00  	fld	ft1, 0(a4)
     12e: 07 31 06 00  	fld	ft2, 0(a2)
     132: 87 31 87 00  	fld	ft3, 8(a4)
     136: 07 32 86 00  	fld	ft4, 8(a2)
     13a: c3 f0 20 02  	fmadd.d	ft1, ft1, ft2, ft0
     13e: c3 f0 41 0a  	fmadd.d	ft1, ft3, ft4, ft1
     142: 07 31 07 01  	fld	ft2, 16(a4)
     146: 87 31 06 01  	fld	ft3, 16(a2)
     14a: 07 32 87 01  	fld	ft4, 24(a4)
     14e: 87 32 86 01  	fld	ft5, 24(a2)
     152: 07 33 07 02  	fld	ft6, 32(a4)
     156: 87 33 06 02  	fld	ft7, 32(a2)
     15a: 0c 37        	fld	fa1, 40(a4)
     15c: 10 36        	fld	fa2, 40(a2)
     15e: c3 70 31 0a  	fmadd.d	ft1, ft2, ft3, ft1
     162: c3 70 52 0a  	fmadd.d	ft1, ft4, ft5, ft1
     166: c3 70 73 0a  	fmadd.d	ft1, ft6, ft7, ft1
     16a: c3 f0 c5 0a  	fmadd.d	ft1, fa1, fa2, ft1
     16e: 07 31 07 03  	fld	ft2, 48(a4)
     172: 87 31 06 03  	fld	ft3, 48(a2)
     176: 07 32 87 03  	fld	ft4, 56(a4)
     17a: 87 32 86 03  	fld	ft5, 56(a2)
     17e: 07 33 07 04  	fld	ft6, 64(a4)
     182: 87 33 06 04  	fld	ft7, 64(a2)
     186: 2c 27        	fld	fa1, 72(a4)
     188: 30 26        	fld	fa2, 72(a2)
     18a: c3 70 31 0a  	fmadd.d	ft1, ft2, ft3, ft1
     18e: c3 70 52 0a  	fmadd.d	ft1, ft4, ft5, ft1
     192: c3 70 73 0a  	fmadd.d	ft1, ft6, ft7, ft1
     196: c3 f0 c5 0a  	fmadd.d	ft1, fa1, fa2, ft1
     19a: d3 f0 a0 02  	fadd.d	ft1, ft1, fa0
     19e: 27 30 15 00  	fsd	ft1, 0(a0)
     1a2: 21 05        	addi	a0, a0, 8
     1a4: fd 16        	addi	a3, a3, -1
     1a6: a1 05        	addi	a1, a1, 8
     1a8: 81 e2        	bnez	a3, 0x1a8 <.LBB1_1+0x80>
     1aa: 82 80        	ret

00000000000001ac <r2_score>:
     1ac: d3 00 00 f2  	fmv.d.x	ft1, zero
     1b0: 13 06 a0 1b  	li	a2, 442
     1b4: ae 86        	mv	a3, a1

00000000000001b6 <.LBB2_1>:
     1b6: 07 b0 06 00  	fld	ft0, 0(a3)
     1ba: d3 f0 00 02  	fadd.d	ft1, ft1, ft0
     1be: 7d 16        	addi	a2, a2, -1
     1c0: a1 06        	addi	a3, a3, 8
     1c2: 01 e2        	bnez	a2, 0x1c2 <.LBB2_1+0xc>
     1c4: 53 00 00 f2  	fmv.d.x	ft0, zero
     1c8: 13 06 a0 1b  	li	a2, 442
     1cc: ae 86        	mv	a3, a1

00000000000001ce <.LBB2_3>:
     1ce: 07 b1 06 00  	fld	ft2, 0(a3)
     1d2: 87 31 05 00  	fld	ft3, 0(a0)
     1d6: 53 71 31 0a  	fsub.d	ft2, ft2, ft3
     1da: 43 70 21 02  	fmadd.d	ft0, ft2, ft2, ft0
     1de: 21 05        	addi	a0, a0, 8
     1e0: 7d 16        	addi	a2, a2, -1
     1e2: a1 06        	addi	a3, a3, 8
     1e4: 01 e2        	bnez	a2, 0x1e4 <.LBB2_3+0x16>
     1e6: 37 05 00 00  	lui	a0, 0
     1ea: 07 31 05 00  	fld	ft2, 0(a0)
     1ee: 53 f1 20 1a  	fdiv.d	ft2, ft1, ft2
     1f2: d3 00 00 f2  	fmv.d.x	ft1, zero
     1f6: 13 05 a0 1b  	li	a0, 442

00000000000001fa <.LBB2_5>:
     1fa: 87 b1 05 00  	fld	ft3, 0(a1)
     1fe: d3 f1 21 0a  	fsub.d	ft3, ft3, ft2
     202: c3 f0 31 0a  	fmadd.d	ft1, ft3, ft3, ft1
     206: 7d 15        	addi	a0, a0, -1
     208: a1 05        	addi	a1, a1, 8
     20a: 01 e1        	bnez	a0, 0x20a <.LBB2_5+0x10>
     20c: 37 05 00 00  	lui	a0, 0
     210: 07 31 05 00  	fld	ft2, 0(a0)
     214: 53 70 10 1a  	fdiv.d	ft0, ft0, ft1
     218: 53 75 01 0a  	fsub.d	fa0, ft2, ft0
     21c: 82 80        	ret

000000000000021e <core>:
     21e: 79 71        	addi	sp, sp, -48
     220: 06 f4        	sd	ra, 40(sp)
     222: 22 f0        	sd	s0, 32(sp)
     224: 26 ec        	sd	s1, 24(sp)
     226: 4a e8        	sd	s2, 16(sp)
     228: 4e e4        	sd	s3, 8(sp)
     22a: 22 a0        	fsd	fs0, 0(sp)
     22c: be 89        	mv	s3, a5
     22e: 3a 84        	mv	s0, a4
     230: 32 89        	mv	s2, a2
     232: aa 84        	mv	s1, a0
     234: 73 25 20 c0  	rdinstret	a0
     238: b7 05 00 00  	lui	a1, 0
     23c: 23 b0 a5 00  	sd	a0, 0(a1)
     240: 26 85        	mv	a0, s1
     242: b2 85        	mv	a1, a2
     244: 36 86        	mv	a2, a3
     246: ba 86        	mv	a3, a4
     248: 97 00 00 00  	auipc	ra, 0
     24c: e7 80 00 00  	jalr	ra
     250: 13 05 a0 1b  	li	a0, 442
     254: 53 00 00 f2  	fmv.d.x	ft0, zero
     258: ce 85        	mv	a1, s3

000000000000025a <.LBB3_1>:
     25a: 90 60        	ld	a2, 0(s1)
     25c: 87 30 06 00  	fld	ft1, 0(a2)
     260: 07 31 04 00  	fld	ft2, 0(s0)
     264: 87 31 86 00  	fld	ft3, 8(a2)
     268: 07 32 84 00  	fld	ft4, 8(s0)
     26c: c3 f0 20 02  	fmadd.d	ft1, ft1, ft2, ft0
     270: c3 f0 41 0a  	fmadd.d	ft1, ft3, ft4, ft1
     274: 07 31 06 01  	fld	ft2, 16(a2)
     278: 87 31 04 01  	fld	ft3, 16(s0)
     27c: 07 32 86 01  	fld	ft4, 24(a2)
     280: 87 32 84 01  	fld	ft5, 24(s0)
     284: 07 33 06 02  	fld	ft6, 32(a2)
     288: 87 33 04 02  	fld	ft7, 32(s0)
     28c: 0c 36        	fld	fa1, 40(a2)
     28e: 10 34        	fld	fa2, 40(s0)
     290: c3 70 31 0a  	fmadd.d	ft1, ft2, ft3, ft1
     294: c3 70 52 0a  	fmadd.d	ft1, ft4, ft5, ft1
     298: c3 70 73 0a  	fmadd.d	ft1, ft6, ft7, ft1
     29c: c3 f0 c5 0a  	fmadd.d	ft1, fa1, fa2, ft1
     2a0: 07 31 06 03  	fld	ft2, 48(a2)
     2a4: 87 31 04 03  	fld	ft3, 48(s0)
     2a8: 07 32 86 03  	fld	ft4, 56(a2)
     2ac: 87 32 84 03  	fld	ft5, 56(s0)
     2b0: 07 33 06 04  	fld	ft6, 64(a2)
     2b4: 87 33 04 04  	fld	ft7, 64(s0)
     2b8: 2c 26        	fld	fa1, 72(a2)
     2ba: 30 24        	fld	fa2, 72(s0)
     2bc: c3 70 31 0a  	fmadd.d	ft1, ft2, ft3, ft1
     2c0: c3 70 52 0a  	fmadd.d	ft1, ft4, ft5, ft1
     2c4: c3 70 73 0a  	fmadd.d	ft1, ft6, ft7, ft1
     2c8: c3 f0 c5 0a  	fmadd.d	ft1, fa1, fa2, ft1
     2cc: d3 70 15 02  	fadd.d	ft1, fa0, ft1
     2d0: 27 b0 15 00  	fsd	ft1, 0(a1)
     2d4: 7d 15        	addi	a0, a0, -1
     2d6: a1 05        	addi	a1, a1, 8
     2d8: a1 04        	addi	s1, s1, 8
     2da: 01 e1        	bnez	a0, 0x2da <.LBB3_1+0x80>
     2dc: 13 05 a0 1b  	li	a0, 442
     2e0: ca 85        	mv	a1, s2

00000000000002e2 <.LBB3_3>:
     2e2: 87 b0 05 00  	fld	ft1, 0(a1)
     2e6: 53 70 10 02  	fadd.d	ft0, ft0, ft1
     2ea: 7d 15        	addi	a0, a0, -1
     2ec: a1 05        	addi	a1, a1, 8
     2ee: 01 e1        	bnez	a0, 0x2ee <.LBB3_3+0xc>
     2f0: d3 00 00 f2  	fmv.d.x	ft1, zero
     2f4: 13 05 a0 1b  	li	a0, 442
     2f8: ca 85        	mv	a1, s2

00000000000002fa <.LBB3_5>:
     2fa: 07 b1 05 00  	fld	ft2, 0(a1)
     2fe: 87 b1 09 00  	fld	ft3, 0(s3)
     302: 53 71 31 0a  	fsub.d	ft2, ft2, ft3
     306: c3 70 21 0a  	fmadd.d	ft1, ft2, ft2, ft1
     30a: 7d 15        	addi	a0, a0, -1
     30c: a1 09        	addi	s3, s3, 8
     30e: a1 05        	addi	a1, a1, 8
     310: 01 e1        	bnez	a0, 0x310 <.LBB3_5+0x16>
     312: 37 05 00 00  	lui	a0, 0
     316: 07 31 05 00  	fld	ft2, 0(a0)
     31a: 53 71 20 1a  	fdiv.d	ft2, ft0, ft2
     31e: 53 00 00 f2  	fmv.d.x	ft0, zero
     322: 13 05 a0 1b  	li	a0, 442

0000000000000326 <.LBB3_7>:
     326: 87 31 09 00  	fld	ft3, 0(s2)
     32a: d3 f1 21 0a  	fsub.d	ft3, ft3, ft2
     32e: 43 f0 31 02  	fmadd.d	ft0, ft3, ft3, ft0
     332: 7d 15        	addi	a0, a0, -1
     334: 21 09        	addi	s2, s2, 8
     336: 01 e1        	bnez	a0, 0x336 <.LBB3_7+0x10>
     338: 53 f0 00 1a  	fdiv.d	ft0, ft1, ft0
     33c: 37 05 00 00  	lui	a0, 0
     340: 87 30 05 00  	fld	ft1, 0(a0)
     344: 73 26 20 c0  	rdinstret	a2
     348: 37 05 00 00  	lui	a0, 0
     34c: 83 35 05 00  	ld	a1, 0(a0)
     350: 37 05 00 00  	lui	a0, 0
     354: 23 30 c5 00  	sd	a2, 0(a0)
     358: 53 f4 00 0a  	fsub.d	fs0, ft1, ft0
     35c: 37 05 00 00  	lui	a0, 0
     360: 13 05 05 00  	mv	a0, a0
     364: 97 00 00 00  	auipc	ra, 0
     368: e7 80 00 00  	jalr	ra
     36c: 53 05 84 22  	fmv.d	fa0, fs0
     370: a2 70        	ld	ra, 40(sp)
     372: 02 74        	ld	s0, 32(sp)
     374: e2 64        	ld	s1, 24(sp)
     376: 42 69        	ld	s2, 16(sp)
     378: a2 69        	ld	s3, 8(sp)
     37a: 02 24        	fld	fs0, 0(sp)
     37c: 45 61        	addi	sp, sp, 48
     37e: 82 80        	ret
