
kernel.o:	file format elf64-littleriscv

Disassembly of section .text:

0000000000000000 <.text>:
       0: 01 00        	nop

0000000000000002 <core_kernel>:
       2: 01 48        	li	a6, 0
       4: 53 00 00 f2  	fmv.d.x	ft0, zero
       8: 37 07 00 00  	lui	a4, 0
       c: 87 30 07 00  	fld	ft1, 0(a4)
      10: 37 07 00 00  	lui	a4, 0
      14: 07 31 07 00  	fld	ft2, 0(a4)
      18: 93 02 a0 1b  	li	t0, 442
      1c: 29 43        	li	t1, 10
      1e: 93 08 40 06  	li	a7, 100
      22: 53 05 00 22  	fmv.d	fa0, ft0

0000000000000026 <.LBB0_1>:
      26: 01 4e        	li	t3, 0

0000000000000028 <.LBB0_2>:
      28: 93 13 3e 00  	slli	t2, t3, 3
      2c: 33 07 75 00  	add	a4, a0, t2
      30: 83 3e 07 00  	ld	t4, 0(a4)
      34: a9 47        	li	a5, 10
      36: 36 87        	mv	a4, a3
      38: d3 01 00 22  	fmv.d	ft3, ft0

000000000000003c <.LBB0_3>:
      3c: 07 b2 0e 00  	fld	ft4, 0(t4)
      40: 87 32 07 00  	fld	ft5, 0(a4)
      44: c3 f1 42 1a  	fmadd.d	ft3, ft5, ft4, ft3
      48: 21 07        	addi	a4, a4, 8
      4a: fd 17        	addi	a5, a5, -1
      4c: a1 0e        	addi	t4, t4, 8
      4e: 81 e3        	bnez	a5, 0x4e <.LBB0_3+0x12>
      50: 33 87 75 00  	add	a4, a1, t2
      54: 07 32 07 00  	fld	ft4, 0(a4)
      58: d3 71 35 02  	fadd.d	ft3, fa0, ft3
      5c: d3 71 32 0a  	fsub.d	ft3, ft4, ft3
      60: b2 93        	add	t2, t2, a2
      62: 05 0e        	addi	t3, t3, 1
      64: 27 b0 33 00  	fsd	ft3, 0(t2)
      68: 63 10 5e 00  	bne	t3, t0, 0x68 <.LBB0_3+0x2c>
      6c: 13 07 a0 1b  	li	a4, 442
      70: b2 87        	mv	a5, a2
      72: d3 01 00 22  	fmv.d	ft3, ft0

0000000000000076 <.LBB0_6>:
      76: 07 b2 07 00  	fld	ft4, 0(a5)
      7a: d3 71 32 02  	fadd.d	ft3, ft4, ft3
      7e: 7d 17        	addi	a4, a4, -1
      80: a1 07        	addi	a5, a5, 8
      82: 01 e3        	bnez	a4, 0x82 <.LBB0_6+0xc>
      84: 81 43        	li	t2, 0
      86: d3 f1 11 12  	fmul.d	ft3, ft3, ft1

000000000000008a <.LBB0_8>:
      8a: 13 0e a0 1b  	li	t3, 442
      8e: aa 87        	mv	a5, a0
      90: 32 87        	mv	a4, a2
      92: 53 02 00 22  	fmv.d	ft4, ft0

0000000000000096 <.LBB0_9>:
      96: 03 bf 07 00  	ld	t5, 0(a5)
      9a: 93 9e 33 00  	slli	t4, t2, 3
      9e: 76 9f        	add	t5, t5, t4
      a0: 87 32 0f 00  	fld	ft5, 0(t5)
      a4: 07 33 07 00  	fld	ft6, 0(a4)
      a8: 43 72 53 22  	fmadd.d	ft4, ft6, ft5, ft4
      ac: 21 07        	addi	a4, a4, 8
      ae: 7d 1e        	addi	t3, t3, -1
      b0: a1 07        	addi	a5, a5, 8
      b2: 63 10 0e 00  	bnez	t3, 0xb2 <.LBB0_9+0x1c>
      b6: b6 9e        	add	t4, t4, a3
      b8: 87 b2 0e 00  	fld	ft5, 0(t4)
      bc: 43 72 22 2a  	fmadd.d	ft4, ft4, ft2, ft5
      c0: 85 03        	addi	t2, t2, 1
      c2: 27 b0 4e 00  	fsd	ft4, 0(t4)
      c6: 63 90 63 00  	bne	t2, t1, 0xc6 <.LBB0_9+0x30>
      ca: 05 28        	addiw	a6, a6, 1
      cc: 53 f5 a1 02  	fadd.d	fa0, ft3, fa0
      d0: 63 10 18 01  	bne	a6, a7, 0xd0 <.LBB0_9+0x3a>
      d4: 82 80        	ret

00000000000000d6 <predict>:
      d6: 81 42        	li	t0, 0
      d8: 53 00 00 f2  	fmv.d.x	ft0, zero
      dc: 13 08 a0 1b  	li	a6, 442

00000000000000e0 <.LBB1_1>:
      e0: 93 98 32 00  	slli	a7, t0, 3
      e4: b3 86 15 01  	add	a3, a1, a7
      e8: 98 62        	ld	a4, 0(a3)
      ea: a9 47        	li	a5, 10
      ec: b2 86        	mv	a3, a2
      ee: d3 00 00 22  	fmv.d	ft1, ft0

00000000000000f2 <.LBB1_2>:
      f2: 07 31 07 00  	fld	ft2, 0(a4)
      f6: 87 b1 06 00  	fld	ft3, 0(a3)
      fa: c3 f0 21 0a  	fmadd.d	ft1, ft3, ft2, ft1
      fe: a1 06        	addi	a3, a3, 8
     100: fd 17        	addi	a5, a5, -1
     102: 21 07        	addi	a4, a4, 8
     104: 81 e3        	bnez	a5, 0x104 <.LBB1_2+0x12>
     106: d3 f0 a0 02  	fadd.d	ft1, ft1, fa0
     10a: aa 98        	add	a7, a7, a0
     10c: 85 02        	addi	t0, t0, 1
     10e: 27 b0 18 00  	fsd	ft1, 0(a7)
     112: 63 90 02 01  	bne	t0, a6, 0x112 <.LBB1_2+0x20>
     116: 82 80        	ret

0000000000000118 <r2_score>:
     118: d3 00 00 f2  	fmv.d.x	ft1, zero
     11c: 13 06 a0 1b  	li	a2, 442
     120: ae 86        	mv	a3, a1

0000000000000122 <.LBB2_1>:
     122: 07 b0 06 00  	fld	ft0, 0(a3)
     126: d3 70 10 02  	fadd.d	ft1, ft0, ft1
     12a: 7d 16        	addi	a2, a2, -1
     12c: a1 06        	addi	a3, a3, 8
     12e: 01 e2        	bnez	a2, 0x12e <.LBB2_1+0xc>
     130: 53 00 00 f2  	fmv.d.x	ft0, zero
     134: 13 06 a0 1b  	li	a2, 442
     138: ae 86        	mv	a3, a1

000000000000013a <.LBB2_3>:
     13a: 07 b1 06 00  	fld	ft2, 0(a3)
     13e: 87 31 05 00  	fld	ft3, 0(a0)
     142: 53 71 31 0a  	fsub.d	ft2, ft2, ft3
     146: 43 70 21 02  	fmadd.d	ft0, ft2, ft2, ft0
     14a: 21 05        	addi	a0, a0, 8
     14c: 7d 16        	addi	a2, a2, -1
     14e: a1 06        	addi	a3, a3, 8
     150: 01 e2        	bnez	a2, 0x150 <.LBB2_3+0x16>
     152: 37 05 00 00  	lui	a0, 0
     156: 07 31 05 00  	fld	ft2, 0(a0)
     15a: 53 f1 20 12  	fmul.d	ft2, ft1, ft2
     15e: d3 00 00 f2  	fmv.d.x	ft1, zero
     162: 13 05 a0 1b  	li	a0, 442

0000000000000166 <.LBB2_5>:
     166: 87 b1 05 00  	fld	ft3, 0(a1)
     16a: d3 f1 21 0a  	fsub.d	ft3, ft3, ft2
     16e: c3 f0 31 0a  	fmadd.d	ft1, ft3, ft3, ft1
     172: 7d 15        	addi	a0, a0, -1
     174: a1 05        	addi	a1, a1, 8
     176: 01 e1        	bnez	a0, 0x176 <.LBB2_5+0x10>
     178: 37 05 00 00  	lui	a0, 0
     17c: 07 31 05 00  	fld	ft2, 0(a0)
     180: 53 70 10 1a  	fdiv.d	ft0, ft0, ft1
     184: 53 75 01 0a  	fsub.d	fa0, ft2, ft0
     188: 82 80        	ret

000000000000018a <core>:
     18a: 41 11        	addi	sp, sp, -16
     18c: 06 e4        	sd	ra, 8(sp)
     18e: 22 a0        	fsd	fs0, 0(sp)
     190: 01 48        	li	a6, 0
     192: f3 28 20 c0  	rdinstret	a7
     196: b7 05 00 00  	lui	a1, 0
     19a: 23 b0 15 01  	sd	a7, 0(a1)
     19e: d3 00 00 f2  	fmv.d.x	ft1, zero
     1a2: b7 05 00 00  	lui	a1, 0
     1a6: 07 b1 05 00  	fld	ft2, 0(a1)
     1aa: b7 05 00 00  	lui	a1, 0
     1ae: 87 b1 05 00  	fld	ft3, 0(a1)
     1b2: 93 08 a0 1b  	li	a7, 442
     1b6: 29 43        	li	t1, 10
     1b8: 93 02 40 06  	li	t0, 100
     1bc: 53 80 10 22  	fmv.d	ft0, ft1

00000000000001c0 <.LBB3_1>:
     1c0: 01 4e        	li	t3, 0

00000000000001c2 <.LBB3_2>:
     1c2: 93 13 3e 00  	slli	t2, t3, 3
     1c6: b3 05 75 00  	add	a1, a0, t2
     1ca: 83 be 05 00  	ld	t4, 0(a1)
     1ce: 29 4f        	li	t5, 10
     1d0: ba 85        	mv	a1, a4
     1d2: 53 82 10 22  	fmv.d	ft4, ft1

00000000000001d6 <.LBB3_3>:
     1d6: 87 b2 0e 00  	fld	ft5, 0(t4)
     1da: 07 b3 05 00  	fld	ft6, 0(a1)
     1de: 43 72 53 22  	fmadd.d	ft4, ft6, ft5, ft4
     1e2: 7d 1f        	addi	t5, t5, -1
     1e4: a1 05        	addi	a1, a1, 8
     1e6: a1 0e        	addi	t4, t4, 8
     1e8: 63 10 0f 00  	bnez	t5, 0x1e8 <.LBB3_3+0x12>
     1ec: b3 05 76 00  	add	a1, a2, t2
     1f0: 87 b2 05 00  	fld	ft5, 0(a1)
     1f4: 53 72 40 02  	fadd.d	ft4, ft0, ft4
     1f8: 53 f2 42 0a  	fsub.d	ft4, ft5, ft4
     1fc: b6 93        	add	t2, t2, a3
     1fe: 05 0e        	addi	t3, t3, 1
     200: 27 b0 43 00  	fsd	ft4, 0(t2)
     204: 63 10 1e 01  	bne	t3, a7, 0x204 <.LBB3_3+0x2e>
     208: 93 03 a0 1b  	li	t2, 442
     20c: b6 85        	mv	a1, a3
     20e: 53 82 10 22  	fmv.d	ft4, ft1

0000000000000212 <.LBB3_6>:
     212: 87 b2 05 00  	fld	ft5, 0(a1)
     216: 53 f2 42 02  	fadd.d	ft4, ft5, ft4
     21a: fd 13        	addi	t2, t2, -1
     21c: a1 05        	addi	a1, a1, 8
     21e: 63 90 03 00  	bnez	t2, 0x21e <.LBB3_6+0xc>

0000000000000222 <.LBB3_7>:
     222: 13 0e a0 1b  	li	t3, 442
     226: aa 8e        	mv	t4, a0
     228: b6 85        	mv	a1, a3
     22a: d3 82 10 22  	fmv.d	ft5, ft1

000000000000022e <.LBB3_8>:
     22e: 83 bf 0e 00  	ld	t6, 0(t4)
     232: 13 9f 33 00  	slli	t5, t2, 3
     236: fa 9f        	add	t6, t6, t5
     238: 07 b3 0f 00  	fld	ft6, 0(t6)
     23c: 87 b3 05 00  	fld	ft7, 0(a1)
     240: c3 f2 63 2a  	fmadd.d	ft5, ft7, ft6, ft5
     244: 7d 1e        	addi	t3, t3, -1
     246: a1 05        	addi	a1, a1, 8
     248: a1 0e        	addi	t4, t4, 8
     24a: 63 10 0e 00  	bnez	t3, 0x24a <.LBB3_8+0x1c>
     24e: 3a 9f        	add	t5, t5, a4
     250: 07 33 0f 00  	fld	ft6, 0(t5)
     254: c3 f2 22 32  	fmadd.d	ft5, ft5, ft2, ft6
     258: 85 03        	addi	t2, t2, 1
     25a: 27 30 5f 00  	fsd	ft5, 0(t5)
     25e: 63 90 63 00  	bne	t2, t1, 0x25e <.LBB3_8+0x30>
     262: 05 28        	addiw	a6, a6, 1
     264: 43 70 32 02  	fmadd.d	ft0, ft4, ft3, ft0
     268: 63 10 58 00  	bne	a6, t0, 0x268 <.LBB3_8+0x3a>
     26c: 81 42        	li	t0, 0
     26e: d3 00 00 f2  	fmv.d.x	ft1, zero
     272: 13 08 a0 1b  	li	a6, 442

0000000000000276 <.LBB3_12>:
     276: 93 98 32 00  	slli	a7, t0, 3
     27a: b3 05 15 01  	add	a1, a0, a7
     27e: 03 b3 05 00  	ld	t1, 0(a1)
     282: a9 45        	li	a1, 10
     284: ba 86        	mv	a3, a4
     286: 53 81 10 22  	fmv.d	ft2, ft1

000000000000028a <.LBB3_13>:
     28a: 87 31 03 00  	fld	ft3, 0(t1)
     28e: 07 b2 06 00  	fld	ft4, 0(a3)
     292: 43 71 32 12  	fmadd.d	ft2, ft4, ft3, ft2
     296: fd 15        	addi	a1, a1, -1
     298: a1 06        	addi	a3, a3, 8
     29a: 21 03        	addi	t1, t1, 8
     29c: 81 e1        	bnez	a1, 0x29c <.LBB3_13+0x12>
     29e: 53 71 01 02  	fadd.d	ft2, ft2, ft0
     2a2: be 98        	add	a7, a7, a5
     2a4: 85 02        	addi	t0, t0, 1
     2a6: 27 b0 28 00  	fsd	ft2, 0(a7)
     2aa: 63 90 02 01  	bne	t0, a6, 0x2aa <.LBB3_13+0x20>
     2ae: d3 00 00 f2  	fmv.d.x	ft1, zero
     2b2: 13 05 a0 1b  	li	a0, 442
     2b6: b2 85        	mv	a1, a2

00000000000002b8 <.LBB3_16>:
     2b8: 07 b0 05 00  	fld	ft0, 0(a1)
     2bc: d3 70 10 02  	fadd.d	ft1, ft0, ft1
     2c0: 7d 15        	addi	a0, a0, -1
     2c2: a1 05        	addi	a1, a1, 8
     2c4: 01 e1        	bnez	a0, 0x2c4 <.LBB3_16+0xc>
     2c6: 53 00 00 f2  	fmv.d.x	ft0, zero
     2ca: 13 05 a0 1b  	li	a0, 442
     2ce: b2 85        	mv	a1, a2

00000000000002d0 <.LBB3_18>:
     2d0: 07 b1 05 00  	fld	ft2, 0(a1)
     2d4: 87 b1 07 00  	fld	ft3, 0(a5)
     2d8: 53 71 31 0a  	fsub.d	ft2, ft2, ft3
     2dc: 43 70 21 02  	fmadd.d	ft0, ft2, ft2, ft0
     2e0: 7d 15        	addi	a0, a0, -1
     2e2: a1 07        	addi	a5, a5, 8
     2e4: a1 05        	addi	a1, a1, 8
     2e6: 01 e1        	bnez	a0, 0x2e6 <.LBB3_18+0x16>
     2e8: 37 05 00 00  	lui	a0, 0
     2ec: 07 31 05 00  	fld	ft2, 0(a0)
     2f0: 53 f1 20 12  	fmul.d	ft2, ft1, ft2
     2f4: d3 00 00 f2  	fmv.d.x	ft1, zero
     2f8: 13 05 a0 1b  	li	a0, 442

00000000000002fc <.LBB3_20>:
     2fc: 87 31 06 00  	fld	ft3, 0(a2)
     300: d3 f1 21 0a  	fsub.d	ft3, ft3, ft2
     304: c3 f0 31 0a  	fmadd.d	ft1, ft3, ft3, ft1
     308: 7d 15        	addi	a0, a0, -1
     30a: 21 06        	addi	a2, a2, 8
     30c: 01 e1        	bnez	a0, 0x30c <.LBB3_20+0x10>
     30e: 53 70 10 1a  	fdiv.d	ft0, ft0, ft1
     312: 37 05 00 00  	lui	a0, 0
     316: 87 30 05 00  	fld	ft1, 0(a0)
     31a: 73 26 20 c0  	rdinstret	a2
     31e: 37 05 00 00  	lui	a0, 0
     322: 83 35 05 00  	ld	a1, 0(a0)
     326: 37 05 00 00  	lui	a0, 0
     32a: 23 30 c5 00  	sd	a2, 0(a0)
     32e: 53 f4 00 0a  	fsub.d	fs0, ft1, ft0
     332: 37 05 00 00  	lui	a0, 0
     336: 13 05 05 00  	mv	a0, a0
     33a: 97 00 00 00  	auipc	ra, 0
     33e: e7 80 00 00  	jalr	ra
     342: 53 05 84 22  	fmv.d	fa0, fs0
     346: a2 60        	ld	ra, 8(sp)
     348: 02 24        	fld	fs0, 0(sp)
     34a: 41 01        	addi	sp, sp, 16
     34c: 82 80        	ret
