
kernel.o:     file format elf64-littleriscv


Disassembly of section .text:

0000000000000000 <core_kernel>:
   0:	c0202873          	rdinstret	a6
   4:	00000eb7          	lui	t4,0x0
   8:	000eb507          	fld	fa0,0(t4) # 0 <core_kernel>
   c:	000007b7          	lui	a5,0x0
  10:	00000eb7          	lui	t4,0x0
  14:	0107b023          	sd	a6,0(a5) # 0 <core_kernel>
  18:	1ba00893          	li	a7,442
  1c:	06400793          	li	a5,100
  20:	4329                	li	t1,10
  22:	4e05                	li	t3,1
  24:	000ebe83          	ld	t4,0(t4) # 0 <core_kernel>
  28:	e2050f53          	fmv.x.d	t5,fa0
  2c:	f806f08b          	ss.sta.ld.d.v.m	u1,a3
  30:	02f0008b          	ss.app	u1,zero,a5,zero
  34:	0310008b          	ss.app	u1,zero,a7,zero
  38:	e460008b          	ss.end	u1,zero,t1,t3
  3c:	f805710b          	ss.sta.ld.d.v.m	u2,a0
  40:	02f0010b          	ss.app	u2,zero,a5,zero
  44:	3310010b          	ss.app	u2,zero,a7,t1
  48:	e460010b          	ss.end	u2,zero,t1,t3
  4c:	0006318b          	ss.sta.st.d	u3,a2
  50:	02f0018b          	ss.app	u3,zero,a5,zero
  54:	e510018b          	ss.end	u3,zero,a7,t3
  58:	0005f20b          	ss.sta.ld.d	u4,a1
  5c:	02f0020b          	ss.app	u4,zero,a5,zero
  60:	e510020b          	ss.end	u4,zero,a7,t3
  64:	7806728b          	ss.sta.ld.d.v	u5,a2
  68:	02f0028b          	ss.app	u5,zero,a5,zero
  6c:	e510028b          	ss.end	u5,zero,a7,t3
  70:	7805730b          	ss.sta.ld.d.v	u6,a0
  74:	02f0030b          	ss.app	u6,zero,a5,zero
  78:	e260030b          	ss.app	u6,zero,t1,t3
  7c:	3510030b          	ss.end	u6,zero,a7,t1
  80:	7806738b          	ss.sta.ld.d.v	u7,a2
  84:	02f0038b          	ss.app	u7,zero,a5,zero
  88:	0260038b          	ss.app	u7,zero,t1,zero
  8c:	e510038b          	ss.end	u7,zero,a7,t3
  90:	0006f40b          	ss.sta.ld.d	u8,a3
  94:	02f0040b          	ss.app	u8,zero,a5,zero
  98:	e460040b          	ss.end	u8,zero,t1,t3
  9c:	0006b48b          	ss.sta.st.d	u9,a3
  a0:	02f0048b          	ss.app	u9,zero,a5,zero
  a4:	e460048b          	ss.end	u9,zero,t1,t3
  a8:	a980352b          	so.v.mvsv.d	u10,zero
  ac:	a98f35ab          	so.v.mvsv.d	u11,t5
  b0:	a98eb62b          	so.v.mvsv.d	u12,t4

00000000000000b4 <.SLOOP_117>:
  b4:	ac0036ab          	so.v.dp.d	u13,zero,p0

00000000000000b8 <.SLOOP_1_0_017>:
  b8:	301156ab          	so.a.mac.fp	u13,u2,u1,p0
  bc:	ffd0aeab          	so.b.ndc.3	u1,b8 <.SLOOP_1_0_017>
  c0:	200697ab          	so.a.adde.fp	u15,u13,p0
  c4:	00a797ab          	so.a.add.fp	u15,u15,u10,p0
  c8:	00f251ab          	so.a.sub.fp	u3,u4,u15,p0
  cc:	ffd094ab          	so.b.ndc.2	u1,b4 <.SLOOP_117>
  d0:	a980382b          	so.v.mvsv.d	u16,zero

00000000000000d4 <.SLOOP_1_117>:
  d4:	2012982b          	so.a.adde.acc.fp	u16,u5,p0
  d8:	ffd29eab          	so.b.ndc.2	u5,d4 <.SLOOP_1_117>
  dc:	10c8582b          	so.a.div.fp	u16,u16,u12,p0
  e0:	30b8552b          	so.a.mac.fp	u10,u16,u11,p0

00000000000000e4 <.SLOOP_1_217>:
  e4:	ac00392b          	so.v.dp.d	u18,zero,p0

00000000000000e8 <.SLOOP_1_2_017>:
  e8:	107319ab          	so.a.mul.fp	u19,u6,u7,p0
  ec:	2019992b          	so.a.adde.acc.fp	u18,u19,p0
  f0:	ffd32cab          	so.b.ndc.3	u6,e8 <.SLOOP_1_2_017>
  f4:	10b9192b          	so.a.mul.fp	u18,u18,u11,p0
  f8:	012414ab          	so.a.add.fp	u9,u8,u18,p0
  fc:	ffd314ab          	so.b.ndc.2	u6,e4 <.SLOOP_1_217>
 100:	ff50faab          	so.b.nc	u1,b4 <.SLOOP_117>
 104:	a90507ab          	so.v.mvvs	a5,u10
 108:	f2078553          	fmv.d.x	fa0,a5
 10c:	c02027f3          	rdinstret	a5
 110:	000006b7          	lui	a3,0x0
 114:	00f6b023          	sd	a5,0(a3) # 0 <core_kernel>
 118:	410787b3          	sub	a5,a5,a6
 11c:	e31c                	sd	a5,0(a4)
 11e:	8082                	ret

0000000000000120 <predict>:
 120:	c02027f3          	rdinstret	a5
 124:	00000737          	lui	a4,0x0
 128:	00f73023          	sd	a5,0(a4) # 0 <core_kernel>
 12c:	46a9                	li	a3,10
 12e:	1ba00713          	li	a4,442
 132:	4805                	li	a6,1
 134:	e20508d3          	fmv.x.d	a7,fa0
 138:	f806708b          	ss.sta.ld.d.v.m	u1,a2
 13c:	02e0008b          	ss.app	u1,zero,a4,zero
 140:	84d0008b          	ss.end	u1,zero,a3,a6
 144:	f805f10b          	ss.sta.ld.d.v.m	u2,a1
 148:	6ae0010b          	ss.app	u2,zero,a4,a3
 14c:	84d0010b          	ss.end	u2,zero,a3,a6
 150:	0005318b          	ss.sta.st.d	u3,a0
 154:	84e0018b          	ss.end	u3,zero,a4,a6
 158:	a988b22b          	so.v.mvsv.d	u4,a7

000000000000015c <.SLOOP_142>:
 15c:	ac0032ab          	so.v.dp.d	u5,zero,p0

0000000000000160 <.SLOOP_1_042>:
 160:	301152ab          	so.a.mac.fp	u5,u2,u1,p0
 164:	ffd09eab          	so.b.ndc.2	u1,160 <.SLOOP_1_042>
 168:	200293ab          	so.a.adde.fp	u7,u5,p0
 16c:	004391ab          	so.a.add.fp	u3,u7,u4,p0
 170:	ffd0f6ab          	so.b.nc	u1,15c <.SLOOP_142>
 174:	c0202573          	rdinstret	a0
 178:	00000737          	lui	a4,0x0
 17c:	00a73023          	sd	a0,0(a4) # 0 <core_kernel>
 180:	8d1d                	sub	a0,a0,a5
 182:	8082                	ret

0000000000000184 <r2_score>:
 184:	c0202773          	rdinstret	a4
 188:	000007b7          	lui	a5,0x0
 18c:	00e7b023          	sd	a4,0(a5) # 0 <core_kernel>
 190:	000006b7          	lui	a3,0x0
 194:	000007b7          	lui	a5,0x0
 198:	0007b783          	ld	a5,0(a5) # 0 <core_kernel>
 19c:	0006b683          	ld	a3,0(a3) # 0 <core_kernel>
 1a0:	1ba00813          	li	a6,442
 1a4:	4885                	li	a7,1
 1a6:	0005f08b          	ss.sta.ld.d	u1,a1
 1aa:	8d00008b          	ss.end	u1,zero,a6,a7
 1ae:	0005f10b          	ss.sta.ld.d	u2,a1
 1b2:	8d00010b          	ss.end	u2,zero,a6,a7
 1b6:	0005f18b          	ss.sta.ld.d	u3,a1
 1ba:	8d00018b          	ss.end	u3,zero,a6,a7
 1be:	0005720b          	ss.sta.ld.d	u4,a0
 1c2:	8d00020b          	ss.end	u4,zero,a6,a7
 1c6:	a987b2ab          	so.v.mvsv.d	u5,a5
 1ca:	ac00332b          	so.v.dp.d	u6,zero,p0

00000000000001ce <.SLOOP_166>:
 1ce:	0013132b          	so.a.add.fp	u6,u6,u1,p0
 1d2:	ffd0feab          	so.b.nc	u1,1ce <.SLOOP_166>
 1d6:	200313ab          	so.a.adde.fp	u7,u6,p0
 1da:	1053d3ab          	so.a.div.fp	u7,u7,u5,p0
 1de:	ac00342b          	so.v.dp.d	u8,zero,p0

00000000000001e2 <.SLOOP_266>:
 1e2:	004154ab          	so.a.sub.fp	u9,u2,u4,p0
 1e6:	109494ab          	so.a.mul.fp	u9,u9,u9,p0
 1ea:	2014942b          	so.a.adde.acc.fp	u8,u9,p0
 1ee:	ffd17aab          	so.b.nc	u2,1e2 <.SLOOP_266>
 1f2:	ac0035ab          	so.v.dp.d	u11,zero,p0

00000000000001f6 <.SLOOP_366>:
 1f6:	0071d62b          	so.a.sub.fp	u12,u3,u7,p0
 1fa:	10c6162b          	so.a.mul.fp	u12,u12,u12,p0
 1fe:	201615ab          	so.a.adde.acc.fp	u11,u12,p0
 202:	ffd1faab          	so.b.nc	u3,1f6 <.SLOOP_366>
 206:	a986b72b          	so.v.mvsv.d	u14,a3
 20a:	10b455ab          	so.a.div.fp	u11,u8,u11,p0
 20e:	00b7572b          	so.a.sub.fp	u14,u14,u11,p0
 212:	a907032b          	so.v.mvvs	t1,u14
 216:	f2030553          	fmv.d.x	fa0,t1
 21a:	c02027f3          	rdinstret	a5
 21e:	000006b7          	lui	a3,0x0
 222:	00f6b023          	sd	a5,0(a3) # 0 <core_kernel>
 226:	8f99                	sub	a5,a5,a4
 228:	e21c                	sd	a5,0(a2)
 22a:	8082                	ret

000000000000022c <core>:
 22c:	715d                	addi	sp,sp,-80
 22e:	fc26                	sd	s1,56(sp)
 230:	f44e                	sd	s3,40(sp)
 232:	84b2                	mv	s1,a2
 234:	89ae                	mv	s3,a1
 236:	f84a                	sd	s2,48(sp)
 238:	8636                	mv	a2,a3
 23a:	893a                	mv	s2,a4
 23c:	86ba                	mv	a3,a4
 23e:	85a6                	mv	a1,s1
 240:	870a                	mv	a4,sp
 242:	854e                	mv	a0,s3
 244:	e0a2                	sd	s0,64(sp)
 246:	e486                	sd	ra,72(sp)
 248:	ac22                	fsd	fs0,24(sp)
 24a:	843e                	mv	s0,a5
 24c:	00000097          	auipc	ra,0x0
 250:	000080e7          	jalr	ra # 24c <core+0x20>
 254:	c0202773          	rdinstret	a4
 258:	000007b7          	lui	a5,0x0
 25c:	00e7b023          	sd	a4,0(a5) # 0 <core_kernel>
 260:	46a9                	li	a3,10
 262:	1ba00793          	li	a5,442
 266:	4605                	li	a2,1
 268:	e20505d3          	fmv.x.d	a1,fa0
 26c:	f809708b          	ss.sta.ld.d.v.m	u1,s2
 270:	02f0008b          	ss.app	u1,zero,a5,zero
 274:	64d0008b          	ss.end	u1,zero,a3,a2
 278:	f809f10b          	ss.sta.ld.d.v.m	u2,s3
 27c:	6af0010b          	ss.app	u2,zero,a5,a3
 280:	64d0010b          	ss.end	u2,zero,a3,a2
 284:	0004318b          	ss.sta.st.d	u3,s0
 288:	64f0018b          	ss.end	u3,zero,a5,a2
 28c:	a985b22b          	so.v.mvsv.d	u4,a1

0000000000000290 <.SLOOP_1109>:
 290:	ac0032ab          	so.v.dp.d	u5,zero,p0

0000000000000294 <.SLOOP_1_0109>:
 294:	301152ab          	so.a.mac.fp	u5,u2,u1,p0
 298:	ffd09eab          	so.b.ndc.2	u1,294 <.SLOOP_1_0109>
 29c:	200293ab          	so.a.adde.fp	u7,u5,p0
 2a0:	004391ab          	so.a.add.fp	u3,u7,u4,p0
 2a4:	ffd0f6ab          	so.b.nc	u1,290 <.SLOOP_1109>
 2a8:	c02026f3          	rdinstret	a3
 2ac:	000007b7          	lui	a5,0x0
 2b0:	0030                	addi	a2,sp,8
 2b2:	85a6                	mv	a1,s1
 2b4:	8522                	mv	a0,s0
 2b6:	00d7b023          	sd	a3,0(a5) # 0 <core_kernel>
 2ba:	40e68433          	sub	s0,a3,a4
 2be:	00000097          	auipc	ra,0x0
 2c2:	000080e7          	jalr	ra # 2be <.SLOOP_1_0109+0x2a>
 2c6:	6702                	ld	a4,0(sp)
 2c8:	67a2                	ld	a5,8(sp)
 2ca:	00000537          	lui	a0,0x0
 2ce:	9722                	add	a4,a4,s0
 2d0:	97ba                	add	a5,a5,a4
 2d2:	863e                	mv	a2,a5
 2d4:	4581                	li	a1,0
 2d6:	00050513          	mv	a0,a0
 2da:	22a50453          	fmv.d	fs0,fa0
 2de:	e43e                	sd	a5,8(sp)
 2e0:	00000097          	auipc	ra,0x0
 2e4:	000080e7          	jalr	ra # 2e0 <.SLOOP_1_0109+0x4c>
 2e8:	60a6                	ld	ra,72(sp)
 2ea:	6406                	ld	s0,64(sp)
 2ec:	22840553          	fmv.d	fa0,fs0
 2f0:	74e2                	ld	s1,56(sp)
 2f2:	7942                	ld	s2,48(sp)
 2f4:	79a2                	ld	s3,40(sp)
 2f6:	2462                	fld	fs0,24(sp)
 2f8:	6161                	addi	sp,sp,80
 2fa:	8082                	ret
