
kernel.o:	file format elf64-littleriscv

Disassembly of section .text:

0000000000000000 <.text>:
       0: 01 00        	nop

0000000000000002 <core>:
       2: 01 11        	addi	sp, sp, -32
       4: 22 ec        	sd	s0, 24(sp)
       6: 26 e8        	sd	s1, 16(sp)
       8: 4a e4        	sd	s2, 8(sp)
       a: 73 28 20 c0  	rdinstret	a6
       e: 37 04 00 00  	lui	s0, 0
      12: 23 30 04 01  	sd	a6, 0(s0)
      16: 93 98 05 02  	slli	a7, a1, 32
      1a: 13 18 15 00  	slli	a6, a0, 1
      1e: 63 50 a0 00  	blez	a0, 0x1e <core+0x1c>
      22: 81 42        	li	t0, 0
      24: 13 d3 08 02  	srli	t1, a7, 32
      28: b6 83        	mv	t2, a3
      2a: 01 a0        	j	0x2a <core+0x28>

000000000000002c <.LBB0_2>:
      2c: c2 1e        	slli	t4, t4, 48
      2e: 13 d4 0e 43  	srai	s0, t4, 48
      32: 3b 44 c4 02  	divw	s0, s0, a2
      36: 23 10 8e 00  	sh	s0, 0(t3)
      3a: 85 02        	addi	t0, t0, 1
      3c: 89 03        	addi	t2, t2, 2
      3e: 63 80 a2 00  	beq	t0, a0, 0x3e <.LBB0_2+0x12>

0000000000000042 <.LBB0_3>:
      42: 13 9e 12 00  	slli	t3, t0, 1
      46: 3e 9e        	add	t3, t3, a5
      48: 23 10 0e 00  	sh	zero, 0(t3)
      4c: 81 4e        	li	t4, 0
      4e: 63 50 b0 00  	blez	a1, 0x4e <.LBB0_3+0xc>
      52: 1a 8f        	mv	t5, t1
      54: 9e 8f        	mv	t6, t2

0000000000000056 <.LBB0_5>:
      56: 03 94 0f 00  	lh	s0, 0(t6)
      5a: a2 9e        	add	t4, t4, s0
      5c: 23 10 de 01  	sh	t4, 0(t3)
      60: 7d 1f        	addi	t5, t5, -1
      62: c2 9f        	add	t6, t6, a6
      64: 63 10 0f 00  	bnez	t5, 0x64 <.LBB0_5+0xe>
      68: 01 a0        	j	0x68 <.LBB0_5+0x12>

000000000000006a <.LBB0_6>:
      6a: 63 50 b0 00  	blez	a1, 0x6a <.LBB0_6>
      6e: 81 42        	li	t0, 0
      70: 13 14 05 02  	slli	s0, a0, 32
      74: 13 53 04 02  	srli	t1, s0, 32
      78: b6 83        	mv	t2, a3
      7a: 01 a0        	j	0x7a <.LBB0_6+0x10>

000000000000007c <.LBB0_8>:
      7c: 85 02        	addi	t0, t0, 1
      7e: c2 93        	add	t2, t2, a6
      80: 63 80 b2 00  	beq	t0, a1, 0x80 <.LBB0_8+0x4>

0000000000000084 <.LBB0_9>:
      84: 1a 8e        	mv	t3, t1
      86: be 8e        	mv	t4, a5
      88: 9e 8f        	mv	t6, t2
      8a: 63 50 a0 00  	blez	a0, 0x8a <.LBB0_9+0x6>

000000000000008e <.LBB0_10>:
      8e: 03 9f 0e 00  	lh	t5, 0(t4)
      92: 03 94 0f 00  	lh	s0, 0(t6)
      96: 3b 04 e4 41  	subw	s0, s0, t5
      9a: 23 90 8f 00  	sh	s0, 0(t6)
      9e: 89 0f        	addi	t6, t6, 2
      a0: 7d 1e        	addi	t3, t3, -1
      a2: 89 0e        	addi	t4, t4, 2
      a4: 63 10 0e 00  	bnez	t3, 0xa4 <.LBB0_10+0x16>
      a8: 01 a0        	j	0xa8 <.LBB0_10+0x1a>

00000000000000aa <.LBB0_11>:
      aa: 63 50 a0 00  	blez	a0, 0xaa <.LBB0_11>
      ae: 81 43        	li	t2, 0
      b0: 7d 36        	addiw	a2, a2, -1
      b2: 42 16        	slli	a2, a2, 48
      b4: 93 52 06 43  	srai	t0, a2, 48
      b8: 93 d8 08 02  	srli	a7, a7, 32
      bc: 01 a0        	j	0xbc <.LBB0_11+0x12>

00000000000000be <.LBB0_13>:
      be: 85 03        	addi	t2, t2, 1
      c0: 89 06        	addi	a3, a3, 2
      c2: 63 80 a3 00  	beq	t2, a0, 0xc2 <.LBB0_13+0x4>

00000000000000c6 <.LBB0_14>:
      c6: 33 83 a3 02  	mul	t1, t2, a0
      ca: 36 8e        	mv	t3, a3
      cc: 9e 8e        	mv	t4, t2
      ce: 01 a0        	j	0xce <.LBB0_14+0x8>

00000000000000d0 <.LBB0_15>:
      d0: c2 1f        	slli	t6, t6, 48
      d2: 13 d6 0f 43  	srai	a2, t6, 48
      d6: 3b 46 56 02  	divw	a2, a2, t0
      da: 23 10 cf 00  	sh	a2, 0(t5)
      de: b3 87 ae 02  	mul	a5, t4, a0
      e2: 9e 97        	add	a5, a5, t2
      e4: 86 07        	slli	a5, a5, 1
      e6: ba 97        	add	a5, a5, a4
      e8: 23 90 c7 00  	sh	a2, 0(a5)
      ec: 85 0e        	addi	t4, t4, 1
      ee: 09 0e        	addi	t3, t3, 2
      f0: 63 80 ae 00  	beq	t4, a0, 0xf0 <.LBB0_15+0x20>

00000000000000f4 <.LBB0_16>:
      f4: 33 86 6e 00  	add	a2, t4, t1
      f8: 06 06        	slli	a2, a2, 1
      fa: 33 0f c7 00  	add	t5, a4, a2
      fe: 23 10 0f 00  	sh	zero, 0(t5)
     102: 81 4f        	li	t6, 0
     104: 63 50 b0 00  	blez	a1, 0x104 <.LBB0_16+0x10>
     108: 46 86        	mv	a2, a7
     10a: b6 87        	mv	a5, a3
     10c: 72 84        	mv	s0, t3

000000000000010e <.LBB0_18>:
     10e: 03 99 07 00  	lh	s2, 0(a5)
     112: 83 14 04 00  	lh	s1, 0(s0)
     116: b3 84 24 03  	mul	s1, s1, s2
     11a: a6 9f        	add	t6, t6, s1
     11c: 23 10 ff 01  	sh	t6, 0(t5)
     120: 42 94        	add	s0, s0, a6
     122: 7d 16        	addi	a2, a2, -1
     124: c2 97        	add	a5, a5, a6
     126: 01 e2        	bnez	a2, 0x126 <.LBB0_18+0x18>
     128: 01 a0        	j	0x128 <.LBB0_18+0x1a>

000000000000012a <.LBB0_19>:
     12a: 73 26 20 c0  	rdinstret	a2
     12e: 37 05 00 00  	lui	a0, 0
     132: 83 35 05 00  	ld	a1, 0(a0)
     136: b7 06 00 00  	lui	a3, 0
     13a: 37 05 00 00  	lui	a0, 0
     13e: 13 05 05 00  	mv	a0, a0
     142: 23 b0 c6 00  	sd	a2, 0(a3)
     146: 62 64        	ld	s0, 24(sp)
     148: c2 64        	ld	s1, 16(sp)
     14a: 22 69        	ld	s2, 8(sp)
     14c: 05 61        	addi	sp, sp, 32
     14e: 17 03 00 00  	auipc	t1, 0
     152: 67 00 03 00  	jr	t1
