
kernel.o:     file format elf64-littleriscv


Disassembly of section .text:

0000000000000000 <uve_kernel>:
   0:	4805                	li	a6,1
   2:	c02028f3          	rdinstret	a7
   6:	7cd5708b          	ss.sta.ld.d	u1,a0,a3,a5
   a:	00e0008b          	ss.app	u1,zero,a4,zero
   e:	82f0008b          	ss.end	u1,zero,a5,a6
  12:	0000108b          	ss.cfg.vec	u1
  16:	04d5f10b          	ss.sta.ld.d	u2,a1,a3,zero
  1a:	80e0010b          	ss.app	u2,zero,a4,a6
  1e:	72f0010b          	ss.end	u2,zero,a5,a4
  22:	0000110b          	ss.cfg.vec	u2
  26:	74d6320b          	ss.sta.st.d	u4,a2,a3,a4
  2a:	82e0020b          	ss.end	u4,zero,a4,a6

000000000000002e <.iLoop113>:
  2e:	ac003aab          	so.v.dp.d	u21,zero,p0

0000000000000032 <.kloop113>:
  32:	10209b2b          	so.a.mul.fp	u22,u1,u2,p0
  36:	016a9aab          	so.a.add.fp	u21,u21,u22,p0
  3a:	ffe10cab          	so.b.ndc.1	u2,32 <.kloop113>
  3e:	200a922b          	so.a.adde.fp	u4,u21,p0
  42:	fff166ab          	so.b.nc	u2,2e <.iLoop113>
  46:	c0202373          	rdinstret	t1
  4a:	41130533          	sub	a0,t1,a7
  4e:	8082                	ret

0000000000000050 <core>:
  50:	6302                	ld	t1,0(sp)
  52:	6f42                	ld	t5,16(sp)
  54:	4e05                	li	t3,1
  56:	6fa2                	ld	t6,8(sp)
  58:	c0202ef3          	rdinstret	t4
  5c:	fd15708b          	ss.sta.ld.d	u1,a0,a7,t6
  60:	0060008b          	ss.app	u1,zero,t1,zero
  64:	e3f0008b          	ss.end	u1,zero,t6,t3
  68:	0000108b          	ss.cfg.vec	u1
  6c:	0515f10b          	ss.sta.ld.d	u2,a1,a7,zero
  70:	e060010b          	ss.app	u2,zero,t1,t3
  74:	33f0010b          	ss.end	u2,zero,t6,t1
  78:	0000110b          	ss.cfg.vec	u2
  7c:	3517320b          	ss.sta.st.d	u4,a4,a7,t1
  80:	e260020b          	ss.end	u4,zero,t1,t3

0000000000000084 <.iLoop132>:
  84:	ac003aab          	so.v.dp.d	u21,zero,p0

0000000000000088 <.kloop132>:
  88:	10209b2b          	so.a.mul.fp	u22,u1,u2,p0
  8c:	016a9aab          	so.a.add.fp	u21,u21,u22,p0
  90:	ffe10cab          	so.b.ndc.1	u2,88 <.kloop132>
  94:	200a922b          	so.a.adde.fp	u4,u21,p0
  98:	fff166ab          	so.b.nc	u2,84 <.iLoop132>
  9c:	c02022f3          	rdinstret	t0
  a0:	8596                	mv	a1,t0
  a2:	8576                	mv	a0,t4
  a4:	6fe2                	ld	t6,24(sp)
  a6:	c02022f3          	rdinstret	t0
  aa:	fc66708b          	ss.sta.ld.d	u1,a2,t1,t6
  ae:	01e0008b          	ss.app	u1,zero,t5,zero
  b2:	e3f0008b          	ss.end	u1,zero,t6,t3
  b6:	0000108b          	ss.cfg.vec	u1
  ba:	0466f10b          	ss.sta.ld.d	u2,a3,t1,zero
  be:	e1e0010b          	ss.app	u2,zero,t5,t3
  c2:	f3f0010b          	ss.end	u2,zero,t6,t5
  c6:	0000110b          	ss.cfg.vec	u2
  ca:	f467b20b          	ss.sta.st.d	u4,a5,t1,t5
  ce:	e3e0020b          	ss.end	u4,zero,t5,t3

00000000000000d2 <.iLoop136>:
  d2:	ac003aab          	so.v.dp.d	u21,zero,p0

00000000000000d6 <.kloop136>:
  d6:	10209b2b          	so.a.mul.fp	u22,u1,u2,p0
  da:	016a9aab          	so.a.add.fp	u21,u21,u22,p0
  de:	ffe10cab          	so.b.ndc.1	u2,d6 <.kloop136>
  e2:	200a922b          	so.a.adde.fp	u4,u21,p0
  e6:	fff166ab          	so.b.nc	u2,d2 <.iLoop136>
  ea:	c0202ef3          	rdinstret	t4
  ee:	405e8eb3          	sub	t4,t4,t0
  f2:	8d89                	sub	a1,a1,a0
  f4:	9eae                	add	t4,t4,a1
  f6:	c02026f3          	rdinstret	a3
  fa:	3517708b          	ss.sta.ld.d	u1,a4,a7,t1
  fe:	01e0008b          	ss.app	u1,zero,t5,zero
 102:	e260008b          	ss.end	u1,zero,t1,t3
 106:	0000108b          	ss.cfg.vec	u1
 10a:	0517f10b          	ss.sta.ld.d	u2,a5,a7,zero
 10e:	e1e0010b          	ss.app	u2,zero,t5,t3
 112:	f260010b          	ss.end	u2,zero,t1,t5
 116:	0000110b          	ss.cfg.vec	u2
 11a:	f518320b          	ss.sta.st.d	u4,a6,a7,t5
 11e:	e3e0020b          	ss.end	u4,zero,t5,t3

0000000000000122 <.iLoop140>:
 122:	ac003aab          	so.v.dp.d	u21,zero,p0

0000000000000126 <.kloop140>:
 126:	10209b2b          	so.a.mul.fp	u22,u1,u2,p0
 12a:	016a9aab          	so.a.add.fp	u21,u21,u22,p0
 12e:	ffe10cab          	so.b.ndc.1	u2,126 <.kloop140>
 132:	200a922b          	so.a.adde.fp	u4,u21,p0
 136:	fff166ab          	so.b.nc	u2,122 <.iLoop140>
 13a:	c0202673          	rdinstret	a2
 13e:	00000537          	lui	a0,0x0
 142:	8e15                	sub	a2,a2,a3
 144:	9676                	add	a2,a2,t4
 146:	4581                	li	a1,0
 148:	00050513          	mv	a0,a0
 14c:	00000317          	auipc	t1,0x0
 150:	00030067          	jr	t1 # 14c <.kloop140+0x26>
