
kernel.o:	file format elf64-littleriscv

Disassembly of section .text:

0000000000000000 <.text>:
       0: 01 00        	nop

0000000000000002 <core>:
       2: 5d 71        	addi	sp, sp, -80
       4: a2 e4        	sd	s0, 72(sp)
       6: a6 e0        	sd	s1, 64(sp)
       8: 4a fc        	sd	s2, 56(sp)
       a: 4e f8        	sd	s3, 48(sp)
       c: 52 f4        	sd	s4, 40(sp)
       e: 56 f0        	sd	s5, 32(sp)
      10: 5a ec        	sd	s6, 24(sp)
      12: 5e e8        	sd	s7, 16(sp)
      14: 62 e4        	sd	s8, 8(sp)
      16: f3 24 20 c0  	rdinstret	s1
      1a: 37 08 00 00  	lui	a6, 0
      1e: 23 30 98 00  	sd	s1, 0(a6)
      22: 63 80 07 00  	beqz	a5, 0x22 <core+0x20>
      26: f3 28 20 c2  	csrr	a7, vlenb
      2a: 13 d3 28 00  	srli	t1, a7, 2
      2e: a1 44        	li	s1, 8
      30: 93 92 27 00  	slli	t0, a5, 2
      34: 9a 83        	mv	t2, t1
      36: 63 e0 64 00  	bltu	s1, t1, 0x36 <core+0x34>
      3a: a1 43        	li	t2, 8

000000000000003c <.LBB0_3>:
      3c: 01 4e        	li	t3, 0
      3e: 81 49        	li	s3, 0
      40: b3 8e 56 00  	add	t4, a3, t0
      44: 93 04 f3 ff  	addi	s1, t1, -1
      48: 33 ff 97 00  	and	t5, a5, s1
      4c: b3 8f e7 41  	sub	t6, a5, t5
      50: 57 74 00 0d  	vsetvli	s0, zero, e32, m1, ta, ma
      54: 57 34 00 5e  	vmv.v.i	v8, 0
      58: 2a 89        	mv	s2, a0
      5a: 01 a0        	j	0x5a <.LBB0_3+0x1e>

000000000000005c <.LBB0_4>:
      5c: 85 09        	addi	s3, s3, 1
      5e: 16 99        	add	s2, s2, t0
      60: 3e 9e        	add	t3, t3, a5
      62: 63 80 f9 00  	beq	s3, a5, 0x62 <.LBB0_4+0x6>

0000000000000066 <.LBB0_5>:
      66: 13 9a 29 00  	slli	s4, s3, 2
      6a: 2e 9a        	add	s4, s4, a1
      6c: 83 2a 0a 00  	lw	s5, 0(s4)
      70: 63 e0 77 00  	bltu	a5, t2, 0x70 <.LBB0_5+0xa>
      74: 33 84 32 03  	mul	s0, t0, s3
      78: b3 84 82 00  	add	s1, t0, s0
      7c: aa 94        	add	s1, s1, a0
      7e: 33 0b 85 00  	add	s6, a0, s0
      82: 13 04 4a 00  	addi	s0, s4, 4
      86: b3 3b 9a 00  	sltu	s7, s4, s1
      8a: b3 34 8b 00  	sltu	s1, s6, s0
      8e: 33 fb 9b 00  	and	s6, s7, s1
      92: b3 34 da 01  	sltu	s1, s4, t4
      96: 33 b4 86 00  	sltu	s0, a3, s0
      9a: 65 8c        	and	s0, s0, s1
      9c: 33 64 8b 00  	or	s0, s6, s0
      a0: 01 c0        	beqz	s0, 0xa0 <.LBB0_5+0x3a>

00000000000000a2 <.LBB0_7>:
      a2: 81 44        	li	s1, 0

00000000000000a4 <.LBB0_8>:
      a4: 13 9b 24 00  	slli	s6, s1, 2
      a8: 36 9b        	add	s6, s6, a3
      aa: 33 84 c4 01  	add	s0, s1, t3
      ae: 0a 04        	slli	s0, s0, 2
      b0: 33 0c 85 00  	add	s8, a0, s0
      b4: b3 84 97 40  	sub	s1, a5, s1

00000000000000b8 <.LBB0_9>:
      b8: 83 2b 0c 00  	lw	s7, 0(s8)
      bc: 03 24 0b 00  	lw	s0, 0(s6)
      c0: 3b 04 74 03  	mulw	s0, s0, s7
      c4: a2 9a        	add	s5, s5, s0
      c6: 23 20 5a 01  	sw	s5, 0(s4)
      ca: 11 0b        	addi	s6, s6, 4
      cc: fd 14        	addi	s1, s1, -1
      ce: 11 0c        	addi	s8, s8, 4
      d0: 81 e0        	bnez	s1, 0xd0 <.LBB0_9+0x18>
      d2: 01 a0        	j	0xd2 <.LBB0_9+0x1a>

00000000000000d4 <.LBB0_10>:
      d4: 57 74 00 09  	vsetvli	s0, zero, e32, m1, tu, ma
      d8: d7 34 80 9e  	vmv1r.v	v9, v8
      dc: d7 e4 0a 42  	vmv.s.x	v9, s5
      e0: fe 8a        	mv	s5, t6
      e2: b6 84        	mv	s1, a3
      e4: 4a 84        	mv	s0, s2

00000000000000e6 <.LBB0_11>:
      e6: 07 65 84 02  	vl1re32.v	v10, (s0)
      ea: 87 e5 84 02  	vl1re32.v	v11, (s1)
      ee: 57 70 00 0d  	vsetvli	zero, zero, e32, m1, ta, ma
      f2: d7 a4 a5 b6  	vmacc.vv	v9, v11, v10
      f6: 46 94        	add	s0, s0, a7
      f8: b3 8a 6a 40  	sub	s5, s5, t1
      fc: c6 94        	add	s1, s1, a7
      fe: 63 90 0a 00  	bnez	s5, 0xfe <.LBB0_11+0x18>
     102: 57 65 00 42  	vmv.s.x	v10, zero
     106: d7 24 95 02  	vredsum.vs	v9, v9, v10
     10a: 57 f0 00 cd  	vsetivli	zero, 1, e32, m1, ta, ma
     10e: a7 64 0a 02  	vse32.v	v9, (s4)
     112: 63 00 0f 00  	beqz	t5, 0x112 <.LBB0_11+0x2c>
     116: d7 2a 90 42  	vmv.x.s	s5, v9
     11a: fe 84        	mv	s1, t6
     11c: 01 a0        	j	0x11c <.LBB0_11+0x36>

000000000000011e <.LBB0_14>:
     11e: 63 80 07 00  	beqz	a5, 0x11e <.LBB0_14>
     122: fd 55        	li	a1, -1
     124: 89 81        	srli	a1, a1, 2
     126: 13 df 28 00  	srli	t5, a7, 2
     12a: a1 46        	li	a3, 8
     12c: be 95        	add	a1, a1, a5
     12e: 7a 83        	mv	t1, t5
     130: 63 e0 e6 01  	bltu	a3, t5, 0x130 <.LBB0_14+0x12>
     134: 21 43        	li	t1, 8

0000000000000136 <.LBB0_17>:
     136: 01 4a        	li	s4, 0
     138: b3 83 f5 02  	mul	t2, a1, a5
     13c: 33 0e 57 00  	add	t3, a4, t0
     140: 93 95 37 00  	slli	a1, a5, 3
     144: 93 d6 38 00  	srli	a3, a7, 3
     148: 93 04 ff ff  	addi	s1, t5, -1
     14c: b3 fe 97 00  	and	t4, a5, s1
     150: b3 89 d5 02  	mul	s3, a1, a3
     154: aa 8f        	mv	t6, a0
     156: 01 a0        	j	0x156 <.LBB0_17+0x20>

0000000000000158 <.LBB0_18>:
     158: 05 0a        	addi	s4, s4, 1
     15a: 91 0f        	addi	t6, t6, 4
     15c: 63 00 fa 00  	beq	s4, a5, 0x15c <.LBB0_18+0x4>

0000000000000160 <.LBB0_19>:
     160: 93 15 2a 00  	slli	a1, s4, 2
     164: b3 0a b6 00  	add	s5, a2, a1
     168: 03 ab 0a 00  	lw	s6, 0(s5)
     16c: 63 e0 67 00  	bltu	a5, t1, 0x16c <.LBB0_19+0xc>
     170: aa 95        	add	a1, a1, a0
     172: b3 86 43 01  	add	a3, t2, s4
     176: 8a 06        	slli	a3, a3, 2
     178: 33 04 d5 00  	add	s0, a0, a3
     17c: ae 86        	mv	a3, a1
     17e: 63 60 b4 00  	bltu	s0, a1, 0x17e <.LBB0_19+0x1e>
     182: a2 86        	mv	a3, s0

0000000000000184 <.LBB0_22>:
     184: 63 e0 85 00  	bltu	a1, s0, 0x184 <.LBB0_22>
     188: a2 85        	mv	a1, s0

000000000000018a <.LBB0_24>:
     18a: 91 06        	addi	a3, a3, 4
     18c: 13 84 4a 00  	addi	s0, s5, 4
     190: b3 b6 da 00  	sltu	a3, s5, a3
     194: b3 b5 85 00  	sltu	a1, a1, s0
     198: f5 8d        	and	a1, a1, a3
     19a: b3 b6 ca 01  	sltu	a3, s5, t3
     19e: 33 34 87 00  	sltu	s0, a4, s0
     1a2: e1 8e        	and	a3, a3, s0
     1a4: d5 8d        	or	a1, a1, a3
     1a6: 81 c1        	beqz	a1, 0x1a6 <.LBB0_24+0x1c>

00000000000001a8 <.LBB0_25>:
     1a8: 01 49        	li	s2, 0

00000000000001aa <.LBB0_26>:
     1aa: 93 15 29 00  	slli	a1, s2, 2
     1ae: ba 95        	add	a1, a1, a4
     1b0: b3 86 27 03  	mul	a3, a5, s2
     1b4: d2 96        	add	a3, a3, s4
     1b6: 8a 06        	slli	a3, a3, 2
     1b8: aa 96        	add	a3, a3, a0
     1ba: 33 84 27 41  	sub	s0, a5, s2

00000000000001be <.LBB0_27>:
     1be: 03 a9 06 00  	lw	s2, 0(a3)
     1c2: 84 41        	lw	s1, 0(a1)
     1c4: bb 84 24 03  	mulw	s1, s1, s2
     1c8: 26 9b        	add	s6, s6, s1
     1ca: 23 a0 6a 01  	sw	s6, 0(s5)
     1ce: 91 05        	addi	a1, a1, 4
     1d0: 7d 14        	addi	s0, s0, -1
     1d2: 96 96        	add	a3, a3, t0
     1d4: 01 e0        	bnez	s0, 0x1d4 <.LBB0_27+0x16>
     1d6: 01 a0        	j	0x1d6 <.LBB0_27+0x18>

00000000000001d8 <.LBB0_28>:
     1d8: 33 89 d7 41  	sub	s2, a5, t4
     1dc: d7 75 00 09  	vsetvli	a1, zero, e32, m1, tu, ma
     1e0: d7 34 80 9e  	vmv1r.v	v9, v8
     1e4: d7 64 0b 42  	vmv.s.x	v9, s6
     1e8: fe 85        	mv	a1, t6
     1ea: ca 86        	mv	a3, s2
     1ec: 3a 84        	mv	s0, a4

00000000000001ee <.LBB0_29>:
     1ee: d7 74 00 0d  	vsetvli	s1, zero, e32, m1, ta, ma
     1f2: 07 e5 55 0a  	vlse32.v	v10, (a1), t0
     1f6: 87 65 84 02  	vl1re32.v	v11, (s0)
     1fa: d7 a4 a5 b6  	vmacc.vv	v9, v11, v10
     1fe: 46 94        	add	s0, s0, a7
     200: b3 86 e6 41  	sub	a3, a3, t5
     204: ce 95        	add	a1, a1, s3
     206: 81 e2        	bnez	a3, 0x206 <.LBB0_29+0x18>
     208: 57 65 00 42  	vmv.s.x	v10, zero
     20c: d7 24 95 02  	vredsum.vs	v9, v9, v10
     210: 57 f0 00 cd  	vsetivli	zero, 1, e32, m1, ta, ma
     214: a7 e4 0a 02  	vse32.v	v9, (s5)
     218: 63 80 0e 00  	beqz	t4, 0x218 <.LBB0_29+0x2a>
     21c: 57 2b 90 42  	vmv.x.s	s6, v9
     220: 01 a0        	j	0x220 <.LBB0_29+0x32>

0000000000000222 <.LBB0_32>:
     222: 73 26 20 c0  	rdinstret	a2
     226: 83 35 08 00  	ld	a1, 0(a6)
     22a: b7 06 00 00  	lui	a3, 0
     22e: 37 05 00 00  	lui	a0, 0
     232: 13 05 05 00  	mv	a0, a0
     236: 23 b0 c6 00  	sd	a2, 0(a3)
     23a: 26 64        	ld	s0, 72(sp)
     23c: 86 64        	ld	s1, 64(sp)
     23e: 62 79        	ld	s2, 56(sp)
     240: c2 79        	ld	s3, 48(sp)
     242: 22 7a        	ld	s4, 40(sp)
     244: 82 7a        	ld	s5, 32(sp)
     246: 62 6b        	ld	s6, 24(sp)
     248: c2 6b        	ld	s7, 16(sp)
     24a: 22 6c        	ld	s8, 8(sp)
     24c: 61 61        	addi	sp, sp, 80
     24e: 17 03 00 00  	auipc	t1, 0
     252: 67 00 03 00  	jr	t1
