
kernel.o:     file format elf64-littleriscv


Disassembly of section .text:

0000000000000000 <core>:
   0:	c0202873          	rdinstret	a6
   4:	000002b7          	lui	t0,0x0
   8:	0102b023          	sd	a6,0(t0) # 0 <core>
   c:	c3bd                	beqz	a5,72 <.L3>
   e:	00279e93          	slli	t4,a5,0x2
  12:	01d583b3          	add	t2,a1,t4
  16:	01d68f33          	add	t5,a3,t4
  1a:	8faa                	mv	t6,a0

000000000000001c <.L5>:
  1c:	419c                	lw	a5,0(a1)
  1e:	8836                	mv	a6,a3
  20:	837e                	mv	t1,t6

0000000000000022 <.L4>:
  22:	00032883          	lw	a7,0(t1)
  26:	00082e03          	lw	t3,0(a6)
  2a:	0811                	addi	a6,a6,4
  2c:	0311                	addi	t1,t1,4
  2e:	03c888bb          	mulw	a7,a7,t3
  32:	00f887bb          	addw	a5,a7,a5
  36:	c19c                	sw	a5,0(a1)
  38:	ff0f15e3          	bne	t5,a6,22 <.L4>
  3c:	0591                	addi	a1,a1,4
  3e:	9ff6                	add	t6,t6,t4
  40:	fcb39ee3          	bne	t2,a1,1c <.L5>
  44:	01d60e33          	add	t3,a2,t4
  48:	01d70333          	add	t1,a4,t4

000000000000004c <.L6>:
  4c:	421c                	lw	a5,0(a2)
  4e:	86ba                	mv	a3,a4
  50:	882a                	mv	a6,a0

0000000000000052 <.L7>:
  52:	00082583          	lw	a1,0(a6)
  56:	0006a883          	lw	a7,0(a3)
  5a:	0691                	addi	a3,a3,4
  5c:	9876                	add	a6,a6,t4
  5e:	031585bb          	mulw	a1,a1,a7
  62:	9fad                	addw	a5,a5,a1
  64:	c21c                	sw	a5,0(a2)
  66:	fed316e3          	bne	t1,a3,52 <.L7>
  6a:	0611                	addi	a2,a2,4
  6c:	0511                	addi	a0,a0,4
  6e:	fcce1fe3          	bne	t3,a2,4c <.L6>

0000000000000072 <.L3>:
  72:	c02027f3          	rdinstret	a5
  76:	0002b583          	ld	a1,0(t0)
  7a:	00000537          	lui	a0,0x0
  7e:	00000737          	lui	a4,0x0
  82:	863e                	mv	a2,a5
  84:	00050513          	mv	a0,a0
  88:	00f73023          	sd	a5,0(a4) # 0 <core>
  8c:	00000317          	auipc	t1,0x0
  90:	00030067          	jr	t1 # 8c <.L3+0x1a>
