
kernel.o:	file format elf64-littleriscv

Disassembly of section .text:

0000000000000000 <.text>:
       0: 01 00        	nop

0000000000000002 <core>:
       2: 75 71        	addi	sp, sp, -144
       4: 06 e5        	sd	ra, 136(sp)
       6: 22 e1        	sd	s0, 128(sp)
       8: a6 fc        	sd	s1, 120(sp)
       a: ca f8        	sd	s2, 112(sp)
       c: ce f4        	sd	s3, 104(sp)
       e: d2 f0        	sd	s4, 96(sp)
      10: d6 ec        	sd	s5, 88(sp)
      12: da e8        	sd	s6, 80(sp)
      14: de e4        	sd	s7, 72(sp)
      16: e2 e0        	sd	s8, 64(sp)
      18: 66 fc        	sd	s9, 56(sp)
      1a: 6a f8        	sd	s10, 48(sp)
      1c: 6e f4        	sd	s11, 40(sp)
      1e: 3a 89        	mv	s2, a4
      20: 7d 57        	li	a4, -1
      22: 93 5a 27 00  	srli	s5, a4, 2
      26: 73 27 20 c0  	rdinstret	a4
      2a: b7 04 00 00  	lui	s1, 0
      2e: 23 b0 e4 00  	sd	a4, 0(s1)
      32: 93 93 05 02  	slli	t2, a1, 32
      36: 13 17 35 00  	slli	a4, a0, 3
      3a: 3a ec        	sd	a4, 24(sp)
      3c: 93 18 25 00  	slli	a7, a0, 2
      40: f3 22 20 c2  	csrr	t0, vlenb
      44: 63 50 a0 00  	blez	a0, 0x44 <core+0x42>
      48: 81 49        	li	s3, 0
      4a: 13 df 03 02  	srli	t5, t2, 32
      4e: 33 07 5f 01  	add	a4, t5, s5
      52: 33 0e a7 02  	mul	t3, a4, a0
      56: 93 de 22 00  	srli	t4, t0, 2
      5a: 57 77 00 0d  	vsetvli	a4, zero, e32, m1, ta, ma
      5e: 57 34 00 5e  	vmv.v.i	v8, 0
      62: b6 8f        	mv	t6, a3
      64: 01 a0        	j	0x64 <core+0x62>

0000000000000066 <.LBB0_2>:
      66: 01 4b        	li	s6, 0

0000000000000068 <.LBB0_3>:
      68: 3b 47 cb 02  	divw	a4, s6, a2
      6c: 23 20 e8 00  	sw	a4, 0(a6)
      70: 85 09        	addi	s3, s3, 1
      72: 91 0f        	addi	t6, t6, 4
      74: 63 80 a9 00  	beq	s3, a0, 0x74 <.LBB0_3+0xc>

0000000000000078 <.LBB0_4>:
      78: 13 98 29 00  	slli	a6, s3, 2
      7c: b3 84 06 01  	add	s1, a3, a6
      80: 33 07 3e 01  	add	a4, t3, s3
      84: 0a 07        	slli	a4, a4, 2
      86: 36 97        	add	a4, a4, a3
      88: 26 84        	mv	s0, s1
      8a: 63 e0 e4 00  	bltu	s1, a4, 0x8a <.LBB0_4+0x12>
      8e: 3a 84        	mv	s0, a4

0000000000000090 <.LBB0_6>:
      90: 63 60 97 00  	bltu	a4, s1, 0x90 <.LBB0_6>
      94: ba 84        	mv	s1, a4

0000000000000096 <.LBB0_8>:
      96: 3e 98        	add	a6, a6, a5
      98: 23 20 08 00  	sw	zero, 0(a6)
      9c: 63 50 b0 00  	blez	a1, 0x9c <.LBB0_8+0x6>
      a0: 11 43        	li	t1, 4
      a2: 76 87        	mv	a4, t4
      a4: 63 60 d3 01  	bltu	t1, t4, 0xa4 <.LBB0_8+0xe>
      a8: 11 47        	li	a4, 4

00000000000000aa <.LBB0_11>:
      aa: 63 60 ef 00  	bltu	t5, a4, 0xaa <.LBB0_11>
      ae: 13 07 48 00  	addi	a4, a6, 4
      b2: 91 04        	addi	s1, s1, 4
      b4: b3 34 98 00  	sltu	s1, a6, s1
      b8: 33 37 e4 00  	sltu	a4, s0, a4
      bc: 65 8f        	and	a4, a4, s1
      be: 01 c3        	beqz	a4, 0xbe <.LBB0_11+0x14>

00000000000000c0 <.LBB0_13>:
      c0: 01 43        	li	t1, 0
      c2: 01 4b        	li	s6, 0

00000000000000c4 <.LBB0_14>:
      c4: 33 07 65 02  	mul	a4, a0, t1
      c8: 4e 97        	add	a4, a4, s3
      ca: 0a 07        	slli	a4, a4, 2
      cc: 36 97        	add	a4, a4, a3
      ce: 33 04 6f 40  	sub	s0, t5, t1

00000000000000d2 <.LBB0_15>:
      d2: 04 43        	lw	s1, 0(a4)
      d4: 26 9b        	add	s6, s6, s1
      d6: 23 20 68 01  	sw	s6, 0(a6)
      da: 7d 14        	addi	s0, s0, -1
      dc: 46 97        	add	a4, a4, a7
      de: 01 e0        	bnez	s0, 0xde <.LBB0_15+0xc>
      e0: 01 a0        	j	0xe0 <.LBB0_15+0xe>

00000000000000e2 <.LBB0_16>:
      e2: 13 d7 32 00  	srli	a4, t0, 3
      e6: 13 db 22 00  	srli	s6, t0, 2
      ea: 13 04 fb ff  	addi	s0, s6, -1
      ee: 33 7a 8f 00  	and	s4, t5, s0
      f2: 33 03 4f 41  	sub	t1, t5, s4
      f6: 93 1b 25 00  	slli	s7, a0, 2
      fa: 62 64        	ld	s0, 24(sp)
      fc: b3 04 e4 02  	mul	s1, s0, a4
     100: 57 77 00 0d  	vsetvli	a4, zero, e32, m1, ta, ma
     104: 7e 84        	mv	s0, t6
     106: 1a 87        	mv	a4, t1
     108: d7 34 80 9e  	vmv1r.v	v9, v8

000000000000010c <.LBB0_17>:
     10c: 07 65 74 0b  	vlse32.v	v10, (s0), s7
     110: d7 04 95 02  	vadd.vv	v9, v9, v10
     114: 33 07 67 41  	sub	a4, a4, s6
     118: 26 94        	add	s0, s0, s1
     11a: 01 e3        	bnez	a4, 0x11a <.LBB0_17+0xe>
     11c: 57 65 00 42  	vmv.s.x	v10, zero
     120: d7 24 95 02  	vredsum.vs	v9, v9, v10
     124: 57 2b 90 42  	vmv.x.s	s6, v9
     128: 57 f0 00 cd  	vsetivli	zero, 1, e32, m1, ta, ma
     12c: a7 64 08 02  	vse32.v	v9, (a6)
     130: 63 10 0a 00  	bnez	s4, 0x130 <.LBB0_17+0x24>
     134: 01 a0        	j	0x134 <.LBB0_17+0x28>

0000000000000136 <.LBB0_19>:
     136: 63 50 b0 00  	blez	a1, 0x136 <.LBB0_19>
     13a: 81 4f        	li	t6, 0
     13c: 01 4b        	li	s6, 0
     13e: 13 17 05 02  	slli	a4, a0, 32
     142: 13 5e 07 02  	srli	t3, a4, 32
     146: 93 5e e7 01  	srli	t4, a4, 30
     14a: 33 8f d7 01  	add	t5, a5, t4
     14e: 13 d8 22 00  	srli	a6, t0, 2
     152: 13 07 f8 ff  	addi	a4, a6, -1
     156: 33 73 ee 00  	and	t1, t3, a4
     15a: b3 09 6e 40  	sub	s3, t3, t1
     15e: 36 8a        	mv	s4, a3
     160: 01 a0        	j	0x160 <.LBB0_19+0x2a>

0000000000000162 <.LBB0_21>:
     162: 05 0b        	addi	s6, s6, 1
     164: 46 9a        	add	s4, s4, a7
     166: aa 9f        	add	t6, t6, a0
     168: 63 00 bb 00  	beq	s6, a1, 0x168 <.LBB0_21+0x6>

000000000000016c <.LBB0_22>:
     16c: 63 50 a0 00  	blez	a0, 0x16c <.LBB0_22>
     170: 11 44        	li	s0, 4
     172: 42 87        	mv	a4, a6
     174: 63 60 04 01  	bltu	s0, a6, 0x174 <.LBB0_22+0x8>
     178: 11 47        	li	a4, 4

000000000000017a <.LBB0_25>:
     17a: 63 60 ee 00  	bltu	t3, a4, 0x17a <.LBB0_25>
     17e: 33 87 68 03  	mul	a4, a7, s6
     182: 33 84 e6 00  	add	s0, a3, a4
     186: 76 97        	add	a4, a4, t4
     188: 36 97        	add	a4, a4, a3
     18a: 33 34 e4 01  	sltu	s0, s0, t5
     18e: 33 b7 e7 00  	sltu	a4, a5, a4
     192: 61 8f        	and	a4, a4, s0
     194: 01 c3        	beqz	a4, 0x194 <.LBB0_25+0x1a>

0000000000000196 <.LBB0_27>:
     196: 01 44        	li	s0, 0

0000000000000198 <.LBB0_28>:
     198: 33 07 f4 01  	add	a4, s0, t6
     19c: 0a 07        	slli	a4, a4, 2
     19e: 36 97        	add	a4, a4, a3
     1a0: 93 14 24 00  	slli	s1, s0, 2
     1a4: 33 8c 97 00  	add	s8, a5, s1
     1a8: 33 04 8e 40  	sub	s0, t3, s0

00000000000001ac <.LBB0_29>:
     1ac: 83 2b 0c 00  	lw	s7, 0(s8)
     1b0: 04 43        	lw	s1, 0(a4)
     1b2: bb 84 74 41  	subw	s1, s1, s7
     1b6: 04 c3        	sw	s1, 0(a4)
     1b8: 11 07        	addi	a4, a4, 4
     1ba: 7d 14        	addi	s0, s0, -1
     1bc: 11 0c        	addi	s8, s8, 4
     1be: 01 e0        	bnez	s0, 0x1be <.LBB0_29+0x12>
     1c0: 01 a0        	j	0x1c0 <.LBB0_29+0x14>

00000000000001c2 <.LBB0_30>:
     1c2: 57 77 00 0d  	vsetvli	a4, zero, e32, m1, ta, ma
     1c6: 4e 87        	mv	a4, s3
     1c8: 52 84        	mv	s0, s4
     1ca: be 84        	mv	s1, a5

00000000000001cc <.LBB0_31>:
     1cc: 07 e4 84 02  	vl1re32.v	v8, (s1)
     1d0: 87 64 84 02  	vl1re32.v	v9, (s0)
     1d4: 57 04 94 0a  	vsub.vv	v8, v9, v8
     1d8: 27 04 84 02  	vs1r.v	v8, (s0)
     1dc: 96 94        	add	s1, s1, t0
     1de: 33 07 07 41  	sub	a4, a4, a6
     1e2: 16 94        	add	s0, s0, t0
     1e4: 01 e3        	bnez	a4, 0x1e4 <.LBB0_31+0x18>
     1e6: 4e 84        	mv	s0, s3
     1e8: 63 10 03 00  	bnez	t1, 0x1e8 <.LBB0_31+0x1c>
     1ec: 01 a0        	j	0x1ec <.LBB0_31+0x20>

00000000000001ee <.LBB0_33>:
     1ee: 63 50 a0 00  	blez	a0, 0x1ee <.LBB0_33>
     1f2: 01 4f        	li	t5, 0
     1f4: 57 77 00 0d  	vsetvli	a4, zero, e32, m1, ta, ma
     1f8: 57 34 00 5e  	vmv.v.i	v8, 0
     1fc: 1b 0e f6 ff  	addiw	t3, a2, -1
     200: 13 dc 03 02  	srli	s8, t2, 32
     204: 13 86 48 00  	addi	a2, a7, 4
     208: 32 e4        	sd	a2, 8(sp)
     20a: e2 9a        	add	s5, s5, s8
     20c: 33 86 aa 02  	mul	a2, s5, a0
     210: 32 e0        	sd	a2, 0(sp)
     212: 36 f0        	sd	a3, 32(sp)
     214: 72 e8        	sd	t3, 16(sp)
     216: 01 a0        	j	0x216 <.LBB0_33+0x28>

0000000000000218 <.LBB0_35>:
     218: 05 0f        	addi	t5, t5, 1
     21a: 02 76        	ld	a2, 32(sp)
     21c: 11 06        	addi	a2, a2, 4
     21e: 32 f0        	sd	a2, 32(sp)
     220: 63 00 af 00  	beq	t5, a0, 0x220 <.LBB0_35+0x8>

0000000000000224 <.LBB0_36>:
     224: 93 13 2f 00  	slli	t2, t5, 2
     228: 82 6f        	ld	t6, 0(sp)
     22a: fa 9f        	add	t6, t6, t5
     22c: 8a 0f        	slli	t6, t6, 2
     22e: 33 8a 76 00  	add	s4, a3, t2
     232: 33 86 f6 01  	add	a2, a3, t6
     236: d2 8e        	mv	t4, s4
     238: 63 60 ca 00  	bltu	s4, a2, 0x238 <.LBB0_36+0x14>
     23c: b2 8e        	mv	t4, a2

000000000000023e <.LBB0_38>:
     23e: 63 60 46 01  	bltu	a2, s4, 0x23e <.LBB0_38>
     242: 32 8a        	mv	s4, a2

0000000000000244 <.LBB0_40>:
     244: 81 40        	li	ra, 0
     246: 22 66        	ld	a2, 8(sp)
     248: b3 0a e6 03  	mul	s5, a2, t5
     24c: 93 89 4a 00  	addi	s3, s5, 4
     250: 11 0a        	addi	s4, s4, 4
     252: 33 0b af 02  	mul	s6, t5, a0
     256: 02 7d        	ld	s10, 32(sp)
     258: fa 8b        	mv	s7, t5
     25a: 01 a0        	j	0x25a <.LBB0_40+0x16>

000000000000025c <.LBB0_41>:
     25c: 01 44        	li	s0, 0

000000000000025e <.LBB0_42>:
     25e: 3b 46 c4 03  	divw	a2, s0, t3
     262: 23 20 c3 00  	sw	a2, 0(t1)
     266: 33 87 ab 02  	mul	a4, s7, a0
     26a: 7a 97        	add	a4, a4, t5
     26c: 0a 07        	slli	a4, a4, 2
     26e: 4a 97        	add	a4, a4, s2
     270: 10 c3        	sw	a2, 0(a4)
     272: 85 0b        	addi	s7, s7, 1
     274: 85 00        	addi	ra, ra, 1
     276: 11 0d        	addi	s10, s10, 4
     278: 63 80 ab 00  	beq	s7, a0, 0x278 <.LBB0_42+0x1a>

000000000000027c <.LBB0_43>:
     27c: 13 94 20 00  	slli	s0, ra, 2
     280: b3 84 83 00  	add	s1, t2, s0
     284: b6 94        	add	s1, s1, a3
     286: 33 86 8f 00  	add	a2, t6, s0
     28a: 36 96        	add	a2, a2, a3
     28c: a6 8c        	mv	s9, s1
     28e: 63 e0 c4 00  	bltu	s1, a2, 0x28e <.LBB0_43+0x12>
     292: b2 8c        	mv	s9, a2

0000000000000294 <.LBB0_45>:
     294: 63 60 96 00  	bltu	a2, s1, 0x294 <.LBB0_45>
     298: b2 84        	mv	s1, a2

000000000000029a <.LBB0_47>:
     29a: 33 86 6b 01  	add	a2, s7, s6
     29e: 0a 06        	slli	a2, a2, 2
     2a0: 33 03 c9 00  	add	t1, s2, a2
     2a4: 23 20 03 00  	sw	zero, 0(t1)
     2a8: 63 50 b0 00  	blez	a1, 0x2a8 <.LBB0_47+0xe>
     2ac: 13 d6 22 00  	srli	a2, t0, 2
     2b0: a1 47        	li	a5, 8
     2b2: 63 e0 c7 00  	bltu	a5, a2, 0x2b2 <.LBB0_47+0x18>
     2b6: 21 46        	li	a2, 8

00000000000002b8 <.LBB0_50>:
     2b8: 63 60 cc 00  	bltu	s8, a2, 0x2b8 <.LBB0_50>
     2bc: 33 86 8a 00  	add	a2, s5, s0
     2c0: 4a 96        	add	a2, a2, s2
     2c2: 4e 94        	add	s0, s0, s3
     2c4: 4a 94        	add	s0, s0, s2
     2c6: 91 04        	addi	s1, s1, 4
     2c8: b3 37 96 00  	sltu	a5, a2, s1
     2cc: b3 b4 8c 00  	sltu	s1, s9, s0
     2d0: e5 8f        	and	a5, a5, s1
     2d2: 33 36 46 01  	sltu	a2, a2, s4
     2d6: b3 b4 8e 00  	sltu	s1, t4, s0
     2da: 65 8e        	and	a2, a2, s1
     2dc: 5d 8e        	or	a2, a2, a5
     2de: 01 c2        	beqz	a2, 0x2de <.LBB0_50+0x26>

00000000000002e0 <.LBB0_52>:
     2e0: 01 48        	li	a6, 0
     2e2: 01 44        	li	s0, 0

00000000000002e4 <.LBB0_53>:
     2e4: 33 06 05 03  	mul	a2, a0, a6
     2e8: b3 87 cb 00  	add	a5, s7, a2
     2ec: 8a 07        	slli	a5, a5, 2
     2ee: b3 84 f6 00  	add	s1, a3, a5
     2f2: 7a 96        	add	a2, a2, t5
     2f4: 0a 06        	slli	a2, a2, 2
     2f6: b3 87 c6 00  	add	a5, a3, a2
     2fa: 33 06 0c 41  	sub	a2, s8, a6

00000000000002fe <.LBB0_54>:
     2fe: 03 a8 07 00  	lw	a6, 0(a5)
     302: 98 40        	lw	a4, 0(s1)
     304: 3b 07 07 03  	mulw	a4, a4, a6
     308: 3a 94        	add	s0, s0, a4
     30a: 23 20 83 00  	sw	s0, 0(t1)
     30e: c6 94        	add	s1, s1, a7
     310: 7d 16        	addi	a2, a2, -1
     312: c6 97        	add	a5, a5, a7
     314: 01 e2        	bnez	a2, 0x314 <.LBB0_54+0x16>
     316: 01 a0        	j	0x316 <.LBB0_54+0x18>

0000000000000318 <.LBB0_55>:
     318: 16 84        	mv	s0, t0
     31a: 56 8e        	mv	t3, s5
     31c: d2 8a        	mv	s5, s4
     31e: 4e 8a        	mv	s4, s3
     320: f6 89        	mv	s3, t4
     322: 13 d6 32 00  	srli	a2, t0, 3
     326: 13 d4 22 00  	srli	s0, t0, 2
     32a: 93 07 f4 ff  	addi	a5, s0, -1
     32e: b3 7d fc 00  	and	s11, s8, a5
     332: 33 08 bc 41  	sub	a6, s8, s11
     336: 93 14 25 00  	slli	s1, a0, 2
     33a: 62 67        	ld	a4, 24(sp)
     33c: 33 06 c7 02  	mul	a2, a4, a2
     340: d7 77 00 0d  	vsetvli	a5, zero, e32, m1, ta, ma
     344: ea 87        	mv	a5, s10
     346: 82 7e        	ld	t4, 32(sp)
     348: c2 8c        	mv	s9, a6
     34a: d7 34 80 9e  	vmv1r.v	v9, v8

000000000000034e <.LBB0_56>:
     34e: 07 e5 9e 0a  	vlse32.v	v10, (t4), s1
     352: 87 e5 97 0a  	vlse32.v	v11, (a5), s1
     356: d7 a4 a5 b6  	vmacc.vv	v9, v11, v10
     35a: b3 8c 8c 40  	sub	s9, s9, s0
     35e: b2 9e        	add	t4, t4, a2
     360: b2 97        	add	a5, a5, a2
     362: 63 90 0c 00  	bnez	s9, 0x362 <.LBB0_56+0x14>
     366: 57 65 00 42  	vmv.s.x	v10, zero
     36a: d7 24 95 02  	vredsum.vs	v9, v9, v10
     36e: 57 24 90 42  	vmv.x.s	s0, v9
     372: 57 f0 00 cd  	vsetivli	zero, 1, e32, m1, ta, ma
     376: a7 64 03 02  	vse32.v	v9, (t1)
     37a: ce 8e        	mv	t4, s3
     37c: d2 89        	mv	s3, s4
     37e: 56 8a        	mv	s4, s5
     380: f2 8a        	mv	s5, t3
     382: 42 6e        	ld	t3, 16(sp)
     384: 63 90 0d 00  	bnez	s11, 0x384 <.LBB0_56+0x36>
     388: 01 a0        	j	0x388 <.LBB0_56+0x3a>

000000000000038a <.LBB0_58>:
     38a: 73 26 20 c0  	rdinstret	a2
     38e: 37 05 00 00  	lui	a0, 0
     392: 83 35 05 00  	ld	a1, 0(a0)
     396: b7 06 00 00  	lui	a3, 0
     39a: 37 05 00 00  	lui	a0, 0
     39e: 13 05 05 00  	mv	a0, a0
     3a2: 23 b0 c6 00  	sd	a2, 0(a3)
     3a6: aa 60        	ld	ra, 136(sp)
     3a8: 0a 64        	ld	s0, 128(sp)
     3aa: e6 74        	ld	s1, 120(sp)
     3ac: 46 79        	ld	s2, 112(sp)
     3ae: a6 79        	ld	s3, 104(sp)
     3b0: 06 7a        	ld	s4, 96(sp)
     3b2: e6 6a        	ld	s5, 88(sp)
     3b4: 46 6b        	ld	s6, 80(sp)
     3b6: a6 6b        	ld	s7, 72(sp)
     3b8: 06 6c        	ld	s8, 64(sp)
     3ba: e2 7c        	ld	s9, 56(sp)
     3bc: 42 7d        	ld	s10, 48(sp)
     3be: a2 7d        	ld	s11, 40(sp)
     3c0: 49 61        	addi	sp, sp, 144
     3c2: 17 03 00 00  	auipc	t1, 0
     3c6: 67 00 03 00  	jr	t1
