
kernel.o:	file format elf64-littleriscv

Disassembly of section .text:

0000000000000000 <.text>:
       0: 01 00        	nop

0000000000000002 <core>:
       2: 79 71        	addi	sp, sp, -48
       4: 06 f4        	sd	ra, 40(sp)
       6: 22 f0        	sd	s0, 32(sp)
       8: 26 ec        	sd	s1, 24(sp)
       a: 4a e8        	sd	s2, 16(sp)
       c: 4e e4        	sd	s3, 8(sp)
       e: 52 e0        	sd	s4, 0(sp)
      10: 3a 8a        	mv	s4, a4
      12: 73 27 20 c0  	rdinstret	a4
      16: 37 09 00 00  	lui	s2, 0
      1a: 23 30 e9 00  	sd	a4, 0(s2)
      1e: 63 50 a0 00  	blez	a0, 0x1e <core+0x1c>
      22: 93 19 05 02  	slli	s3, a0, 32
      26: 63 50 b0 00  	blez	a1, 0x26 <core+0x24>
      2a: 81 42        	li	t0, 0
      2c: 13 d8 09 02  	srli	a6, s3, 32
      30: 93 13 25 00  	slli	t2, a0, 2
      34: b6 88        	mv	a7, a3

0000000000000036 <.LBB0_3>:
      36: 01 4e        	li	t3, 0
      38: 13 93 22 00  	slli	t1, t0, 2
      3c: 3e 93        	add	t1, t1, a5
      3e: 23 20 03 00  	sw	zero, 0(t1)
      42: 2e 87        	mv	a4, a1
      44: c6 84        	mv	s1, a7

0000000000000046 <.LBB0_4>:
      46: 80 40        	lw	s0, 0(s1)
      48: 22 9e        	add	t3, t3, s0
      4a: 23 20 c3 01  	sw	t3, 0(t1)
      4e: 7d 17        	addi	a4, a4, -1
      50: 9e 94        	add	s1, s1, t2
      52: 01 e3        	bnez	a4, 0x52 <.LBB0_4+0xc>
      54: 3b 47 ce 02  	divw	a4, t3, a2
      58: 23 20 e3 00  	sw	a4, 0(t1)
      5c: 85 02        	addi	t0, t0, 1
      5e: 91 08        	addi	a7, a7, 4
      60: 63 90 02 01  	bne	t0, a6, 0x60 <.LBB0_4+0x1a>
      64: 63 50 b0 00  	blez	a1, 0x64 <.LBB0_4+0x1e>
      68: 63 50 a0 00  	blez	a0, 0x68 <.LBB0_4+0x22>
      6c: 81 42        	li	t0, 0
      6e: 13 97 05 02  	slli	a4, a1, 32
      72: 93 58 07 02  	srli	a7, a4, 32
      76: 36 83        	mv	t1, a3

0000000000000078 <.LBB0_9>:
      78: aa 8e        	mv	t4, a0
      7a: 3e 84        	mv	s0, a5
      7c: 9a 84        	mv	s1, t1

000000000000007e <.LBB0_10>:
      7e: 03 2e 04 00  	lw	t3, 0(s0)
      82: 98 40        	lw	a4, 0(s1)
      84: 3b 07 c7 41  	subw	a4, a4, t3
      88: 98 c0        	sw	a4, 0(s1)
      8a: 91 04        	addi	s1, s1, 4
      8c: fd 1e        	addi	t4, t4, -1
      8e: 11 04        	addi	s0, s0, 4
      90: 63 90 0e 00  	bnez	t4, 0x90 <.LBB0_10+0x12>
      94: 85 02        	addi	t0, t0, 1
      96: 1e 93        	add	t1, t1, t2
      98: 63 90 12 01  	bne	t0, a7, 0x98 <.LBB0_10+0x1a>

000000000000009c <.LBB0_12>:
      9c: 63 50 a0 00  	blez	a0, 0x9c <.LBB0_12>
      a0: 63 50 b0 00  	blez	a1, 0xa0 <.LBB0_12+0x4>
      a4: 01 43        	li	t1, 0
      a6: 9b 08 f6 ff  	addiw	a7, a2, -1
      aa: 93 de e9 01  	srli	t4, s3, 30

00000000000000ae <.LBB0_15>:
      ae: b3 02 03 03  	mul	t0, t1, a6
      b2: b6 83        	mv	t2, a3
      b4: 1a 8e        	mv	t3, t1

00000000000000b6 <.LBB0_16>:
      b6: 01 46        	li	a2, 0
      b8: 33 07 5e 00  	add	a4, t3, t0
      bc: 0a 07        	slli	a4, a4, 2
      be: 33 0f ea 00  	add	t5, s4, a4
      c2: 23 20 0f 00  	sw	zero, 0(t5)
      c6: 2e 87        	mv	a4, a1
      c8: b6 87        	mv	a5, a3
      ca: 1e 84        	mv	s0, t2

00000000000000cc <.LBB0_17>:
      cc: 88 43        	lw	a0, 0(a5)
      ce: 04 40        	lw	s1, 0(s0)
      d0: 3b 85 a4 02  	mulw	a0, s1, a0
      d4: 2a 96        	add	a2, a2, a0
      d6: 23 20 cf 00  	sw	a2, 0(t5)
      da: 76 94        	add	s0, s0, t4
      dc: 7d 17        	addi	a4, a4, -1
      de: f6 97        	add	a5, a5, t4
      e0: 01 e3        	bnez	a4, 0xe0 <.LBB0_17+0x14>
      e2: 3b 45 16 03  	divw	a0, a2, a7
      e6: 23 20 af 00  	sw	a0, 0(t5)
      ea: 33 06 0e 03  	mul	a2, t3, a6
      ee: 1a 96        	add	a2, a2, t1
      f0: 0a 06        	slli	a2, a2, 2
      f2: 52 96        	add	a2, a2, s4
      f4: 08 c2        	sw	a0, 0(a2)
      f6: 05 0e        	addi	t3, t3, 1
      f8: 91 03        	addi	t2, t2, 4
      fa: 63 10 0e 01  	bne	t3, a6, 0xfa <.LBB0_17+0x2e>
      fe: 05 03        	addi	t1, t1, 1
     100: 91 06        	addi	a3, a3, 4
     102: 63 10 03 01  	bne	t1, a6, 0x102 <.LBB0_17+0x36>
     106: 01 a0        	j	0x106 <.LBB0_17+0x3a>

0000000000000108 <.LBB0_20>:
     108: 13 16 25 00  	slli	a2, a0, 2
     10c: 3e 85        	mv	a0, a5
     10e: 81 45        	li	a1, 0
     110: 97 00 00 00  	auipc	ra, 0
     114: e7 80 00 00  	jalr	ra

0000000000000118 <.LBB0_21>:
     118: 01 45        	li	a0, 0
     11a: 93 d5 09 02  	srli	a1, s3, 32
     11e: 93 d6 e9 01  	srli	a3, s3, 30
     122: 13 84 46 00  	addi	s0, a3, 4
     126: 2e 87        	mv	a4, a1

0000000000000128 <.LBB0_22>:
     128: ba 87        	mv	a5, a4
     12a: d2 84        	mv	s1, s4
     12c: 52 86        	mv	a2, s4

000000000000012e <.LBB0_23>:
     12e: 23 a0 04 00  	sw	zero, 0(s1)
     132: 23 20 06 00  	sw	zero, 0(a2)
     136: 36 96        	add	a2, a2, a3
     138: fd 17        	addi	a5, a5, -1
     13a: 91 04        	addi	s1, s1, 4
     13c: 81 e3        	bnez	a5, 0x13c <.LBB0_23+0xe>
     13e: 05 05        	addi	a0, a0, 1
     140: 22 9a        	add	s4, s4, s0
     142: 7d 17        	addi	a4, a4, -1
     144: 63 10 b5 00  	bne	a0, a1, 0x144 <.LBB0_23+0x16>

0000000000000148 <.LBB0_25>:
     148: 73 26 20 c0  	rdinstret	a2
     14c: 83 35 09 00  	ld	a1, 0(s2)
     150: b7 06 00 00  	lui	a3, 0
     154: 37 05 00 00  	lui	a0, 0
     158: 13 05 05 00  	mv	a0, a0
     15c: 23 b0 c6 00  	sd	a2, 0(a3)
     160: a2 70        	ld	ra, 40(sp)
     162: 02 74        	ld	s0, 32(sp)
     164: e2 64        	ld	s1, 24(sp)
     166: 42 69        	ld	s2, 16(sp)
     168: a2 69        	ld	s3, 8(sp)
     16a: 02 6a        	ld	s4, 0(sp)
     16c: 45 61        	addi	sp, sp, 48
     16e: 17 03 00 00  	auipc	t1, 0
     172: 67 00 03 00  	jr	t1
