
kernel.o:     file format elf64-littleriscv


Disassembly of section .text:

0000000000000000 <core>:
   0:	00811e03          	lh	t3,8(sp)
   4:	01011e83          	lh	t4,16(sp)
   8:	6302                	ld	t1,0(sp)
   a:	6f62                	ld	t5,24(sp)
   c:	4f85                	li	t6,1
   e:	c02022f3          	rdinstret	t0
  12:	4005108b          	ss.sta.st.h.v.1	u1,a0
  16:	f3e0008b          	ss.app	u1,zero,t5,t5
  1a:	fde0008b          	ss.end	u1,zero,t5,t6
  1e:	4007550b          	ss.sta.ld.h.v.1	u10,a4
  22:	03e0050b          	ss.app	u10,zero,t5,zero
  26:	fde0050b          	ss.end	u10,zero,t5,t6
  2a:	4006d48b          	ss.sta.ld.h.v.1	u9,a3
  2e:	fbe0048b          	ss.app	u9,zero,t5,t6
  32:	05e0048b          	ss.end	u9,zero,t5,zero
  36:	4006538b          	ss.sta.ld.h.v.1	u7,a2
  3a:	03e0038b          	ss.app	u7,zero,t5,zero
  3e:	fde0038b          	ss.end	u7,zero,t5,t6
  42:	4005d30b          	ss.sta.ld.h.v.1	u6,a1
  46:	fbe0030b          	ss.app	u6,zero,t5,t6
  4a:	05e0030b          	ss.end	u6,zero,t5,zero
  4e:	4005520b          	ss.sta.ld.h.v.1	u4,a0
  52:	f3e0020b          	ss.app	u4,zero,t5,t5
  56:	fde0020b          	ss.end	u4,zero,t5,t6

000000000000005a <.SLOOP_118>:
  5a:	107322ab          	so.a.mul.sg	u5,u6,u7,p0
  5e:	005221ab          	so.a.add.sg	u3,u4,u5,p0
  62:	10a4a42b          	so.a.mul.sg	u8,u9,u10,p0
  66:	0081a0ab          	so.a.add.sg	u1,u3,u8,p0
  6a:	ffd0f8ab          	so.b.nc	u1,5a <.SLOOP_118>
  6e:	4008d38b          	ss.sta.ld.h.v.1	u7,a7
  72:	03e0038b          	ss.app	u7,zero,t5,zero
  76:	fde0038b          	ss.end	u7,zero,t5,t6
  7a:	4005528b          	ss.sta.ld.h.v.1	u5,a0
  7e:	fbe0028b          	ss.app	u5,zero,t5,t6
  82:	f5e0028b          	ss.end	u5,zero,t5,t5
  86:	0008108b          	ss.sta.st.h	u1,a6
  8a:	fde0008b          	ss.end	u1,zero,t5,t6
  8e:	7808548b          	ss.sta.ld.h.v	u9,a6
  92:	fde0048b          	ss.end	u9,zero,t5,t6
  96:	ac0e932b          	so.v.dp.h	u6,t4,p0

000000000000009a <.SLOOP_218>:
  9a:	ac0015ab          	so.v.dp.h	u11,zero,p0

000000000000009e <.SLOOP_2_018>:
  9e:	1062a82b          	so.a.mul.sg	u16,u5,u6,p0
  a2:	10782eab          	so.a.mul.sg	u29,u16,u7,p0
  a6:	201ea5ab          	so.a.adde.acc.sg	u11,u29,p0
  aa:	ffd28aab          	so.b.ndc.1	u5,9e <.SLOOP_2_018>
  ae:	00b4a0ab          	so.a.add.sg	u1,u9,u11,p0
  b2:	ffd0f4ab          	so.b.nc	u1,9a <.SLOOP_218>
  b6:	0008108b          	ss.sta.st.h	u1,a6
  ba:	fde0008b          	ss.end	u1,zero,t5,t6
  be:	7803520b          	ss.sta.ld.h.v	u4,t1
  c2:	fde0020b          	ss.end	u4,zero,t5,t6
  c6:	7808518b          	ss.sta.ld.h.v	u3,a6
  ca:	fde0018b          	ss.end	u3,zero,t5,t6

00000000000000ce <.SLOOP_318>:
  ce:	0041a0ab          	so.a.add.sg	u1,u3,u4,p0
  d2:	ffd0feab          	so.b.nc	u1,ce <.SLOOP_318>
  d6:	4008538b          	ss.sta.ld.h.v.1	u7,a6
  da:	03e0038b          	ss.app	u7,zero,t5,zero
  de:	fde0038b          	ss.end	u7,zero,t5,t6
  e2:	4005528b          	ss.sta.ld.h.v.1	u5,a0
  e6:	f3e0028b          	ss.app	u5,zero,t5,t5
  ea:	fde0028b          	ss.end	u5,zero,t5,t6
  ee:	0007908b          	ss.sta.st.h	u1,a5
  f2:	fde0008b          	ss.end	u1,zero,t5,t6
  f6:	7807d48b          	ss.sta.ld.h.v	u9,a5
  fa:	fde0048b          	ss.end	u9,zero,t5,t6
  fe:	ac0e162b          	so.v.dp.h	u12,t3,p0

0000000000000102 <.SLOOP_418>:
 102:	ac0016ab          	so.v.dp.h	u13,zero,p0

0000000000000106 <.SLOOP_4_018>:
 106:	10c2a72b          	so.a.mul.sg	u14,u5,u12,p0
 10a:	107727ab          	so.a.mul.sg	u15,u14,u7,p0
 10e:	2017a6ab          	so.a.adde.acc.sg	u13,u15,p0
 112:	ffd28aab          	so.b.ndc.1	u5,106 <.SLOOP_4_018>
 116:	00d4a0ab          	so.a.add.sg	u1,u9,u13,p0
 11a:	ffd0f4ab          	so.b.nc	u1,102 <.SLOOP_418>
 11e:	c02023f3          	rdinstret	t2
 122:	00000537          	lui	a0,0x0
 126:	000006b7          	lui	a3,0x0
 12a:	00000737          	lui	a4,0x0
 12e:	861e                	mv	a2,t2
 130:	8596                	mv	a1,t0
 132:	00050513          	mv	a0,a0
 136:	0056b023          	sd	t0,0(a3) # 0 <core>
 13a:	00773023          	sd	t2,0(a4) # 0 <core>
 13e:	00000317          	auipc	t1,0x0
 142:	00030067          	jr	t1 # 13e <.SLOOP_4_018+0x38>
