
kernel.o:     file format elf64-littleriscv


Disassembly of section .text:

0000000000000000 <core>:
   0:	c02027f3          	rdinstret	a5
   4:	00000eb7          	lui	t4,0x0
   8:	00feb023          	sd	a5,0(t4) # 0 <core>
   c:	c6e9                	beqz	a3,d6 <.L2>
   e:	00860793          	addi	a5,a2,8
  12:	00850893          	addi	a7,a0,8
  16:	00f537b3          	sltu	a5,a0,a5
  1a:	011638b3          	sltu	a7,a2,a7
  1e:	fff68813          	addi	a6,a3,-1
  22:	0017c793          	xori	a5,a5,1
  26:	0018c893          	xori	a7,a7,1
  2a:	00c83813          	sltiu	a6,a6,12
  2e:	0117e7b3          	or	a5,a5,a7
  32:	00184813          	xori	a6,a6,1
  36:	0107f7b3          	and	a5,a5,a6
  3a:	cfdd                	beqz	a5,f8 <.L3>
  3c:	00a667b3          	or	a5,a2,a0
  40:	8b9d                	andi	a5,a5,7
  42:	ebdd                	bnez	a5,f8 <.L3>
  44:	0016d313          	srli	t1,a3,0x1
  48:	030e                	slli	t1,t1,0x3
  4a:	87b2                	mv	a5,a2
  4c:	882a                	mv	a6,a0
  4e:	9332                	add	t1,t1,a2

0000000000000050 <.L4>:
  50:	00083883          	ld	a7,0(a6)
  54:	07a1                	addi	a5,a5,8
  56:	0821                	addi	a6,a6,8
  58:	ff17bc23          	sd	a7,-8(a5)
  5c:	fe679ae3          	bne	a5,t1,50 <.L4>
  60:	ffe6f793          	andi	a5,a3,-2
  64:	00269f93          	slli	t6,a3,0x2
  68:	00f68863          	beq	a3,a5,78 <.L7>
  6c:	078a                	slli	a5,a5,0x2
  6e:	00f506b3          	add	a3,a0,a5
  72:	4294                	lw	a3,0(a3)
  74:	97b2                	add	a5,a5,a2
  76:	c394                	sw	a3,0(a5)

0000000000000078 <.L7>:
  78:	88b2                	mv	a7,a2
  7a:	86ae                	mv	a3,a1
  7c:	01f60e33          	add	t3,a2,t6
  80:	832e                	mv	t1,a1
  82:	87b2                	mv	a5,a2

0000000000000084 <.L8>:
  84:	0007a803          	lw	a6,0(a5)
  88:	0311                	addi	t1,t1,4
  8a:	0791                	addi	a5,a5,4
  8c:	02e8083b          	mulw	a6,a6,a4
  90:	ff032e23          	sw	a6,-4(t1)
  94:	ffc798e3          	bne	a5,t3,84 <.L8>
  98:	01f50f33          	add	t5,a0,t6
  9c:	832e                	mv	t1,a1
  9e:	87aa                	mv	a5,a0

00000000000000a0 <.L9>:
  a0:	0007a803          	lw	a6,0(a5)
  a4:	00032e03          	lw	t3,0(t1)
  a8:	0791                	addi	a5,a5,4
  aa:	0311                	addi	t1,t1,4
  ac:	01c8083b          	addw	a6,a6,t3
  b0:	01062023          	sw	a6,0(a2)
  b4:	0611                	addi	a2,a2,4
  b6:	ffe795e3          	bne	a5,t5,a0 <.L9>
  ba:	95fe                	add	a1,a1,t6

00000000000000bc <.L10>:
  bc:	0008a783          	lw	a5,0(a7)
  c0:	4290                	lw	a2,0(a3)
  c2:	0511                	addi	a0,a0,4
  c4:	02e787bb          	mulw	a5,a5,a4
  c8:	0691                	addi	a3,a3,4
  ca:	0891                	addi	a7,a7,4
  cc:	9fb1                	addw	a5,a5,a2
  ce:	fef52e23          	sw	a5,-4(a0)
  d2:	feb695e3          	bne	a3,a1,bc <.L10>

00000000000000d6 <.L2>:
  d6:	c02027f3          	rdinstret	a5
  da:	000eb583          	ld	a1,0(t4)
  de:	00000537          	lui	a0,0x0
  e2:	00000737          	lui	a4,0x0
  e6:	863e                	mv	a2,a5
  e8:	00050513          	mv	a0,a0
  ec:	00f73023          	sd	a5,0(a4) # 0 <core>
  f0:	00000317          	auipc	t1,0x0
  f4:	00030067          	jr	t1 # f0 <.L2+0x1a>

00000000000000f8 <.L3>:
  f8:	00269f93          	slli	t6,a3,0x2
  fc:	87aa                	mv	a5,a0
  fe:	86b2                	mv	a3,a2
 100:	01f508b3          	add	a7,a0,t6

0000000000000104 <.L6>:
 104:	0007a803          	lw	a6,0(a5)
 108:	0691                	addi	a3,a3,4
 10a:	0791                	addi	a5,a5,4
 10c:	ff06ae23          	sw	a6,-4(a3)
 110:	ff179ae3          	bne	a5,a7,104 <.L6>
 114:	b795                	j	78 <.L7>
