
kernel.o:     file format elf64-littleriscv


Disassembly of section .text:

0000000000000000 <core>:
   0:	6302                	ld	t1,0(sp)
   2:	6e22                	ld	t3,8(sp)
   4:	4e85                	li	t4,1
   6:	e20502d3          	fmv.x.d	t0,fa0
   a:	e20583d3          	fmv.x.d	t2,fa1
   e:	c0202f73          	rdinstret	t5
  12:	4005308b          	ss.sta.st.d.v.1	u1,a0
  16:	e3c0008b          	ss.app	u1,zero,t3,t3
  1a:	edc0008b          	ss.end	u1,zero,t3,t4
  1e:	4007750b          	ss.sta.ld.d.v.1	u10,a4
  22:	03c0050b          	ss.app	u10,zero,t3,zero
  26:	edc0050b          	ss.end	u10,zero,t3,t4
  2a:	4006f48b          	ss.sta.ld.d.v.1	u9,a3
  2e:	ebc0048b          	ss.app	u9,zero,t3,t4
  32:	05c0048b          	ss.end	u9,zero,t3,zero
  36:	4006738b          	ss.sta.ld.d.v.1	u7,a2
  3a:	03c0038b          	ss.app	u7,zero,t3,zero
  3e:	edc0038b          	ss.end	u7,zero,t3,t4
  42:	4005f30b          	ss.sta.ld.d.v.1	u6,a1
  46:	ebc0030b          	ss.app	u6,zero,t3,t4
  4a:	05c0030b          	ss.end	u6,zero,t3,zero
  4e:	4005720b          	ss.sta.ld.d.v.1	u4,a0
  52:	e3c0020b          	ss.app	u4,zero,t3,t3
  56:	edc0020b          	ss.end	u4,zero,t3,t4

000000000000005a <.SLOOP_120>:
  5a:	107312ab          	so.a.mul.fp	u5,u6,u7,p0
  5e:	005211ab          	so.a.add.fp	u3,u4,u5,p0
  62:	10a4942b          	so.a.mul.fp	u8,u9,u10,p0
  66:	008190ab          	so.a.add.fp	u1,u3,u8,p0
  6a:	ffd0f8ab          	so.b.nc	u1,5a <.SLOOP_120>
  6e:	4008f38b          	ss.sta.ld.d.v.1	u7,a7
  72:	03c0038b          	ss.app	u7,zero,t3,zero
  76:	edc0038b          	ss.end	u7,zero,t3,t4
  7a:	4005728b          	ss.sta.ld.d.v.1	u5,a0
  7e:	ebc0028b          	ss.app	u5,zero,t3,t4
  82:	e5c0028b          	ss.end	u5,zero,t3,t3
  86:	0008308b          	ss.sta.st.d	u1,a6
  8a:	edc0008b          	ss.end	u1,zero,t3,t4
  8e:	0008748b          	ss.sta.ld.d	u9,a6
  92:	edc0048b          	ss.end	u9,zero,t3,t4
  96:	ac03b32b          	so.v.dp.d	u6,t2,p0

000000000000009a <.SLOOP_220>:
  9a:	ac0035ab          	so.v.dp.d	u11,zero,p0

000000000000009e <.SLOOP_2_020>:
  9e:	1062982b          	so.a.mul.fp	u16,u5,u6,p0
  a2:	10781eab          	so.a.mul.fp	u29,u16,u7,p0
  a6:	201e95ab          	so.a.adde.acc.fp	u11,u29,p0
  aa:	ffd28aab          	so.b.ndc.1	u5,9e <.SLOOP_2_020>
  ae:	00b490ab          	so.a.add.fp	u1,u9,u11,p0
  b2:	ffd0f4ab          	so.b.nc	u1,9a <.SLOOP_220>
  b6:	7808308b          	ss.sta.st.d.v	u1,a6
  ba:	edc0008b          	ss.end	u1,zero,t3,t4
  be:	7803720b          	ss.sta.ld.d.v	u4,t1
  c2:	edc0020b          	ss.end	u4,zero,t3,t4
  c6:	7808718b          	ss.sta.ld.d.v	u3,a6
  ca:	edc0018b          	ss.end	u3,zero,t3,t4

00000000000000ce <.SLOOP_320>:
  ce:	004190ab          	so.a.add.fp	u1,u3,u4,p0
  d2:	ffd0feab          	so.b.nc	u1,ce <.SLOOP_320>
  d6:	4008738b          	ss.sta.ld.d.v.1	u7,a6
  da:	03c0038b          	ss.app	u7,zero,t3,zero
  de:	edc0038b          	ss.end	u7,zero,t3,t4
  e2:	4005728b          	ss.sta.ld.d.v.1	u5,a0
  e6:	e3c0028b          	ss.app	u5,zero,t3,t3
  ea:	edc0028b          	ss.end	u5,zero,t3,t4
  ee:	0007b08b          	ss.sta.st.d	u1,a5
  f2:	edc0008b          	ss.end	u1,zero,t3,t4
  f6:	0007f48b          	ss.sta.ld.d	u9,a5
  fa:	edc0048b          	ss.end	u9,zero,t3,t4
  fe:	ac02b62b          	so.v.dp.d	u12,t0,p0

0000000000000102 <.SLOOP_420>:
 102:	ac0036ab          	so.v.dp.d	u13,zero,p0

0000000000000106 <.SLOOP_4_020>:
 106:	10c2972b          	so.a.mul.fp	u14,u5,u12,p0
 10a:	107717ab          	so.a.mul.fp	u15,u14,u7,p0
 10e:	201796ab          	so.a.adde.acc.fp	u13,u15,p0
 112:	ffd28aab          	so.b.ndc.1	u5,106 <.SLOOP_4_020>
 116:	00d490ab          	so.a.add.fp	u1,u9,u13,p0
 11a:	ffd0f4ab          	so.b.nc	u1,102 <.SLOOP_420>
 11e:	c0202ff3          	rdinstret	t6
 122:	00000537          	lui	a0,0x0
 126:	000006b7          	lui	a3,0x0
 12a:	00000737          	lui	a4,0x0
 12e:	867e                	mv	a2,t6
 130:	85fa                	mv	a1,t5
 132:	00050513          	mv	a0,a0
 136:	01e6b023          	sd	t5,0(a3) # 0 <core>
 13a:	01f73023          	sd	t6,0(a4) # 0 <core>
 13e:	00000317          	auipc	t1,0x0
 142:	00030067          	jr	t1 # 13e <.SLOOP_4_020+0x38>
