
kernel.o:     file format elf64-littleriscv


Disassembly of section .text:

0000000000000000 <core>:
   0:	882e                	mv	a6,a1
   2:	c02025f3          	rdinstret	a1
   6:	000007b7          	lui	a5,0x0
   a:	00b7b023          	sd	a1,0(a5) # 0 <core>
   e:	000007b7          	lui	a5,0x0
  12:	0007b787          	fld	fa5,0(a5) # 0 <core>
  16:	4885                	li	a7,1
  18:	e2050353          	fmv.x.d	t1,fa0
  1c:	0af577d3          	fsub.d	fa5,fa0,fa5
  20:	e20787d3          	fmv.x.d	a5,fa5
  24:	7806708b          	ss.sta.ld.d.v	u1,a2
  28:	8aa0008b          	ss.app	u1,zero,a0,a7
  2c:	5500008b          	ss.end	u1,zero,a6,a0
  30:	0007310b          	ss.sta.st.d	u2,a4
  34:	8ca0010b          	ss.end	u2,zero,a0,a7
  38:	a98331ab          	so.v.mvsv.d	u3,t1

000000000000003c <.SLOOP_115>:
  3c:	a980322b          	so.v.mvsv.d	u4,zero

0000000000000040 <.SLOOP_1_015>:
  40:	2010922b          	so.a.adde.acc.fp	u4,u1,p0
  44:	ffd09eab          	so.b.ndc.2	u1,40 <.SLOOP_1_015>
  48:	1032512b          	so.a.div.fp	u2,u4,u3,p0
  4c:	ffd0f8ab          	so.b.nc	u1,3c <.SLOOP_115>
  50:	7806308b          	ss.sta.st.d.v	u1,a2
  54:	5300008b          	ss.app	u1,zero,a6,a0
  58:	8ca0008b          	ss.end	u1,zero,a0,a7
  5c:	7807710b          	ss.sta.ld.d.v	u2,a4
  60:	0300010b          	ss.app	u2,zero,a6,zero
  64:	8ca0010b          	ss.end	u2,zero,a0,a7
  68:	7806718b          	ss.sta.ld.d.v	u3,a2
  6c:	5300018b          	ss.app	u3,zero,a6,a0
  70:	8ca0018b          	ss.end	u3,zero,a0,a7

0000000000000074 <.SLOOP_215>:
  74:	0021d0ab          	so.a.sub.fp	u1,u3,u2,p0
  78:	ffd0feab          	so.b.nc	u1,74 <.SLOOP_215>
  7c:	f806708b          	ss.sta.ld.d.v.m	u1,a2
  80:	8aa0008b          	ss.app	u1,zero,a0,a7
  84:	8a40c08b          	ss.app.mod.siz.dec.2	u1,a7
  88:	8aa0008b          	ss.app	u1,zero,a0,a7
  8c:	5500008b          	ss.end	u1,zero,a6,a0
  90:	f806710b          	ss.sta.ld.d.v.m	u2,a2
  94:	8aa0010b          	ss.app	u2,zero,a0,a7
  98:	8a40c10b          	ss.app.mod.siz.dec.2	u2,a7
  9c:	02a0010b          	ss.app	u2,zero,a0,zero
  a0:	5500010b          	ss.end	u2,zero,a6,a0
  a4:	0006b18b          	ss.sta.st.d	u3,a3
  a8:	52a0018b          	ss.app	u3,zero,a0,a0
  ac:	8a20c18b          	ss.app.mod.ofs.inc.2	u3,a7
  b0:	8a40c18b          	ss.app.mod.siz.dec.2	u3,a7
  b4:	8ca0018b          	ss.end	u3,zero,a0,a7
  b8:	0006b20b          	ss.sta.st.d	u4,a3
  bc:	8aa0020b          	ss.app	u4,zero,a0,a7
  c0:	5220c20b          	ss.app.mod.ofs.inc.2	u4,a0
  c4:	8a40c20b          	ss.app.mod.siz.dec.2	u4,a7
  c8:	54a0020b          	ss.end	u4,zero,a0,a0
  cc:	a987b2ab          	so.v.mvsv.d	u5,a5

00000000000000d0 <.SLOOP_315>:
  d0:	ac00332b          	so.v.dp.d	u6,zero,p0

00000000000000d4 <.SLOOP_3_0_015>:
  d4:	3011532b          	so.a.mac.fp	u6,u2,u1,p0
  d8:	ffd12eab          	so.b.ndc.3	u2,d4 <.SLOOP_3_0_015>
  dc:	200313ab          	so.a.adde.fp	u7,u6,p0
  e0:	1053d42b          	so.a.div.fp	u8,u7,u5,p0
  e4:	a80401ab          	so.v.mv	u3,u8,p0
  e8:	a804022b          	so.v.mv	u4,u8,p0
  ec:	ffd0f2ab          	so.b.nc	u1,d0 <.SLOOP_315>
  f0:	c02027f3          	rdinstret	a5
  f4:	00000537          	lui	a0,0x0
  f8:	00000737          	lui	a4,0x0
  fc:	863e                	mv	a2,a5
  fe:	00050513          	mv	a0,a0
 102:	00f73023          	sd	a5,0(a4) # 0 <core>
 106:	00000317          	auipc	t1,0x0
 10a:	00030067          	jr	t1 # 106 <.SLOOP_3_0_015+0x32>
