
kernel.o:	file format elf64-littleriscv

Disassembly of section .text:

0000000000000000 <.text>:
       0: 01 00        	nop

0000000000000002 <core>:
       2: 75 71        	addi	sp, sp, -144
       4: 06 e5        	sd	ra, 136(sp)
       6: 22 e1        	sd	s0, 128(sp)
       8: a6 fc        	sd	s1, 120(sp)
       a: ca f8        	sd	s2, 112(sp)
       c: ce f4        	sd	s3, 104(sp)
       e: d2 f0        	sd	s4, 96(sp)
      10: d6 ec        	sd	s5, 88(sp)
      12: da e8        	sd	s6, 80(sp)
      14: de e4        	sd	s7, 72(sp)
      16: e2 e0        	sd	s8, 64(sp)
      18: 66 fc        	sd	s9, 56(sp)
      1a: 6a f8        	sd	s10, 48(sp)
      1c: 6e f4        	sd	s11, 40(sp)
      1e: b6 8c        	mv	s9, a3
      20: f3 26 20 c0  	rdinstret	a3
      24: b7 07 00 00  	lui	a5, 0
      28: 23 b0 d7 00  	sd	a3, 0(a5)
      2c: 63 50 a0 00  	blez	a0, 0x2c <core+0x2a>
      30: 93 19 05 02  	slli	s3, a0, 32
      34: 13 14 25 00  	slli	s0, a0, 2
      38: 63 50 b0 00  	blez	a1, 0x38 <core+0x36>
      3c: fd 56        	li	a3, -1
      3e: 93 d8 26 00  	srli	a7, a3, 2
      42: 13 dc 09 02  	srli	s8, s3, 32
      46: f3 23 20 c2  	csrr	t2, vlenb
      4a: 93 df 23 00  	srli	t6, t2, 2
      4e: 91 46        	li	a3, 4
      50: b3 87 15 01  	add	a5, a1, a7
      54: fe 8e        	mv	t4, t6
      56: 63 e0 f6 01  	bltu	a3, t6, 0x56 <core+0x54>
      5a: 91 4e        	li	t4, 4

000000000000005c <.LBB0_4>:
      5c: b7 06 00 00  	lui	a3, 0
      60: 07 a0 06 00  	flw	ft0, 0(a3)
      64: 01 49        	li	s2, 0
      66: b3 82 87 03  	mul	t0, a5, s8
      6a: 53 70 a0 18  	fdiv.s	ft0, ft0, fa0
      6e: 93 16 35 00  	slli	a3, a0, 3
      72: d3 00 00 f0  	fmv.w.x	ft1, zero
      76: 93 d4 33 00  	srli	s1, t2, 3
      7a: 93 87 ff ff  	addi	a5, t6, -1
      7e: 33 f3 f5 00  	and	t1, a1, a5
      82: 33 8e 65 40  	sub	t3, a1, t1
      86: 26 f0        	sd	s1, 32(sp)
      88: 33 88 96 02  	mul	a6, a3, s1
      8c: d7 76 00 0d  	vsetvli	a3, zero, e32, m1, ta, ma
      90: 57 34 00 5e  	vmv.v.i	v8, 0
      94: d7 64 00 42  	vmv.s.x	v9, zero
      98: 32 8f        	mv	t5, a2

000000000000009a <.LBB0_5>:
      9a: 81 44        	li	s1, 0
      9c: 93 16 29 00  	slli	a3, s2, 2
      a0: b3 07 d7 00  	add	a5, a4, a3
      a4: 23 a0 07 00  	sw	zero, 0(a5)
      a8: 53 81 10 20  	fmv.s	ft2, ft1
      ac: 63 e0 d5 01  	bltu	a1, t4, 0xac <.LBB0_5+0x12>
      b0: b2 96        	add	a3, a3, a2
      b2: b3 84 22 01  	add	s1, t0, s2
      b6: 8a 04        	slli	s1, s1, 2
      b8: b2 94        	add	s1, s1, a2
      ba: 36 8a        	mv	s4, a3
      bc: 63 e0 d4 00  	bltu	s1, a3, 0xbc <.LBB0_5+0x22>
      c0: 26 8a        	mv	s4, s1

00000000000000c2 <.LBB0_8>:
      c2: 63 e0 96 00  	bltu	a3, s1, 0xc2 <.LBB0_8>
      c6: a6 86        	mv	a3, s1

00000000000000c8 <.LBB0_10>:
      c8: 11 0a        	addi	s4, s4, 4
      ca: 93 84 47 00  	addi	s1, a5, 4
      ce: 33 ba 47 01  	sltu	s4, a5, s4
      d2: b3 b6 96 00  	sltu	a3, a3, s1
      d6: b3 76 da 00  	and	a3, s4, a3
      da: 81 c2        	beqz	a3, 0xda <.LBB0_10+0x12>
      dc: 81 44        	li	s1, 0
      de: 53 81 10 20  	fmv.s	ft2, ft1
      e2: 01 a0        	j	0xe2 <.LBB0_10+0x1a>

00000000000000e4 <.LBB0_12>:
      e4: d7 76 00 0d  	vsetvli	a3, zero, e32, m1, ta, ma
      e8: fa 86        	mv	a3, t5
      ea: f2 84        	mv	s1, t3
      ec: 57 35 80 9e  	vmv1r.v	v10, v8

00000000000000f0 <.LBB0_13>:
      f0: 87 e5 86 0a  	vlse32.v	v11, (a3), s0
      f4: 57 95 a5 02  	vfadd.vv	v10, v10, v11
      f8: b3 84 f4 41  	sub	s1, s1, t6
      fc: c2 96        	add	a3, a3, a6
      fe: 81 e0        	bnez	s1, 0xfe <.LBB0_13+0xe>
     100: 57 95 a4 06  	vfredusum.vs	v10, v10, v9
     104: 57 11 a0 42  	vfmv.f.s	ft2, v10
     108: 57 f0 00 cd  	vsetivli	zero, 1, e32, m1, ta, ma
     10c: 27 e5 07 02  	vse32.v	v10, (a5)
     110: f2 84        	mv	s1, t3
     112: 63 00 03 00  	beqz	t1, 0x112 <.LBB0_13+0x22>

0000000000000116 <.LBB0_15>:
     116: b3 06 95 02  	mul	a3, a0, s1
     11a: ca 96        	add	a3, a3, s2
     11c: 8a 06        	slli	a3, a3, 2
     11e: b2 96        	add	a3, a3, a2
     120: b3 84 95 40  	sub	s1, a1, s1

0000000000000124 <.LBB0_16>:
     124: 87 a1 06 00  	flw	ft3, 0(a3)
     128: 53 71 31 00  	fadd.s	ft2, ft2, ft3
     12c: 27 a0 27 00  	fsw	ft2, 0(a5)
     130: fd 14        	addi	s1, s1, -1
     132: a2 96        	add	a3, a3, s0
     134: 81 e0        	bnez	s1, 0x134 <.LBB0_16+0x10>

0000000000000136 <.LBB0_17>:
     136: 53 71 01 10  	fmul.s	ft2, ft2, ft0
     13a: 27 a0 27 00  	fsw	ft2, 0(a5)
     13e: 05 09        	addi	s2, s2, 1
     140: 11 0f        	addi	t5, t5, 4
     142: 63 10 89 01  	bne	s2, s8, 0x142 <.LBB0_17+0xc>
     146: 63 50 b0 00  	blez	a1, 0x146 <.LBB0_17+0x10>
     14a: 63 50 a0 00  	blez	a0, 0x14a <.LBB0_17+0x14>
     14e: 93 96 05 02  	slli	a3, a1, 32
     152: 93 da 23 00  	srli	s5, t2, 2
     156: 91 47        	li	a5, 4
     158: 93 12 2c 00  	slli	t0, s8, 2
     15c: 56 83        	mv	t1, s5
     15e: 63 e0 57 01  	bltu	a5, s5, 0x15e <.LBB0_17+0x28>
     162: 11 43        	li	t1, 4

0000000000000164 <.LBB0_22>:
     164: 01 49        	li	s2, 0
     166: 01 48        	li	a6, 0
     168: 13 de 06 02  	srli	t3, a3, 32
     16c: b3 0e 57 00  	add	t4, a4, t0
     170: 93 86 fa ff  	addi	a3, s5, -1
     174: 33 7f dc 00  	and	t5, s8, a3
     178: b3 0f ec 41  	sub	t6, s8, t5
     17c: 32 8a        	mv	s4, a2
     17e: 01 a0        	j	0x17e <.LBB0_22+0x1a>

0000000000000180 <.LBB0_23>:
     180: 05 08        	addi	a6, a6, 1
     182: 22 9a        	add	s4, s4, s0
     184: 2a 99        	add	s2, s2, a0
     186: 63 00 c8 01  	beq	a6, t3, 0x186 <.LBB0_23+0x6>

000000000000018a <.LBB0_24>:
     18a: 63 60 6c 00  	bltu	s8, t1, 0x18a <.LBB0_24>
     18e: b3 86 02 03  	mul	a3, t0, a6
     192: b3 87 d2 00  	add	a5, t0, a3
     196: b2 97        	add	a5, a5, a2
     198: b2 96        	add	a3, a3, a2
     19a: b3 b6 d6 01  	sltu	a3, a3, t4
     19e: b3 37 f7 00  	sltu	a5, a4, a5
     1a2: fd 8e        	and	a3, a3, a5
     1a4: 81 c2        	beqz	a3, 0x1a4 <.LBB0_24+0x1a>

00000000000001a6 <.LBB0_26>:
     1a6: 81 46        	li	a3, 0

00000000000001a8 <.LBB0_27>:
     1a8: b3 87 26 01  	add	a5, a3, s2
     1ac: 8a 07        	slli	a5, a5, 2
     1ae: b3 04 f6 00  	add	s1, a2, a5
     1b2: 93 97 26 00  	slli	a5, a3, 2
     1b6: ba 97        	add	a5, a5, a4
     1b8: b3 06 d5 40  	sub	a3, a0, a3

00000000000001bc <.LBB0_28>:
     1bc: 07 a0 07 00  	flw	ft0, 0(a5)
     1c0: 87 a0 04 00  	flw	ft1, 0(s1)
     1c4: 53 f0 00 08  	fsub.s	ft0, ft1, ft0
     1c8: 27 a0 04 00  	fsw	ft0, 0(s1)
     1cc: 91 04        	addi	s1, s1, 4
     1ce: fd 16        	addi	a3, a3, -1
     1d0: 91 07        	addi	a5, a5, 4
     1d2: 81 e2        	bnez	a3, 0x1d2 <.LBB0_28+0x16>
     1d4: 01 a0        	j	0x1d4 <.LBB0_28+0x18>

00000000000001d6 <.LBB0_29>:
     1d6: d7 76 00 0d  	vsetvli	a3, zero, e32, m1, ta, ma
     1da: fe 86        	mv	a3, t6
     1dc: d2 87        	mv	a5, s4
     1de: ba 84        	mv	s1, a4

00000000000001e0 <.LBB0_30>:
     1e0: 07 e4 84 02  	vl1re32.v	v8, (s1)
     1e4: 87 e4 87 02  	vl1re32.v	v9, (a5)
     1e8: 57 14 94 0a  	vfsub.vv	v8, v9, v8
     1ec: 27 84 87 02  	vs1r.v	v8, (a5)
     1f0: 9e 94        	add	s1, s1, t2
     1f2: b3 86 56 41  	sub	a3, a3, s5
     1f6: 9e 97        	add	a5, a5, t2
     1f8: 81 e2        	bnez	a3, 0x1f8 <.LBB0_30+0x18>
     1fa: fe 86        	mv	a3, t6
     1fc: 63 10 0f 00  	bnez	t5, 0x1fc <.LBB0_30+0x1c>
     200: 01 a0        	j	0x200 <.LBB0_30+0x20>

0000000000000202 <.LBB0_32>:
     202: 63 50 a0 00  	blez	a0, 0x202 <.LBB0_32>
     206: 63 50 b0 00  	blez	a1, 0x206 <.LBB0_32+0x4>
     20a: 37 05 00 00  	lui	a0, 0
     20e: 07 20 05 00  	flw	ft0, 0(a0)
     212: 53 70 05 00  	fadd.s	ft0, fa0, ft0
     216: 13 15 2c 00  	slli	a0, s8, 2
     21a: 13 da 23 00  	srli	s4, t2, 2
     21e: a1 46        	li	a3, 8
     220: ae 98        	add	a7, a7, a1
     222: 63 e0 46 01  	bltu	a3, s4, 0x222 <.LBB0_32+0x20>
     226: 21 4a        	li	s4, 8

0000000000000228 <.LBB0_36>:
     228: b7 06 00 00  	lui	a3, 0
     22c: 87 a0 06 00  	flw	ft1, 0(a3)
     230: 01 4d        	li	s10, 0
     232: 93 06 45 00  	addi	a3, a0, 4
     236: 36 e8        	sd	a3, 16(sp)
     238: b3 86 88 03  	mul	a3, a7, s8
     23c: 36 e4        	sd	a3, 8(sp)
     23e: 53 f0 00 18  	fdiv.s	ft0, ft1, ft0
     242: 93 d6 d9 01  	srli	a3, s3, 29
     246: 36 ec        	sd	a3, 24(sp)
     248: 93 d8 e9 01  	srli	a7, s3, 30
     24c: d3 00 00 f0  	fmv.w.x	ft1, zero
     250: d7 76 00 0d  	vsetvli	a3, zero, e32, m1, ta, ma
     254: 57 34 00 5e  	vmv.v.i	v8, 0
     258: d7 64 00 42  	vmv.s.x	v9, zero
     25c: 32 88        	mv	a6, a2
     25e: 01 a0        	j	0x25e <.LBB0_36+0x36>

0000000000000260 <.LBB0_37>:
     260: 05 0d        	addi	s10, s10, 1
     262: 11 08        	addi	a6, a6, 4
     264: 63 00 8d 01  	beq	s10, s8, 0x264 <.LBB0_37+0x4>

0000000000000268 <.LBB0_38>:
     268: 93 1e 2d 00  	slli	t4, s10, 2
     26c: 22 6f        	ld	t5, 8(sp)
     26e: 6a 9f        	add	t5, t5, s10
     270: 0a 0f        	slli	t5, t5, 2
     272: 33 0b d6 01  	add	s6, a2, t4
     276: b3 06 e6 01  	add	a3, a2, t5
     27a: da 8f        	mv	t6, s6
     27c: 63 60 db 00  	bltu	s6, a3, 0x27c <.LBB0_38+0x14>
     280: b6 8f        	mv	t6, a3

0000000000000282 <.LBB0_40>:
     282: 63 e0 66 01  	bltu	a3, s6, 0x282 <.LBB0_40>
     286: 36 8b        	mv	s6, a3

0000000000000288 <.LBB0_42>:
     288: 81 42        	li	t0, 0
     28a: c2 66        	ld	a3, 16(sp)
     28c: b3 89 a6 03  	mul	s3, a3, s10
     290: 93 8a 49 00  	addi	s5, s3, 4
     294: 11 0b        	addi	s6, s6, 4
     296: b3 0b 8d 03  	mul	s7, s10, s8
     29a: c2 8d        	mv	s11, a6
     29c: 6a 87        	mv	a4, s10
     29e: 01 a0        	j	0x29e <.LBB0_42+0x16>

00000000000002a0 <.LBB0_43>:
     2a0: 53 71 01 10  	fmul.s	ft2, ft2, ft0
     2a4: 27 20 24 00  	fsw	ft2, 0(s0)
     2a8: b3 06 87 03  	mul	a3, a4, s8
     2ac: ea 96        	add	a3, a3, s10
     2ae: 8a 06        	slli	a3, a3, 2
     2b0: e6 96        	add	a3, a3, s9
     2b2: 27 a0 26 00  	fsw	ft2, 0(a3)
     2b6: 05 07        	addi	a4, a4, 1
     2b8: 85 02        	addi	t0, t0, 1
     2ba: 91 0d        	addi	s11, s11, 4
     2bc: 63 00 87 01  	beq	a4, s8, 0x2bc <.LBB0_43+0x1c>

00000000000002c0 <.LBB0_44>:
     2c0: 01 43        	li	t1, 0
     2c2: b3 06 77 01  	add	a3, a4, s7
     2c6: 8a 06        	slli	a3, a3, 2
     2c8: 33 84 dc 00  	add	s0, s9, a3
     2cc: 23 20 04 00  	sw	zero, 0(s0)
     2d0: 53 81 10 20  	fmv.s	ft2, ft1
     2d4: 63 e0 45 01  	bltu	a1, s4, 0x2d4 <.LBB0_44+0x14>
     2d8: 13 9e 22 00  	slli	t3, t0, 2
     2dc: b3 87 ce 01  	add	a5, t4, t3
     2e0: b2 97        	add	a5, a5, a2
     2e2: b3 04 cf 01  	add	s1, t5, t3
     2e6: b2 94        	add	s1, s1, a2
     2e8: 3e 83        	mv	t1, a5
     2ea: 63 e0 f4 00  	bltu	s1, a5, 0x2ea <.LBB0_44+0x2a>
     2ee: 26 83        	mv	t1, s1

00000000000002f0 <.LBB0_47>:
     2f0: 63 e0 97 00  	bltu	a5, s1, 0x2f0 <.LBB0_47>
     2f4: a6 87        	mv	a5, s1

00000000000002f6 <.LBB0_49>:
     2f6: 11 03        	addi	t1, t1, 4
     2f8: b3 86 ca 01  	add	a3, s5, t3
     2fc: e6 96        	add	a3, a3, s9
     2fe: 4e 9e        	add	t3, t3, s3
     300: 66 9e        	add	t3, t3, s9
     302: b3 34 6e 00  	sltu	s1, t3, t1
     306: b3 b7 d7 00  	sltu	a5, a5, a3
     30a: e5 8f        	and	a5, a5, s1
     30c: b3 34 6e 01  	sltu	s1, t3, s6
     310: b3 b6 df 00  	sltu	a3, t6, a3
     314: e5 8e        	and	a3, a3, s1
     316: dd 8e        	or	a3, a3, a5
     318: 81 c2        	beqz	a3, 0x318 <.LBB0_49+0x22>
     31a: 01 43        	li	t1, 0
     31c: 53 81 10 20  	fmv.s	ft2, ft1
     320: 01 a0        	j	0x320 <.LBB0_49+0x2a>

0000000000000322 <.LBB0_51>:
     322: 13 d9 23 00  	srli	s2, t2, 2
     326: 93 06 f9 ff  	addi	a3, s2, -1
     32a: b3 f0 d5 00  	and	ra, a1, a3
     32e: 33 83 15 40  	sub	t1, a1, ra
     332: 82 76        	ld	a3, 32(sp)
     334: e2 67        	ld	a5, 24(sp)
     336: b3 86 d7 02  	mul	a3, a5, a3
     33a: d7 77 00 0d  	vsetvli	a5, zero, e32, m1, ta, ma
     33e: ee 84        	mv	s1, s11
     340: 42 8e        	mv	t3, a6
     342: 9a 87        	mv	a5, t1
     344: 57 35 80 9e  	vmv1r.v	v10, v8

0000000000000348 <.LBB0_52>:
     348: 87 65 ae 0a  	vlse32.v	v11, (t3), a0
     34c: 07 e6 a4 0a  	vlse32.v	v12, (s1), a0
     350: 57 15 b6 b2  	vfmacc.vv	v10, v12, v11
     354: b3 87 27 41  	sub	a5, a5, s2
     358: 36 9e        	add	t3, t3, a3
     35a: b6 94        	add	s1, s1, a3
     35c: 81 e3        	bnez	a5, 0x35c <.LBB0_52+0x14>
     35e: 57 95 a4 06  	vfredusum.vs	v10, v10, v9
     362: 57 11 a0 42  	vfmv.f.s	ft2, v10
     366: 57 f0 00 cd  	vsetivli	zero, 1, e32, m1, ta, ma
     36a: 27 65 04 02  	vse32.v	v10, (s0)
     36e: 63 80 00 00  	beqz	ra, 0x36e <.LBB0_52+0x26>

0000000000000372 <.LBB0_54>:
     372: b3 06 6c 02  	mul	a3, s8, t1
     376: b3 07 d7 00  	add	a5, a4, a3
     37a: 8a 07        	slli	a5, a5, 2
     37c: b3 04 f6 00  	add	s1, a2, a5
     380: ea 96        	add	a3, a3, s10
     382: 8a 06        	slli	a3, a3, 2
     384: b2 96        	add	a3, a3, a2
     386: b3 87 65 40  	sub	a5, a1, t1

000000000000038a <.LBB0_55>:
     38a: 87 a1 06 00  	flw	ft3, 0(a3)
     38e: 07 a2 04 00  	flw	ft4, 0(s1)
     392: 43 71 32 10  	fmadd.s	ft2, ft4, ft3, ft2
     396: 27 20 24 00  	fsw	ft2, 0(s0)
     39a: c6 94        	add	s1, s1, a7
     39c: fd 17        	addi	a5, a5, -1
     39e: c6 96        	add	a3, a3, a7
     3a0: 81 e3        	bnez	a5, 0x3a0 <.LBB0_55+0x16>
     3a2: 01 a0        	j	0x3a2 <.LBB0_55+0x18>

00000000000003a4 <.LBB0_56>:
     3a4: 3a 85        	mv	a0, a4
     3a6: 81 45        	li	a1, 0
     3a8: 22 86        	mv	a2, s0
     3aa: 97 00 00 00  	auipc	ra, 0
     3ae: e7 80 00 00  	jalr	ra

00000000000003b2 <.LBB0_57>:
     3b2: 01 45        	li	a0, 0
     3b4: 93 d5 09 02  	srli	a1, s3, 32
     3b8: 93 d6 e9 01  	srli	a3, s3, 30
     3bc: 13 84 46 00  	addi	s0, a3, 4
     3c0: 2e 87        	mv	a4, a1

00000000000003c2 <.LBB0_58>:
     3c2: ba 87        	mv	a5, a4
     3c4: e6 84        	mv	s1, s9
     3c6: 66 86        	mv	a2, s9

00000000000003c8 <.LBB0_59>:
     3c8: 23 a0 04 00  	sw	zero, 0(s1)
     3cc: 23 20 06 00  	sw	zero, 0(a2)
     3d0: 36 96        	add	a2, a2, a3
     3d2: fd 17        	addi	a5, a5, -1
     3d4: 91 04        	addi	s1, s1, 4
     3d6: 81 e3        	bnez	a5, 0x3d6 <.LBB0_59+0xe>
     3d8: 05 05        	addi	a0, a0, 1
     3da: a2 9c        	add	s9, s9, s0
     3dc: 7d 17        	addi	a4, a4, -1
     3de: 63 10 b5 00  	bne	a0, a1, 0x3de <.LBB0_59+0x16>

00000000000003e2 <.LBB0_61>:
     3e2: 73 26 20 c0  	rdinstret	a2
     3e6: 37 05 00 00  	lui	a0, 0
     3ea: 83 35 05 00  	ld	a1, 0(a0)
     3ee: b7 06 00 00  	lui	a3, 0
     3f2: 37 05 00 00  	lui	a0, 0
     3f6: 13 05 05 00  	mv	a0, a0
     3fa: 23 b0 c6 00  	sd	a2, 0(a3)
     3fe: aa 60        	ld	ra, 136(sp)
     400: 0a 64        	ld	s0, 128(sp)
     402: e6 74        	ld	s1, 120(sp)
     404: 46 79        	ld	s2, 112(sp)
     406: a6 79        	ld	s3, 104(sp)
     408: 06 7a        	ld	s4, 96(sp)
     40a: e6 6a        	ld	s5, 88(sp)
     40c: 46 6b        	ld	s6, 80(sp)
     40e: a6 6b        	ld	s7, 72(sp)
     410: 06 6c        	ld	s8, 64(sp)
     412: e2 7c        	ld	s9, 56(sp)
     414: 42 7d        	ld	s10, 48(sp)
     416: a2 7d        	ld	s11, 40(sp)
     418: 49 61        	addi	sp, sp, 144
     41a: 17 03 00 00  	auipc	t1, 0
     41e: 67 00 03 00  	jr	t1
