
kernel.o:     file format elf64-littleriscv


Disassembly of section .text:

0000000000000000 <core>:
   0:	1141                	addi	sp,sp,-16
   2:	e422                	sd	s0,8(sp)
   4:	c02027f3          	rdinstret	a5
   8:	00000f37          	lui	t5,0x0
   c:	00ff3023          	sd	a5,0(t5) # 0 <core>
  10:	10a05163          	blez	a0,112 <.L2>
  14:	fff5029b          	addiw	t0,a0,-1
  18:	02029f93          	slli	t6,t0,0x20
  1c:	01efdf93          	srli	t6,t6,0x1e
  20:	00470e13          	addi	t3,a4,4
  24:	88ba                	mv	a7,a4
  26:	8eb2                	mv	t4,a2
  28:	9ff2                	add	t6,t6,t3
  2a:	00251313          	slli	t1,a0,0x2

000000000000002e <.L5>:
  2e:	0008a023          	sw	zero,0(a7)
  32:	f00007d3          	fmv.w.x	fa5,zero
  36:	00b05e63          	blez	a1,52 <.L3>
  3a:	8876                	mv	a6,t4
  3c:	4781                	li	a5,0

000000000000003e <.L4>:
  3e:	00082707          	flw	fa4,0(a6)
  42:	2785                	addiw	a5,a5,1
  44:	981a                	add	a6,a6,t1
  46:	00e7f7d3          	fadd.s	fa5,fa5,fa4
  4a:	00f8a027          	fsw	fa5,0(a7)
  4e:	fef598e3          	bne	a1,a5,3e <.L4>

0000000000000052 <.L3>:
  52:	18a7f7d3          	fdiv.s	fa5,fa5,fa0
  56:	0891                	addi	a7,a7,4
  58:	0e91                	addi	t4,t4,4
  5a:	fef8ae27          	fsw	fa5,-4(a7)
  5e:	fdf898e3          	bne	a7,t6,2e <.L5>
  62:	02b05b63          	blez	a1,98 <.L7>
  66:	02029893          	slli	a7,t0,0x20
  6a:	01e8d893          	srli	a7,a7,0x1e
  6e:	98f2                	add	a7,a7,t3
  70:	8eb2                	mv	t4,a2
  72:	4e01                	li	t3,0

0000000000000074 <.L13>:
  74:	883a                	mv	a6,a4
  76:	87f6                	mv	a5,t4

0000000000000078 <.L8>:
  78:	0007a787          	flw	fa5,0(a5)
  7c:	00082707          	flw	fa4,0(a6)
  80:	0791                	addi	a5,a5,4
  82:	0811                	addi	a6,a6,4
  84:	08e7f7d3          	fsub.s	fa5,fa5,fa4
  88:	fef7ae27          	fsw	fa5,-4(a5)
  8c:	ff1816e3          	bne	a6,a7,78 <.L8>
  90:	2e05                	addiw	t3,t3,1
  92:	9e9a                	add	t4,t4,t1
  94:	febe40e3          	blt	t3,a1,74 <.L13>

0000000000000098 <.L7>:
  98:	000007b7          	lui	a5,0x0
  9c:	0007a607          	flw	fa2,0(a5) # 0 <core>
  a0:	00150413          	addi	s0,a0,1
  a4:	040a                	slli	s0,s0,0x2
  a6:	08c57653          	fsub.s	fa2,fa0,fa2
  aa:	83b6                	mv	t2,a3
  ac:	8fb2                	mv	t6,a2
  ae:	ffc40893          	addi	a7,s0,-4
  b2:	4301                	li	t1,0
  b4:	4281                	li	t0,0

00000000000000b6 <.L12>:
  b6:	40600833          	neg	a6,t1
  ba:	8e9e                	mv	t4,t2
  bc:	861e                	mv	a2,t2
  be:	8e16                	mv	t3,t0

00000000000000c0 <.L11>:
  c0:	00062023          	sw	zero,0(a2)
  c4:	f00007d3          	fmv.w.x	fa5,zero
  c8:	02b05363          	blez	a1,ee <.L9>
  cc:	87fe                	mv	a5,t6
  ce:	4681                	li	a3,0

00000000000000d0 <.L10>:
  d0:	00f30733          	add	a4,t1,a5
  d4:	9742                	add	a4,a4,a6
  d6:	0007a687          	flw	fa3,0(a5)
  da:	00072707          	flw	fa4,0(a4)
  de:	2685                	addiw	a3,a3,1
  e0:	97c6                	add	a5,a5,a7
  e2:	78e6f7c3          	fmadd.s	fa5,fa3,fa4,fa5
  e6:	00f62027          	fsw	fa5,0(a2)
  ea:	fed593e3          	bne	a1,a3,d0 <.L10>

00000000000000ee <.L9>:
  ee:	18c7f7d3          	fdiv.s	fa5,fa5,fa2
  f2:	0611                	addi	a2,a2,4
  f4:	2e05                	addiw	t3,t3,1
  f6:	0811                	addi	a6,a6,4
  f8:	fef62e27          	fsw	fa5,-4(a2)
  fc:	00fea027          	fsw	fa5,0(t4)
 100:	9ec6                	add	t4,t4,a7
 102:	faae4fe3          	blt	t3,a0,c0 <.L11>
 106:	2285                	addiw	t0,t0,1
 108:	93a2                	add	t2,t2,s0
 10a:	0f91                	addi	t6,t6,4
 10c:	1371                	addi	t1,t1,-4
 10e:	fa5514e3          	bne	a0,t0,b6 <.L12>

0000000000000112 <.L2>:
 112:	c02027f3          	rdinstret	a5
 116:	6422                	ld	s0,8(sp)
 118:	000f3583          	ld	a1,0(t5)
 11c:	00000737          	lui	a4,0x0
 120:	00000537          	lui	a0,0x0
 124:	00f73023          	sd	a5,0(a4) # 0 <core>
 128:	863e                	mv	a2,a5
 12a:	00050513          	mv	a0,a0
 12e:	0141                	addi	sp,sp,16
 130:	00000317          	auipc	t1,0x0
 134:	00030067          	jr	t1 # 130 <.L2+0x1e>
