
kernel.o:     file format elf64-littleriscv


Disassembly of section .text:

0000000000000000 <core>:
   0:	000007b7          	lui	a5,0x0
   4:	0007a787          	flw	fa5,0(a5) # 0 <core>
   8:	4805                	li	a6,1
   a:	e0050e53          	fmv.x.w	t3,fa0
   e:	08f577d3          	fsub.s	fa5,fa0,fa5
  12:	e00787d3          	fmv.x.w	a5,fa5
  16:	c02028f3          	rdinstret	a7
  1a:	84a6608b          	ss.sta.ld.w	u1,a2,a0,a6
  1e:	52b0008b          	ss.end	u1,zero,a1,a0
  22:	0000108b          	ss.cfg.vec	u1
  26:	86a7210b          	ss.st.w	u2,a4,a0,a6
  2a:	a98e21ab          	so.v.mvsv.w	u3,t3

000000000000002e <.SLOOP_116>:
  2e:	a980222b          	so.v.mvsv.w	u4,zero

0000000000000032 <.SLOOP_1_016>:
  32:	2010922b          	so.a.adde.acc.fp	u4,u1,p0
  36:	ffe08eab          	so.b.ndc.1	u1,32 <.SLOOP_1_016>
  3a:	1032512b          	so.a.div.fp	u2,u4,u3,p0
  3e:	fff0e8ab          	so.b.nc	u1,2e <.SLOOP_116>
  42:	54b6208b          	ss.sta.st.w	u1,a2,a1,a0
  46:	82a0008b          	ss.end	u1,zero,a0,a6
  4a:	0000108b          	ss.cfg.vec	u1
  4e:	04b7610b          	ss.sta.ld.w	u2,a4,a1,zero
  52:	82a0010b          	ss.end	u2,zero,a0,a6
  56:	0000110b          	ss.cfg.vec	u2
  5a:	54b6618b          	ss.sta.ld.w	u3,a2,a1,a0
  5e:	82a0018b          	ss.end	u3,zero,a0,a6
  62:	0000118b          	ss.cfg.vec	u3

0000000000000066 <.SLOOP_216>:
  66:	0021d0ab          	so.a.sub.fp	u1,u3,u2,p0
  6a:	fff0eeab          	so.b.nc	u1,66 <.SLOOP_216>
  6e:	84a6608b          	ss.sta.ld.w	u1,a2,a0,a6
  72:	8045408b          	ss.app.mod.siz.dec	u1,a0,a6
  76:	80a0008b          	ss.app	u1,zero,a0,a6
  7a:	52b0008b          	ss.end	u1,zero,a1,a0
  7e:	0000108b          	ss.cfg.vec	u1
  82:	84a6610b          	ss.sta.ld.w	u2,a2,a0,a6
  86:	8045410b          	ss.app.mod.siz.dec	u2,a0,a6
  8a:	00a0010b          	ss.app	u2,zero,a0,zero
  8e:	52b0010b          	ss.end	u2,zero,a1,a0
  92:	0000110b          	ss.cfg.vec	u2
  96:	54a6a18b          	ss.sta.st.w	u3,a3,a0,a0
  9a:	8025418b          	ss.app.mod.ofs.inc	u3,a0,a6
  9e:	8045418b          	ss.app.mod.siz.dec	u3,a0,a6
  a2:	82a0018b          	ss.end	u3,zero,a0,a6
  a6:	84a6a20b          	ss.sta.st.w	u4,a3,a0,a6
  aa:	5025420b          	ss.app.mod.ofs.inc	u4,a0,a0
  ae:	8045420b          	ss.app.mod.siz.dec	u4,a0,a6
  b2:	52a0020b          	ss.end	u4,zero,a0,a0
  b6:	a987a2ab          	so.v.mvsv.w	u5,a5

00000000000000ba <.SLOOP_316>:
  ba:	ac00232b          	so.v.dp.w	u6,zero,p0

00000000000000be <.SLOOP_3_0_016>:
  be:	101113ab          	so.a.mul.fp	u7,u2,u1,p0
  c2:	0073132b          	so.a.add.fp	u6,u6,u7,p0
  c6:	ffe10cab          	so.b.ndc.1	u2,be <.SLOOP_3_0_016>
  ca:	200313ab          	so.a.adde.fp	u7,u6,p0
  ce:	1053d42b          	so.a.div.fp	u8,u7,u5,p0
  d2:	a80401ab          	so.v.mv	u3,u8,p0
  d6:	a804022b          	so.v.mv	u4,u8,p0
  da:	fff0e0ab          	so.b.nc	u1,ba <.SLOOP_316>
  de:	c0202373          	rdinstret	t1
  e2:	000007b7          	lui	a5,0x0
  e6:	00000537          	lui	a0,0x0
  ea:	0117b023          	sd	a7,0(a5) # 0 <core>
  ee:	861a                	mv	a2,t1
  f0:	000007b7          	lui	a5,0x0
  f4:	85c6                	mv	a1,a7
  f6:	00050513          	mv	a0,a0
  fa:	0067b023          	sd	t1,0(a5) # 0 <core>
  fe:	00000317          	auipc	t1,0x0
 102:	00030067          	jr	t1 # fe <.SLOOP_3_0_016+0x40>
