
kernel.o:	file format elf64-littleriscv

Disassembly of section .text:

0000000000000000 <core>:
       0: 7179         	addi	sp, sp, -0x30
       2: f422         	sd	s0, 0x28(sp)
       4: f026         	sd	s1, 0x20(sp)
       6: ec4a         	sd	s2, 0x18(sp)
       8: e84e         	sd	s3, 0x10(sp)
       a: e452         	sd	s4, 0x8(sp)
       c: e056         	sd	s5, 0x0(sp)
       e: 4301         	li	t1, 0x0
      10: c0202673     	rdinstret	a2
      14: 000006b7     	lui	a3, 0x0
      18: 00c6b023     	sd	a2, 0x0(a3)
      1c: 20858a13     	addi	s4, a1, 0x208
      20: 6621         	lui	a2, 0x8
      22: df86069b     	addiw	a3, a2, -0x208
      26: 96ae         	add	a3, a3, a1
      28: 00850793     	addi	a5, a0, 0x8
      2c: 3661         	addiw	a2, a2, -0x8
      2e: 962a         	add	a2, a2, a0
      30: c2202773     	csrr	a4, vlenb
      34: 00375893     	srli	a7, a4, 0x3
      38: 00ca3633     	sltu	a2, s4, a2
      3c: 00d7b6b3     	sltu	a3, a5, a3
      40: 8e75         	and	a2, a2, a3
      42: 00171793     	slli	a5, a4, 0x1
      46: 411006bb     	negw	a3, a7
      4a: 8af9         	andi	a3, a3, 0x1e
      4c: 00169293     	slli	t0, a3, 0x1
      50: 8309         	srli	a4, a4, 0x2
      52: 40050393     	addi	t2, a0, 0x400
      56: 4985         	li	s3, 0x1
      58: 04000e13     	li	t3, 0x40
      5c: 0208b813     	sltiu	a6, a7, 0x20
      60: 00164613     	xori	a2, a2, 0x1
      64: 000006b7     	lui	a3, 0x0
      68: 0006b787     	fld	fa5, 0x0(a3)
      6c: 00c87eb3     	and	t4, a6, a2
      70: 03f00f13     	li	t5, 0x3f
      74: 03e00f93     	li	t6, 0x3e
      78: a001         	j	0x78 <core+0x78>
      7a: 0985         	addi	s3, s3, 0x1
      7c: 20030313     	addi	t1, t1, 0x200
      80: 20038393     	addi	t2, t2, 0x200
      84: 040e0e13     	addi	t3, t3, 0x40
      88: 01e98063     	beq	s3, t5, 0x88 <core+0x88>
      8c: 4905         	li	s2, 0x1
      8e: 000e8063     	beqz	t4, 0x8e <core+0x8e>
      92: 00189613     	slli	a2, a7, 0x1
      96: 40c0063b     	negw	a2, a2
      9a: 03c67a93     	andi	s5, a2, 0x3c
      9e: 001a8913     	addi	s2, s5, 0x1
      a2: 8416         	mv	s0, t0
      a4: 869a         	mv	a3, t1
      a6: 0d907657     	vsetvli	a2, zero, e64, m2, ta, ma
      aa: 00d50633     	add	a2, a0, a3
      ae: 20860493     	addi	s1, a2, 0x208
      b2: 2284f407     	vl2re64.v	v8, (s1)
      b6: 20060493     	addi	s1, a2, 0x200
      ba: 2284f507     	vl2re64.v	v10, (s1)
      be: 21060493     	addi	s1, a2, 0x210
      c2: 2284f607     	vl2re64.v	v12, (s1)
      c6: 40860493     	addi	s1, a2, 0x408
      ca: 2284f707     	vl2re64.v	v14, (s1)
      ce: 0621         	addi	a2, a2, 0x8
      d0: 22867807     	vl2re64.v	v16, (a2)
      d4: 02a41457     	vfadd.vv	v8, v10, v8
      d8: 02861457     	vfadd.vv	v8, v8, v12
      dc: 02871457     	vfadd.vv	v8, v8, v14
      e0: 02881457     	vfadd.vv	v8, v8, v16
      e4: 9287d457     	vfmul.vf	v8, v8, fa5
      e8: 00da0633     	add	a2, s4, a3
      ec: 22860427     	vs2r.v	v8, (a2)
      f0: 8c19         	sub	s0, s0, a4
      f2: 96be         	add	a3, a3, a5
      f4: e001         	bnez	s0, 0xf4 <core+0xf4>
      f6: 01fa8063     	beq	s5, t6, 0xf6 <core+0xf6>
      fa: 00a30633     	add	a2, t1, a0
      fe: 5f860493     	addi	s1, a2, 0x5f8
     102: 00391413     	slli	s0, s2, 0x3
     106: 941e         	add	s0, s0, t2
     108: 9972         	add	s2, s2, t3
     10a: 00391613     	slli	a2, s2, 0x3
     10e: 00c586b3     	add	a3, a1, a2
     112: 962a         	add	a2, a2, a0
     114: 2218         	fld	fa4, 0x0(a2)
     116: ff863687     	fld	fa3, -0x8(a2)
     11a: 2610         	fld	fa2, 0x8(a2)
     11c: 200c         	fld	fa1, 0x0(s0)
     11e: 02e6f753     	fadd.d	fa4, fa3, fa4
     122: c0043687     	fld	fa3, -0x400(s0)
     126: 02b67653     	fadd.d	fa2, fa2, fa1
     12a: 0621         	addi	a2, a2, 0x8
     12c: 02c77753     	fadd.d	fa4, fa4, fa2
     130: 02d77753     	fadd.d	fa4, fa4, fa3
     134: 12f77753     	fmul.d	fa4, fa4, fa5
     138: a298         	fsd	fa4, 0x0(a3)
     13a: 0421         	addi	s0, s0, 0x8
     13c: 06a1         	addi	a3, a3, 0x8
     13e: 00941063     	bne	s0, s1, 0x13e <core+0x13e>
     142: a001         	j	0x142 <core+0x142>
     144: 4301         	li	t1, 0x0
     146: 20850993     	addi	s3, a0, 0x208
     14a: 6621         	lui	a2, 0x8
     14c: df86069b     	addiw	a3, a2, -0x208
     150: 96aa         	add	a3, a3, a0
     152: 00858493     	addi	s1, a1, 0x8
     156: 3661         	addiw	a2, a2, -0x8
     158: 962e         	add	a2, a2, a1
     15a: 00c9b633     	sltu	a2, s3, a2
     15e: 00d4b6b3     	sltu	a3, s1, a3
     162: 8e75         	and	a2, a2, a3
     164: 411006bb     	negw	a3, a7
     168: 8af9         	andi	a3, a3, 0x1e
     16a: 00169293     	slli	t0, a3, 0x1
     16e: 40058393     	addi	t2, a1, 0x400
     172: 4905         	li	s2, 0x1
     174: 04000e13     	li	t3, 0x40
     178: 00164613     	xori	a2, a2, 0x1
     17c: 000006b7     	lui	a3, 0x0
     180: 0006b787     	fld	fa5, 0x0(a3)
     184: 00c87833     	and	a6, a6, a2
     188: 03f00e93     	li	t4, 0x3f
     18c: 03e00f13     	li	t5, 0x3e
     190: a001         	j	0x190 <core+0x190>
     192: 0905         	addi	s2, s2, 0x1
     194: 20030313     	addi	t1, t1, 0x200
     198: 20038393     	addi	t2, t2, 0x200
     19c: 040e0e13     	addi	t3, t3, 0x40
     1a0: 01d90063     	beq	s2, t4, 0x1a0 <core+0x1a0>
     1a4: 4f85         	li	t6, 0x1
     1a6: 00080063     	beqz	a6, 0x1a6 <core+0x1a6>
     1aa: 00189613     	slli	a2, a7, 0x1
     1ae: 40c0063b     	negw	a2, a2
     1b2: 03c67a13     	andi	s4, a2, 0x3c
     1b6: 001a0f93     	addi	t6, s4, 0x1
     1ba: 8416         	mv	s0, t0
     1bc: 861a         	mv	a2, t1
     1be: 0d9076d7     	vsetvli	a3, zero, e64, m2, ta, ma
     1c2: 00c586b3     	add	a3, a1, a2
     1c6: 20868493     	addi	s1, a3, 0x208
     1ca: 2284f407     	vl2re64.v	v8, (s1)
     1ce: 20068493     	addi	s1, a3, 0x200
     1d2: 2284f507     	vl2re64.v	v10, (s1)
     1d6: 21068493     	addi	s1, a3, 0x210
     1da: 2284f607     	vl2re64.v	v12, (s1)
     1de: 40868493     	addi	s1, a3, 0x408
     1e2: 2284f707     	vl2re64.v	v14, (s1)
     1e6: 06a1         	addi	a3, a3, 0x8
     1e8: 2286f807     	vl2re64.v	v16, (a3)
     1ec: 02a41457     	vfadd.vv	v8, v10, v8
     1f0: 02861457     	vfadd.vv	v8, v8, v12
     1f4: 02871457     	vfadd.vv	v8, v8, v14
     1f8: 02881457     	vfadd.vv	v8, v8, v16
     1fc: 9287d457     	vfmul.vf	v8, v8, fa5
     200: 00c986b3     	add	a3, s3, a2
     204: 22868427     	vs2r.v	v8, (a3)
     208: 8c19         	sub	s0, s0, a4
     20a: 963e         	add	a2, a2, a5
     20c: e001         	bnez	s0, 0x20c <core+0x20c>
     20e: 01ea0063     	beq	s4, t5, 0x20e <core+0x20e>
     212: 00b30633     	add	a2, t1, a1
     216: 5f860493     	addi	s1, a2, 0x5f8
     21a: 003f9413     	slli	s0, t6, 0x3
     21e: 941e         	add	s0, s0, t2
     220: 9ff2         	add	t6, t6, t3
     222: 003f9693     	slli	a3, t6, 0x3
     226: 00d50633     	add	a2, a0, a3
     22a: 96ae         	add	a3, a3, a1
     22c: 2298         	fld	fa4, 0x0(a3)
     22e: ff86b687     	fld	fa3, -0x8(a3)
     232: 2690         	fld	fa2, 0x8(a3)
     234: 200c         	fld	fa1, 0x0(s0)
     236: 02e6f753     	fadd.d	fa4, fa3, fa4
     23a: c0043687     	fld	fa3, -0x400(s0)
     23e: 02b67653     	fadd.d	fa2, fa2, fa1
     242: 06a1         	addi	a3, a3, 0x8
     244: 02c77753     	fadd.d	fa4, fa4, fa2
     248: 02d77753     	fadd.d	fa4, fa4, fa3
     24c: 12f77753     	fmul.d	fa4, fa4, fa5
     250: a218         	fsd	fa4, 0x0(a2)
     252: 0421         	addi	s0, s0, 0x8
     254: 0621         	addi	a2, a2, 0x8
     256: 00941063     	bne	s0, s1, 0x256 <core+0x256>
     25a: a001         	j	0x25a <core+0x25a>
     25c: c0202673     	rdinstret	a2
     260: 00000537     	lui	a0, 0x0
     264: 00053583     	ld	a1, 0x0(a0)
     268: 000006b7     	lui	a3, 0x0
     26c: 00000537     	lui	a0, 0x0
     270: 00050513     	mv	a0, a0
     274: 00c6b023     	sd	a2, 0x0(a3)
     278: 7422         	ld	s0, 0x28(sp)
     27a: 7482         	ld	s1, 0x20(sp)
     27c: 6962         	ld	s2, 0x18(sp)
     27e: 69c2         	ld	s3, 0x10(sp)
     280: 6a22         	ld	s4, 0x8(sp)
     282: 6a82         	ld	s5, 0x0(sp)
     284: 6145         	addi	sp, sp, 0x30
     286: 00000317     	auipc	t1, 0x0
     28a: 00030067     	jr	t1 <core+0x286>
