
kernel.o:     file format elf64-littleriscv


Disassembly of section .text:

0000000000000000 <core>:
   0:	000006b7          	lui	a3,0x0
   4:	0006a787          	flw	fa5,0(a3) # 0 <core>
   8:	1141                	addi	sp,sp,-16
   a:	e422                	sd	s0,8(sp)
   c:	02c50793          	addi	a5,a0,44
  10:	02c58713          	addi	a4,a1,44
  14:	02850613          	addi	a2,a0,40
  18:	03050893          	addi	a7,a0,48
  1c:	05450313          	addi	t1,a0,84
  20:	02858e13          	addi	t3,a1,40
  24:	03058e93          	addi	t4,a1,48
  28:	05458f13          	addi	t5,a1,84
  2c:	0511                	addi	a0,a0,4
  2e:	0591                	addi	a1,a1,4
  30:	4fa1                	li	t6,8
  32:	42a9                	li	t0,10
  34:	4385                	li	t2,1
  36:	e0078453          	fmv.x.w	s0,fa5
  3a:	c0202873          	rdinstret	a6
  3e:	2df7e08b          	ss.sta.ld.w	u1,a5,t6,t0
  42:	0000108b          	ss.cfg.vec	u1
  46:	3bf0008b          	ss.end	u1,zero,t6,t2
  4a:	2df6610b          	ss.sta.ld.w	u2,a2,t6,t0
  4e:	0000110b          	ss.cfg.vec	u2
  52:	3bf0010b          	ss.end	u2,zero,t6,t2
  56:	2df8e18b          	ss.sta.ld.w	u3,a7,t6,t0
  5a:	0000118b          	ss.cfg.vec	u3
  5e:	3bf0018b          	ss.end	u3,zero,t6,t2
  62:	2df3620b          	ss.sta.ld.w	u4,t1,t6,t0
  66:	0000120b          	ss.cfg.vec	u4
  6a:	3bf0020b          	ss.end	u4,zero,t6,t2
  6e:	2df5628b          	ss.sta.ld.w	u5,a0,t6,t0
  72:	0000128b          	ss.cfg.vec	u5
  76:	3bf0028b          	ss.end	u5,zero,t6,t2
  7a:	2df7230b          	ss.sta.st.w	u6,a4,t6,t0
  7e:	0000130b          	ss.cfg.vec	u6
  82:	3bf0030b          	ss.end	u6,zero,t6,t2
  86:	ac0423ab          	so.v.dp.w	u7,s0,p0

000000000000008a <.loop_123>:
  8a:	0020942b          	so.a.add.fp	u8,u1,u2,p0
  8e:	004194ab          	so.a.add.fp	u9,u3,u4,p0
  92:	0054152b          	so.a.add.fp	u10,u8,u5,p0
  96:	009515ab          	so.a.add.fp	u11,u10,u9,p0
  9a:	1075932b          	so.a.mul.fp	u6,u11,u7,p0
  9e:	fff0e6ab          	so.b.nc	u1,8a <.loop_123>
  a2:	2df7608b          	ss.sta.ld.w	u1,a4,t6,t0
  a6:	0000108b          	ss.cfg.vec	u1
  aa:	3bf0008b          	ss.end	u1,zero,t6,t2
  ae:	2dfe610b          	ss.sta.ld.w	u2,t3,t6,t0
  b2:	0000110b          	ss.cfg.vec	u2
  b6:	3bf0010b          	ss.end	u2,zero,t6,t2
  ba:	2dfee18b          	ss.sta.ld.w	u3,t4,t6,t0
  be:	0000118b          	ss.cfg.vec	u3
  c2:	3bf0018b          	ss.end	u3,zero,t6,t2
  c6:	2dff620b          	ss.sta.ld.w	u4,t5,t6,t0
  ca:	0000120b          	ss.cfg.vec	u4
  ce:	3bf0020b          	ss.end	u4,zero,t6,t2
  d2:	2df5e28b          	ss.sta.ld.w	u5,a1,t6,t0
  d6:	0000128b          	ss.cfg.vec	u5
  da:	3bf0028b          	ss.end	u5,zero,t6,t2
  de:	2df7a30b          	ss.sta.st.w	u6,a5,t6,t0
  e2:	0000130b          	ss.cfg.vec	u6
  e6:	3bf0030b          	ss.end	u6,zero,t6,t2

00000000000000ea <.loop_223>:
  ea:	0020942b          	so.a.add.fp	u8,u1,u2,p0
  ee:	004194ab          	so.a.add.fp	u9,u3,u4,p0
  f2:	0054152b          	so.a.add.fp	u10,u8,u5,p0
  f6:	009515ab          	so.a.add.fp	u11,u10,u9,p0
  fa:	1075932b          	so.a.mul.fp	u6,u11,u7,p0
  fe:	fff0e6ab          	so.b.nc	u1,ea <.loop_223>
 102:	c02026f3          	rdinstret	a3
 106:	000007b7          	lui	a5,0x0
 10a:	6422                	ld	s0,8(sp)
 10c:	0107b023          	sd	a6,0(a5) # 0 <core>
 110:	000007b7          	lui	a5,0x0
 114:	00000537          	lui	a0,0x0
 118:	00d7b023          	sd	a3,0(a5) # 0 <core>
 11c:	8636                	mv	a2,a3
 11e:	85c2                	mv	a1,a6
 120:	00050513          	mv	a0,a0
 124:	0141                	addi	sp,sp,16
 126:	00000317          	auipc	t1,0x0
 12a:	00030067          	jr	t1 # 126 <.loop_223+0x3c>
