
kernel.o:	file format elf64-littleriscv

Disassembly of section .text:

0000000000000000 <.text>:
       0: 01 00        	nop

0000000000000002 <core>:
       2: 79 71        	addi	sp, sp, -48
       4: 22 f4        	sd	s0, 40(sp)
       6: 26 f0        	sd	s1, 32(sp)
       8: 4a ec        	sd	s2, 24(sp)
       a: 4e e8        	sd	s3, 16(sp)
       c: 52 e4        	sd	s4, 8(sp)
       e: 42 73        	ld	t1, 48(sp)
      10: f3 24 20 c0  	rdinstret	s1
      14: b7 02 00 00  	lui	t0, 0
      18: 23 b0 92 00  	sd	s1, 0(t0)
      1c: 81 c3        	beqz	a5, 0x1c <core+0x1a>
      1e: 01 4e        	li	t3, 0
      20: 93 13 38 00  	slli	t2, a6, 3
      24: 93 9e 38 00  	slli	t4, a7, 3
      28: 01 a0        	j	0x28 <core+0x26>

000000000000002a <.LBB0_2>:
      2a: 05 0e        	addi	t3, t3, 1
      2c: 76 95        	add	a0, a0, t4
      2e: 63 00 fe 00  	beq	t3, a5, 0x2e <.LBB0_2+0x4>

0000000000000032 <.LBB0_3>:
      32: 63 00 08 00  	beqz	a6, 0x32 <.LBB0_3>
      36: 01 4f        	li	t5, 0
      38: b3 0f 0e 03  	mul	t6, t3, a6
      3c: 2e 89        	mv	s2, a1
      3e: 01 a0        	j	0x3e <.LBB0_3+0xc>

0000000000000040 <.LBB0_5>:
      40: 05 0f        	addi	t5, t5, 1
      42: 21 09        	addi	s2, s2, 8
      44: 63 00 0f 01  	beq	t5, a6, 0x44 <.LBB0_5+0x4>

0000000000000048 <.LBB0_6>:
      48: 63 80 08 00  	beqz	a7, 0x48 <.LBB0_6>
      4c: 33 04 ff 01  	add	s0, t5, t6
      50: 0e 04        	slli	s0, s0, 3
      52: b3 09 87 00  	add	s3, a4, s0
      56: 07 b0 09 00  	fld	ft0, 0(s3)
      5a: 46 8a        	mv	s4, a7
      5c: aa 84        	mv	s1, a0
      5e: 4a 84        	mv	s0, s2

0000000000000060 <.LBB0_8>:
      60: 87 b0 04 00  	fld	ft1, 0(s1)
      64: 07 31 04 00  	fld	ft2, 0(s0)
      68: d3 f0 a0 12  	fmul.d	ft1, ft1, fa0
      6c: 43 f0 20 02  	fmadd.d	ft0, ft1, ft2, ft0
      70: 27 b0 09 00  	fsd	ft0, 0(s3)
      74: 1e 94        	add	s0, s0, t2
      76: 7d 1a        	addi	s4, s4, -1
      78: a1 04        	addi	s1, s1, 8
      7a: 63 10 0a 00  	bnez	s4, 0x7a <.LBB0_8+0x1a>
      7e: 01 a0        	j	0x7e <.LBB0_8+0x1e>

0000000000000080 <.LBB0_9>:
      80: 81 c3        	beqz	a5, 0x80 <.LBB0_9>
      82: 81 48        	li	a7, 0
      84: 93 9f 37 00  	slli	t6, a5, 3
      88: 01 a0        	j	0x88 <.LBB0_9+0x8>

000000000000008a <.LBB0_11>:
      8a: 85 08        	addi	a7, a7, 1
      8c: 1e 97        	add	a4, a4, t2
      8e: 63 80 f8 00  	beq	a7, a5, 0x8e <.LBB0_11+0x4>

0000000000000092 <.LBB0_12>:
      92: 63 00 03 00  	beqz	t1, 0x92 <.LBB0_12>
      96: 01 4f        	li	t5, 0
      98: 33 8e 68 02  	mul	t3, a7, t1
      9c: b2 8e        	mv	t4, a2
      9e: 01 a0        	j	0x9e <.LBB0_12+0xc>

00000000000000a0 <.LBB0_14>:
      a0: 05 0f        	addi	t5, t5, 1
      a2: a1 0e        	addi	t4, t4, 8
      a4: 63 00 6f 00  	beq	t5, t1, 0xa4 <.LBB0_14+0x4>

00000000000000a8 <.LBB0_15>:
      a8: 33 05 cf 01  	add	a0, t5, t3
      ac: 0e 05        	slli	a0, a0, 3
      ae: 33 84 a6 00  	add	s0, a3, a0
      b2: 07 30 04 00  	fld	ft0, 0(s0)
      b6: 53 70 b0 12  	fmul.d	ft0, ft0, fa1
      ba: 27 30 04 00  	fsd	ft0, 0(s0)
      be: 63 00 08 00  	beqz	a6, 0xbe <.LBB0_15+0x16>
      c2: c2 84        	mv	s1, a6
      c4: 3a 85        	mv	a0, a4
      c6: f6 85        	mv	a1, t4

00000000000000c8 <.LBB0_17>:
      c8: 87 30 05 00  	fld	ft1, 0(a0)
      cc: 07 b1 05 00  	fld	ft2, 0(a1)
      d0: 43 f0 20 02  	fmadd.d	ft0, ft1, ft2, ft0
      d4: 27 30 04 00  	fsd	ft0, 0(s0)
      d8: fe 95        	add	a1, a1, t6
      da: fd 14        	addi	s1, s1, -1
      dc: 21 05        	addi	a0, a0, 8
      de: 81 e0        	bnez	s1, 0xde <.LBB0_17+0x16>
      e0: 01 a0        	j	0xe0 <.LBB0_17+0x18>

00000000000000e2 <.LBB0_18>:
      e2: 73 26 20 c0  	rdinstret	a2
      e6: 83 b5 02 00  	ld	a1, 0(t0)
      ea: b7 06 00 00  	lui	a3, 0
      ee: 37 05 00 00  	lui	a0, 0
      f2: 13 05 05 00  	mv	a0, a0
      f6: 23 b0 c6 00  	sd	a2, 0(a3)
      fa: 22 74        	ld	s0, 40(sp)
      fc: 82 74        	ld	s1, 32(sp)
      fe: 62 69        	ld	s2, 24(sp)
     100: c2 69        	ld	s3, 16(sp)
     102: 22 6a        	ld	s4, 8(sp)
     104: 45 61        	addi	sp, sp, 48
     106: 17 03 00 00  	auipc	t1, 0
     10a: 67 00 03 00  	jr	t1
