
kernel.o:     file format elf64-littleriscv


Disassembly of section .text:

0000000000000000 <core>:
   0:	4805                	li	a6,1
   2:	e2050e53          	fmv.x.d	t3,fa0
   6:	e2058ed3          	fmv.x.d	t4,fa1
   a:	c02028f3          	rdinstret	a7
   e:	4005308b          	ss.sta.st.d.v.1	u1,a0
  12:	72d0008b          	ss.app	u1,zero,a3,a4
  16:	84e0008b          	ss.end	u1,zero,a4,a6
  1a:	4005718b          	ss.sta.ld.d.v.1	u3,a0
  1e:	72d0018b          	ss.app	u3,zero,a3,a4
  22:	84e0018b          	ss.end	u3,zero,a4,a6
  26:	4005328b          	ss.sta.st.d.v.1	u5,a0
  2a:	72d0028b          	ss.app	u5,zero,a3,a4
  2e:	02f0028b          	ss.app	u5,zero,a5,zero
  32:	84e0028b          	ss.end	u5,zero,a4,a6
  36:	4005760b          	ss.sta.ld.d.v.1	u12,a0
  3a:	72d0060b          	ss.app	u12,zero,a3,a4
  3e:	02f0060b          	ss.app	u12,zero,a5,zero
  42:	84e0060b          	ss.end	u12,zero,a4,a6
  46:	4006758b          	ss.sta.ld.d.v.1	u11,a2
  4a:	02d0058b          	ss.app	u11,zero,a3,zero
  4e:	74f0058b          	ss.end	u11,zero,a5,a4
  52:	82e0058b          	ss.app	u11,zero,a4,a6
  56:	4005f48b          	ss.sta.ld.d.v.1	u9,a1
  5a:	7ad0048b          	ss.app	u9,zero,a3,a5
  5e:	82f0048b          	ss.app	u9,zero,a5,a6
  62:	04e0048b          	ss.end	u9,zero,a4,zero
  66:	ac0eb22b          	so.v.dp.d	u4,t4,p0
  6a:	ac0e352b          	so.v.dp.d	u10,t3,p0

000000000000006e <.SLOOP_116>:
  6e:	104190ab          	so.a.mul.fp	u1,u3,u4,p0
  72:	ffd08eab          	so.b.ndc.1	u1,6e <.SLOOP_116>

0000000000000076 <.SLOOP_1_116>:
  76:	10a4942b          	so.a.mul.fp	u8,u9,u10,p0
  7a:	10b413ab          	so.a.mul.fp	u7,u8,u11,p0
  7e:	00c392ab          	so.a.add.fp	u5,u7,u12,p0
  82:	ffd29aab          	so.b.ndc.2	u5,76 <.SLOOP_1_116>
  86:	ffd0f4ab          	so.b.nc	u1,6e <.SLOOP_116>
  8a:	c0202373          	rdinstret	t1
  8e:	00000537          	lui	a0,0x0
  92:	000006b7          	lui	a3,0x0
  96:	00000737          	lui	a4,0x0
  9a:	861a                	mv	a2,t1
  9c:	85c6                	mv	a1,a7
  9e:	00050513          	mv	a0,a0
  a2:	0116b023          	sd	a7,0(a3) # 0 <core>
  a6:	00673023          	sd	t1,0(a4) # 0 <core>
  aa:	00000317          	auipc	t1,0x0
  ae:	00030067          	jr	t1 # aa <.SLOOP_1_116+0x34>
