
kernel.o:     file format elf64-littleriscv


Disassembly of section .text:

0000000000000000 <core>:
   0:	4305                	li	t1,1
   2:	c0202e73          	rdinstret	t3
   6:	84f6108b          	ss.sta.st.h	u1,a2,a5,a6
   a:	3300008b          	ss.end	u1,zero,a6,t1
   e:	0000108b          	ss.cfg.vec	u1
  12:	84f6518b          	ss.sta.ld.h	u3,a2,a5,a6
  16:	3300018b          	ss.end	u3,zero,a6,t1
  1a:	0000118b          	ss.cfg.vec	u3
  1e:	84f6128b          	ss.sta.st.h	u5,a2,a5,a6
  22:	0110028b          	ss.app	u5,zero,a7,zero
  26:	3300028b          	ss.end	u5,zero,a6,t1
  2a:	0000128b          	ss.cfg.vec	u5
  2e:	84f6560b          	ss.sta.ld.h	u12,a2,a5,a6
  32:	0110060b          	ss.app	u12,zero,a7,zero
  36:	3300060b          	ss.end	u12,zero,a6,t1
  3a:	0000160b          	ss.cfg.vec	u12
  3e:	04f7558b          	ss.sta.ld.h	u11,a4,a5,zero
  42:	8310058b          	ss.end	u11,zero,a7,a6
  46:	3100058b          	ss.app	u11,zero,a6,t1
  4a:	0000158b          	ss.cfg.vec	u11
  4e:	8cf6d48b          	ss.sta.ld.h	u9,a3,a5,a7
  52:	3110048b          	ss.app	u9,zero,a7,t1
  56:	0300048b          	ss.end	u9,zero,a6,zero
  5a:	0000148b          	ss.cfg.vec	u9
  5e:	ac05922b          	so.v.dp.h	u4,a1,p0
  62:	ac05152b          	so.v.dp.h	u10,a0,p0

0000000000000066 <.SLOOP_114>:
  66:	1041a0ab          	so.a.mul.sg	u1,u3,u4,p0
  6a:	ffe08eab          	so.b.ndc.1	u1,66 <.SLOOP_114>

000000000000006e <.SLOOP_1_114>:
  6e:	10a4a42b          	so.a.mul.sg	u8,u9,u10,p0
  72:	10b423ab          	so.a.mul.sg	u7,u8,u11,p0
  76:	00c3a2ab          	so.a.add.sg	u5,u7,u12,p0
  7a:	ffe2aaab          	so.b.ndc.2	u5,6e <.SLOOP_1_114>
  7e:	fff0e4ab          	so.b.nc	u1,66 <.SLOOP_114>
  82:	c0202ef3          	rdinstret	t4
  86:	00000537          	lui	a0,0x0
  8a:	000006b7          	lui	a3,0x0
  8e:	00000737          	lui	a4,0x0
  92:	8676                	mv	a2,t4
  94:	85f2                	mv	a1,t3
  96:	00050513          	mv	a0,a0
  9a:	01c6b023          	sd	t3,0(a3) # 0 <core>
  9e:	01d73023          	sd	t4,0(a4) # 0 <core>
  a2:	00000317          	auipc	t1,0x0
  a6:	00030067          	jr	t1 # a2 <.SLOOP_1_114+0x34>
