
kernel.o:     file format elf64-littleriscv


Disassembly of section .text:

0000000000000000 <core>:
   0:	c02027f3          	rdinstret	a5
   4:	66a1                	lui	a3,0x8
   6:	00000637          	lui	a2,0x0
   a:	16c1                	addi	a3,a3,-16
   c:	00f63023          	sd	a5,0(a2) # 0 <core>
  10:	00858713          	addi	a4,a1,8
  14:	87aa                	mv	a5,a0
  16:	96aa                	add	a3,a3,a0

0000000000000018 <.L2>:
  18:	239c                	fld	fa5,0(a5)
  1a:	2794                	fld	fa3,8(a5)
  1c:	2b98                	fld	fa4,16(a5)
  1e:	0721                	addi	a4,a4,8
  20:	02d7f7d3          	fadd.d	fa5,fa5,fa3
  24:	07a1                	addi	a5,a5,8
  26:	02e7f7d3          	fadd.d	fa5,fa5,fa4
  2a:	12a7f7d3          	fmul.d	fa5,fa5,fa0
  2e:	fef73c27          	fsd	fa5,-8(a4)
  32:	fef693e3          	bne	a3,a5,18 <.L2>
  36:	6721                	lui	a4,0x8
  38:	1741                	addi	a4,a4,-16
  3a:	00850793          	addi	a5,a0,8
  3e:	972e                	add	a4,a4,a1

0000000000000040 <.L3>:
  40:	219c                	fld	fa5,0(a1)
  42:	2594                	fld	fa3,8(a1)
  44:	2998                	fld	fa4,16(a1)
  46:	07a1                	addi	a5,a5,8
  48:	02d7f7d3          	fadd.d	fa5,fa5,fa3
  4c:	05a1                	addi	a1,a1,8
  4e:	02e7f7d3          	fadd.d	fa5,fa5,fa4
  52:	12a7f7d3          	fmul.d	fa5,fa5,fa0
  56:	fef7bc27          	fsd	fa5,-8(a5)
  5a:	feb713e3          	bne	a4,a1,40 <.L3>
  5e:	c02027f3          	rdinstret	a5
  62:	00063583          	ld	a1,0(a2)
  66:	00000537          	lui	a0,0x0
  6a:	00000737          	lui	a4,0x0
  6e:	863e                	mv	a2,a5
  70:	00050513          	mv	a0,a0
  74:	00f73023          	sd	a5,0(a4) # 0 <core>
  78:	00000317          	auipc	t1,0x0
  7c:	00030067          	jr	t1 # 78 <.L3+0x38>
