
kernel.o:     file format elf64-littleriscv


Disassembly of section .text:

0000000000000000 <core_kernel>:
   0:	1101                	addi	sp,sp,-32
   2:	ec22                	sd	s0,24(sp)
   4:	e826                	sd	s1,16(sp)
   6:	e44a                	sd	s2,8(sp)
   8:	e04e                	sd	s3,0(sp)
   a:	c02029f3          	rdinstret	s3
   e:	c2b5                	beqz	a3,72 <.L2>
  10:	84ae                	mv	s1,a1
  12:	00271f13          	slli	t5,a4,0x2
  16:	82aa                	mv	t0,a0
  18:	00279593          	slli	a1,a5,0x2
  1c:	893a                	mv	s2,a4
  1e:	8532                	mv	a0,a2
  20:	00b28eb3          	add	t4,t0,a1
  24:	0006841b          	sext.w	s0,a3
  28:	01e483b3          	add	t2,s1,t5
  2c:	4701                	li	a4,0

000000000000002e <.L3>:
  2e:	8fa6                	mv	t6,s1
  30:	8e2a                	mv	t3,a0
  32:	02090a63          	beqz	s2,66 <.L6>

0000000000000036 <.L5>:
  36:	000e2023          	sw	zero,0(t3)
  3a:	88fe                	mv	a7,t6
  3c:	8616                	mv	a2,t0
  3e:	4681                	li	a3,0
  40:	cf99                	beqz	a5,5e <.L7>

0000000000000042 <.L4>:
  42:	00062803          	lw	a6,0(a2)
  46:	0008a303          	lw	t1,0(a7)
  4a:	0611                	addi	a2,a2,4
  4c:	98fa                	add	a7,a7,t5
  4e:	0268083b          	mulw	a6,a6,t1
  52:	00d806bb          	addw	a3,a6,a3
  56:	00de2023          	sw	a3,0(t3)
  5a:	ffd614e3          	bne	a2,t4,42 <.L4>

000000000000005e <.L7>:
  5e:	0f91                	addi	t6,t6,4
  60:	0e11                	addi	t3,t3,4
  62:	fc7f9ae3          	bne	t6,t2,36 <.L5>

0000000000000066 <.L6>:
  66:	2705                	addiw	a4,a4,1
  68:	957a                	add	a0,a0,t5
  6a:	92ae                	add	t0,t0,a1
  6c:	9eae                	add	t4,t4,a1
  6e:	fc8710e3          	bne	a4,s0,2e <.L3>

0000000000000072 <.L2>:
  72:	c0202573          	rdinstret	a0
  76:	6462                	ld	s0,24(sp)
  78:	41350533          	sub	a0,a0,s3
  7c:	64c2                	ld	s1,16(sp)
  7e:	6922                	ld	s2,8(sp)
  80:	6982                	ld	s3,0(sp)
  82:	6105                	addi	sp,sp,32
  84:	8082                	ret

0000000000000086 <core>:
  86:	711d                	addi	sp,sp,-96
  88:	e4a6                	sd	s1,72(sp)
  8a:	7486                	ld	s1,96(sp)
  8c:	f456                	sd	s5,40(sp)
  8e:	8abe                	mv	s5,a5
  90:	77a6                	ld	a5,104(sp)
  92:	e0ca                	sd	s2,64(sp)
  94:	f852                	sd	s4,48(sp)
  96:	e466                	sd	s9,8(sp)
  98:	7a46                	ld	s4,112(sp)
  9a:	7ce6                	ld	s9,120(sp)
  9c:	893a                	mv	s2,a4
  9e:	ec5e                	sd	s7,24(sp)
  a0:	e862                	sd	s8,16(sp)
  a2:	8bb2                	mv	s7,a2
  a4:	8c36                	mv	s8,a3
  a6:	8726                	mv	a4,s1
  a8:	86c6                	mv	a3,a7
  aa:	864a                	mv	a2,s2
  ac:	ec86                	sd	ra,88(sp)
  ae:	e8a2                	sd	s0,80(sp)
  b0:	fc4e                	sd	s3,56(sp)
  b2:	f05a                	sd	s6,32(sp)
  b4:	89c6                	mv	s3,a7
  b6:	8b42                	mv	s6,a6
  b8:	00000097          	auipc	ra,0x0
  bc:	000080e7          	jalr	ra # b8 <core+0x32>
  c0:	87e6                	mv	a5,s9
  c2:	8752                	mv	a4,s4
  c4:	86a6                	mv	a3,s1
  c6:	8656                	mv	a2,s5
  c8:	85e2                	mv	a1,s8
  ca:	842a                	mv	s0,a0
  cc:	855e                	mv	a0,s7
  ce:	00000097          	auipc	ra,0x0
  d2:	000080e7          	jalr	ra # ce <core+0x48>
  d6:	942a                	add	s0,s0,a0
  d8:	865a                	mv	a2,s6
  da:	85d6                	mv	a1,s5
  dc:	87a6                	mv	a5,s1
  de:	8752                	mv	a4,s4
  e0:	86ce                	mv	a3,s3
  e2:	854a                	mv	a0,s2
  e4:	00000097          	auipc	ra,0x0
  e8:	000080e7          	jalr	ra # e4 <core+0x5e>
  ec:	00a40633          	add	a2,s0,a0
  f0:	6446                	ld	s0,80(sp)
  f2:	60e6                	ld	ra,88(sp)
  f4:	64a6                	ld	s1,72(sp)
  f6:	6906                	ld	s2,64(sp)
  f8:	79e2                	ld	s3,56(sp)
  fa:	7a42                	ld	s4,48(sp)
  fc:	7aa2                	ld	s5,40(sp)
  fe:	7b02                	ld	s6,32(sp)
 100:	6be2                	ld	s7,24(sp)
 102:	6c42                	ld	s8,16(sp)
 104:	6ca2                	ld	s9,8(sp)
 106:	00000537          	lui	a0,0x0
 10a:	4581                	li	a1,0
 10c:	00050513          	mv	a0,a0
 110:	6125                	addi	sp,sp,96
 112:	00000317          	auipc	t1,0x0
 116:	00030067          	jr	t1 # 112 <core+0x8c>
