
kernel.o:     file format elf64-littleriscv


Disassembly of section .text:

0000000000000000 <core_kernel>:
   0:	caad                	beqz	a3,72 <.L18>
   2:	1101                	addi	sp,sp,-32
   4:	00271e93          	slli	t4,a4,0x2
   8:	e826                	sd	s1,16(sp)
   a:	84ae                	mv	s1,a1
   c:	00279593          	slli	a1,a5,0x2
  10:	ec22                	sd	s0,24(sp)
  12:	e44a                	sd	s2,8(sp)
  14:	8faa                	mv	t6,a0
  16:	893a                	mv	s2,a4
  18:	83b2                	mv	t2,a2
  1a:	00b50e33          	add	t3,a0,a1
  1e:	0006841b          	sext.w	s0,a3
  22:	01d482b3          	add	t0,s1,t4
  26:	4701                	li	a4,0

0000000000000028 <.L3>:
  28:	8f26                	mv	t5,s1
  2a:	831e                	mv	t1,t2
  2c:	02090863          	beqz	s2,5c <.L6>

0000000000000030 <.L5>:
  30:	00032023          	sw	zero,0(t1)
  34:	887a                	mv	a6,t5
  36:	867e                	mv	a2,t6
  38:	4681                	li	a3,0
  3a:	cf89                	beqz	a5,54 <.L7>

000000000000003c <.L4>:
  3c:	4208                	lw	a0,0(a2)
  3e:	00082883          	lw	a7,0(a6)
  42:	0611                	addi	a2,a2,4
  44:	9876                	add	a6,a6,t4
  46:	0315053b          	mulw	a0,a0,a7
  4a:	9ea9                	addw	a3,a3,a0
  4c:	00d32023          	sw	a3,0(t1)
  50:	ffc616e3          	bne	a2,t3,3c <.L4>

0000000000000054 <.L7>:
  54:	0f11                	addi	t5,t5,4
  56:	0311                	addi	t1,t1,4
  58:	fc5f1ce3          	bne	t5,t0,30 <.L5>

000000000000005c <.L6>:
  5c:	2705                	addiw	a4,a4,1
  5e:	93f6                	add	t2,t2,t4
  60:	9fae                	add	t6,t6,a1
  62:	9e2e                	add	t3,t3,a1
  64:	fc8712e3          	bne	a4,s0,28 <.L3>
  68:	6462                	ld	s0,24(sp)
  6a:	64c2                	ld	s1,16(sp)
  6c:	6922                	ld	s2,8(sp)
  6e:	6105                	addi	sp,sp,32
  70:	8082                	ret

0000000000000072 <.L18>:
  72:	8082                	ret

0000000000000074 <core>:
  74:	711d                	addi	sp,sp,-96
  76:	e8a2                	sd	s0,80(sp)
  78:	e0ca                	sd	s2,64(sp)
  7a:	fc4e                	sd	s3,56(sp)
  7c:	f852                	sd	s4,48(sp)
  7e:	f456                	sd	s5,40(sp)
  80:	f05a                	sd	s6,32(sp)
  82:	ec5e                	sd	s7,24(sp)
  84:	e862                	sd	s8,16(sp)
  86:	e466                	sd	s9,8(sp)
  88:	ec86                	sd	ra,88(sp)
  8a:	e4a6                	sd	s1,72(sp)
  8c:	8bb2                	mv	s7,a2
  8e:	8c36                	mv	s8,a3
  90:	893a                	mv	s2,a4
  92:	89be                	mv	s3,a5
  94:	8b42                	mv	s6,a6
  96:	8a46                	mv	s4,a7
  98:	7406                	ld	s0,96(sp)
  9a:	7ac6                	ld	s5,112(sp)
  9c:	7ce6                	ld	s9,120(sp)
  9e:	c0202873          	rdinstret	a6
  a2:	77a6                	ld	a5,104(sp)
  a4:	86c6                	mv	a3,a7
  a6:	8722                	mv	a4,s0
  a8:	864a                	mv	a2,s2
  aa:	000004b7          	lui	s1,0x0
  ae:	0104b023          	sd	a6,0(s1) # 0 <core_kernel>
  b2:	00000097          	auipc	ra,0x0
  b6:	000080e7          	jalr	ra # b2 <core+0x3e>
  ba:	87e6                	mv	a5,s9
  bc:	8756                	mv	a4,s5
  be:	86a2                	mv	a3,s0
  c0:	864e                	mv	a2,s3
  c2:	85e2                	mv	a1,s8
  c4:	855e                	mv	a0,s7
  c6:	00000097          	auipc	ra,0x0
  ca:	000080e7          	jalr	ra # c6 <core+0x52>
  ce:	87a2                	mv	a5,s0
  d0:	8756                	mv	a4,s5
  d2:	86d2                	mv	a3,s4
  d4:	865a                	mv	a2,s6
  d6:	85ce                	mv	a1,s3
  d8:	854a                	mv	a0,s2
  da:	00000097          	auipc	ra,0x0
  de:	000080e7          	jalr	ra # da <core+0x66>
  e2:	c02027f3          	rdinstret	a5
  e6:	6446                	ld	s0,80(sp)
  e8:	0004b583          	ld	a1,0(s1)
  ec:	60e6                	ld	ra,88(sp)
  ee:	64a6                	ld	s1,72(sp)
  f0:	6906                	ld	s2,64(sp)
  f2:	79e2                	ld	s3,56(sp)
  f4:	7a42                	ld	s4,48(sp)
  f6:	7aa2                	ld	s5,40(sp)
  f8:	7b02                	ld	s6,32(sp)
  fa:	6be2                	ld	s7,24(sp)
  fc:	6c42                	ld	s8,16(sp)
  fe:	6ca2                	ld	s9,8(sp)
 100:	00000737          	lui	a4,0x0
 104:	00000537          	lui	a0,0x0
 108:	00f73023          	sd	a5,0(a4) # 0 <core_kernel>
 10c:	863e                	mv	a2,a5
 10e:	00050513          	mv	a0,a0
 112:	6125                	addi	sp,sp,96
 114:	00000317          	auipc	t1,0x0
 118:	00030067          	jr	t1 # 114 <core+0xa0>
