
kernel.o:     file format elf64-littleriscv


Disassembly of section .text:

0000000000000000 <core>:
   0:	1141                	addi	sp,sp,-16
   2:	e422                	sd	s0,8(sp)
   4:	c0202873          	rdinstret	a6
   8:	00000437          	lui	s0,0x0
   c:	01043023          	sd	a6,0(s0) # 0 <core>
  10:	caad                	beqz	a3,82 <.L2>
  12:	832a                	mv	t1,a0
  14:	00379e93          	slli	t4,a5,0x3
  18:	00371813          	slli	a6,a4,0x3
  1c:	40f00533          	neg	a0,a5
  20:	00369f93          	slli	t6,a3,0x3
  24:	01d58e33          	add	t3,a1,t4
  28:	981a                	add	a6,a6,t1
  2a:	0006829b          	sext.w	t0,a3
  2e:	00351393          	slli	t2,a0,0x3
  32:	4f01                	li	t5,0

0000000000000034 <.L3>:
  34:	869a                	mv	a3,t1
  36:	c321                	beqz	a4,76 <.L8>

0000000000000038 <.L4>:
  38:	229c                	fld	fa5,0(a3)
  3a:	06a1                	addi	a3,a3,8
  3c:	12b7f7d3          	fmul.d	fa5,fa5,fa1
  40:	fef6bc27          	fsd	fa5,-8(a3)
  44:	ff069ae3          	bne	a3,a6,38 <.L4>
  48:	88b2                	mv	a7,a2
  4a:	007e0533          	add	a0,t3,t2
  4e:	c785                	beqz	a5,76 <.L8>

0000000000000050 <.L6>:
  50:	85c6                	mv	a1,a7
  52:	869a                	mv	a3,t1

0000000000000054 <.L7>:
  54:	211c                	fld	fa5,0(a0)
  56:	2194                	fld	fa3,0(a1)
  58:	2298                	fld	fa4,0(a3)
  5a:	12f577d3          	fmul.d	fa5,fa0,fa5
  5e:	06a1                	addi	a3,a3,8
  60:	05a1                	addi	a1,a1,8
  62:	72d7f7c3          	fmadd.d	fa5,fa5,fa3,fa4
  66:	fef6bc27          	fsd	fa5,-8(a3)
  6a:	ff0695e3          	bne	a3,a6,54 <.L7>
  6e:	0521                	addi	a0,a0,8
  70:	98f6                	add	a7,a7,t4
  72:	fcae1fe3          	bne	t3,a0,50 <.L6>

0000000000000076 <.L8>:
  76:	2f05                	addiw	t5,t5,1
  78:	9e7e                	add	t3,t3,t6
  7a:	937e                	add	t1,t1,t6
  7c:	987e                	add	a6,a6,t6
  7e:	fa5f1be3          	bne	t5,t0,34 <.L3>

0000000000000082 <.L2>:
  82:	c02027f3          	rdinstret	a5
  86:	00043583          	ld	a1,0(s0)
  8a:	6422                	ld	s0,8(sp)
  8c:	00000737          	lui	a4,0x0
  90:	00000537          	lui	a0,0x0
  94:	00f73023          	sd	a5,0(a4) # 0 <core>
  98:	863e                	mv	a2,a5
  9a:	00050513          	mv	a0,a0
  9e:	0141                	addi	sp,sp,16
  a0:	00000317          	auipc	t1,0x0
  a4:	00030067          	jr	t1 # a0 <.L2+0x1e>
