
kernel.o:     file format elf64-littleriscv


Disassembly of section .text:

0000000000000000 <core>:
   0:	882e                	mv	a6,a1
   2:	c02025f3          	rdinstret	a1
   6:	000008b7          	lui	a7,0x0
   a:	00b8b023          	sd	a1,0(a7) # 0 <core>
   e:	e2050353          	fmv.x.d	t1,fa0
  12:	4885                	li	a7,1
  14:	e2058e53          	fmv.x.d	t3,fa1
  18:	7805308b          	ss.sta.st.d.v	u1,a0
  1c:	72d0008b          	ss.app	u1,zero,a3,a4
  20:	8ce0008b          	ss.end	u1,zero,a4,a7
  24:	7805718b          	ss.sta.ld.d.v	u3,a0
  28:	72d0018b          	ss.app	u3,zero,a3,a4
  2c:	8ce0018b          	ss.end	u3,zero,a4,a7
  30:	7805328b          	ss.sta.st.d.v	u5,a0
  34:	72d0028b          	ss.app	u5,zero,a3,a4
  38:	02f0028b          	ss.app	u5,zero,a5,zero
  3c:	8ce0028b          	ss.end	u5,zero,a4,a7
  40:	7805760b          	ss.sta.ld.d.v	u12,a0
  44:	72d0060b          	ss.app	u12,zero,a3,a4
  48:	02f0060b          	ss.app	u12,zero,a5,zero
  4c:	8ce0060b          	ss.end	u12,zero,a4,a7
  50:	7806758b          	ss.sta.ld.d.v	u11,a2
  54:	02d0058b          	ss.app	u11,zero,a3,zero
  58:	72f0058b          	ss.app	u11,zero,a5,a4
  5c:	8ce0058b          	ss.end	u11,zero,a4,a7
  60:	7808748b          	ss.sta.ld.d.v	u9,a6
  64:	7ad0048b          	ss.app	u9,zero,a3,a5
  68:	8af0048b          	ss.app	u9,zero,a5,a7
  6c:	04e0048b          	ss.end	u9,zero,a4,zero
  70:	ac0e322b          	so.v.dp.d	u4,t3,p0
  74:	ac03352b          	so.v.dp.d	u10,t1,p0

0000000000000078 <.SLOOP_112>:
  78:	104190ab          	so.a.mul.fp	u1,u3,u4,p0
  7c:	ffd09eab          	so.b.ndc.2	u1,78 <.SLOOP_112>

0000000000000080 <.SLOOP_1_112>:
  80:	10a4942b          	so.a.mul.fp	u8,u9,u10,p0
  84:	10b413ab          	so.a.mul.fp	u7,u8,u11,p0
  88:	00c392ab          	so.a.add.fp	u5,u7,u12,p0
  8c:	ffd29aab          	so.b.ndc.2	u5,80 <.SLOOP_1_112>
  90:	ffd0f4ab          	so.b.nc	u1,78 <.SLOOP_112>
  94:	c02027f3          	rdinstret	a5
  98:	00000537          	lui	a0,0x0
  9c:	00000737          	lui	a4,0x0
  a0:	863e                	mv	a2,a5
  a2:	00050513          	mv	a0,a0
  a6:	00f73023          	sd	a5,0(a4) # 0 <core>
  aa:	00000317          	auipc	t1,0x0
  ae:	00030067          	jr	t1 # aa <.SLOOP_1_112+0x2a>
