
kernel.o:     file format elf64-littleriscv


Disassembly of section .text:

0000000000000000 <core>:
   0:	00450793          	addi	a5,a0,4
   4:	00458713          	addi	a4,a1,4
   8:	00850613          	addi	a2,a0,8
   c:	00858893          	addi	a7,a1,8
  10:	435d                	li	t1,23
  12:	4e05                	li	t3,1
  14:	e0050ed3          	fmv.x.w	t4,fa0
  18:	c0202873          	rdinstret	a6
  1c:	7805608b          	ss.sta.ld.w.v	u1,a0
  20:	e460008b          	ss.end	u1,zero,t1,t3
  24:	7807e10b          	ss.sta.ld.w.v	u2,a5
  28:	e460010b          	ss.end	u2,zero,t1,t3
  2c:	7806618b          	ss.sta.ld.w.v	u3,a2
  30:	e460018b          	ss.end	u3,zero,t1,t3
  34:	7807220b          	ss.sta.st.w.v	u4,a4
  38:	e460020b          	ss.end	u4,zero,t1,t3
  3c:	ac0ea2ab          	so.v.dp.w	u5,t4,p0

0000000000000040 <.uve_loop113>:
  40:	0020952b          	so.a.add.fp	u10,u1,u2,p0
  44:	0035152b          	so.a.add.fp	u10,u10,u3,p0
  48:	1055122b          	so.a.mul.fp	u4,u10,u5,p0
  4c:	ffd0faab          	so.b.nc	u1,40 <.uve_loop113>
  50:	7805e08b          	ss.sta.ld.w.v	u1,a1
  54:	e460008b          	ss.end	u1,zero,t1,t3
  58:	7807610b          	ss.sta.ld.w.v	u2,a4
  5c:	e460010b          	ss.end	u2,zero,t1,t3
  60:	7808e18b          	ss.sta.ld.w.v	u3,a7
  64:	e460018b          	ss.end	u3,zero,t1,t3
  68:	7807a20b          	ss.sta.st.w.v	u4,a5
  6c:	e460020b          	ss.end	u4,zero,t1,t3

0000000000000070 <.uve_loop213>:
  70:	0020952b          	so.a.add.fp	u10,u1,u2,p0
  74:	0035152b          	so.a.add.fp	u10,u10,u3,p0
  78:	1055122b          	so.a.mul.fp	u4,u10,u5,p0
  7c:	ffd0faab          	so.b.nc	u1,70 <.uve_loop213>
  80:	c02026f3          	rdinstret	a3
  84:	000007b7          	lui	a5,0x0
  88:	00000537          	lui	a0,0x0
  8c:	0107b023          	sd	a6,0(a5) # 0 <core>
  90:	8636                	mv	a2,a3
  92:	000007b7          	lui	a5,0x0
  96:	85c2                	mv	a1,a6
  98:	00050513          	mv	a0,a0
  9c:	00d7b023          	sd	a3,0(a5) # 0 <core>
  a0:	00000317          	auipc	t1,0x0
  a4:	00030067          	jr	t1 # a0 <.uve_loop213+0x30>
