
kernel.o:     file format elf64-littleriscv


Disassembly of section .text:

0000000000000000 <core>:
   0:	c0202773          	rdinstret	a4
   4:	419c                	lw	a5,0(a1)
   6:	00000fb7          	lui	t6,0x0
   a:	00efb023          	sd	a4,0(t6) # 0 <core>
   e:	c21c                	sw	a5,0(a2)
  10:	4118                	lw	a4,0(a0)
  12:	00460893          	addi	a7,a2,4
  16:	4e01                	li	t3,0
  18:	02e7c7bb          	divw	a5,a5,a4
  1c:	03200f13          	li	t5,50
  20:	2e05                	addiw	t3,t3,1
  22:	0c850e93          	addi	t4,a0,200
  26:	fef8ae23          	sw	a5,-4(a7)
  2a:	05ee0463          	beq	t3,t5,72 <.L7>

000000000000002e <.L4>:
  2e:	40c887b3          	sub	a5,a7,a2
  32:	97ae                	add	a5,a5,a1
  34:	439c                	lw	a5,0(a5)
  36:	8732                	mv	a4,a2
  38:	8876                	mv	a6,t4
  3a:	00f8a023          	sw	a5,0(a7)

000000000000003e <.L3>:
  3e:	00082683          	lw	a3,0(a6)
  42:	00072303          	lw	t1,0(a4)
  46:	0711                	addi	a4,a4,4
  48:	0811                	addi	a6,a6,4
  4a:	026686bb          	mulw	a3,a3,t1
  4e:	9f95                	subw	a5,a5,a3
  50:	00f8a023          	sw	a5,0(a7)
  54:	ff1715e3          	bne	a4,a7,3e <.L3>
  58:	0cc50513          	addi	a0,a0,204
  5c:	4118                	lw	a4,0(a0)
  5e:	0891                	addi	a7,a7,4
  60:	2e05                	addiw	t3,t3,1
  62:	02e7c7bb          	divw	a5,a5,a4
  66:	0c8e8e93          	addi	t4,t4,200
  6a:	fef8ae23          	sw	a5,-4(a7)
  6e:	fdee10e3          	bne	t3,t5,2e <.L4>

0000000000000072 <.L7>:
  72:	c02027f3          	rdinstret	a5
  76:	000fb583          	ld	a1,0(t6)
  7a:	00000537          	lui	a0,0x0
  7e:	00000737          	lui	a4,0x0
  82:	863e                	mv	a2,a5
  84:	00050513          	mv	a0,a0
  88:	00f73023          	sd	a5,0(a4) # 0 <core>
  8c:	00000317          	auipc	t1,0x0
  90:	00030067          	jr	t1 # 8c <.L7+0x1a>
