
kernel.o:     file format elf64-littleriscv


Disassembly of section .text:

0000000000000000 <core>:
   0:	03200693          	li	a3,50
   4:	03100813          	li	a6,49
   8:	03300893          	li	a7,51
   c:	4305                	li	t1,1
   e:	c0202773          	rdinstret	a4
  12:	6cd5608b          	ss.sta.ld.w	u1,a0,a3,a3
  16:	3008408b          	ss.app.mod.siz.inc	u1,a6,t1
  1a:	3000008b          	ss.app	u1,zero,zero,t1
  1e:	0000108b          	ss.cfg.vec	u1
  22:	04d6610b          	ss.sta.ld.w	u2,a2,a3,zero
  26:	3008410b          	ss.app.mod.siz.inc	u2,a6,t1
  2a:	3000010b          	ss.app	u2,zero,zero,t1
  2e:	0000110b          	ss.cfg.vec	u2
  32:	36d5e18b          	ss.ld.w	u3,a1,a3,t1
  36:	8ed5620b          	ss.ld.w	u4,a0,a3,a7
  3a:	36d6228b          	ss.st.w	u5,a2,a3,t1

000000000000003e <.fLoop112>:
  3e:	ac00232b          	so.v.dp.w	u6,zero,p0

0000000000000042 <.jloop112>:
  42:	1020a3ab          	so.a.mul.sg	u7,u1,u2,p0
  46:	0073632b          	so.a.sub.sg	u6,u6,u7,p0
  4a:	ffe08cab          	so.b.ndc.1	u1,42 <.jloop112>
  4e:	200323ab          	so.a.adde.sg	u7,u6,p0
  52:	0071a3ab          	so.a.add.sg	u7,u3,u7,p0
  56:	1043e2ab          	so.a.div.sg	u5,u7,u4,p0
  5a:	fff0e2ab          	so.b.nc	u1,3e <.fLoop112>
  5e:	c02027f3          	rdinstret	a5
  62:	00000537          	lui	a0,0x0
  66:	000006b7          	lui	a3,0x0
  6a:	85ba                	mv	a1,a4
  6c:	00e6b023          	sd	a4,0(a3) # 0 <core>
  70:	863e                	mv	a2,a5
  72:	00000737          	lui	a4,0x0
  76:	00050513          	mv	a0,a0
  7a:	00f73023          	sd	a5,0(a4) # 0 <core>
  7e:	00000317          	auipc	t1,0x0
  82:	00030067          	jr	t1 # 7e <.jloop112+0x3c>
