
kernel.o:     file format elf64-littleriscv


Disassembly of section .text:

0000000000000000 <core>:
   0:	1101                	addi	sp,sp,-32
   2:	ec22                	sd	s0,24(sp)
   4:	e826                	sd	s1,16(sp)
   6:	e44a                	sd	s2,8(sp)
   8:	e04e                	sd	s3,0(sp)
   a:	c02027f3          	rdinstret	a5
   e:	00059903          	lh	s2,0(a1)
  12:	000004b7          	lui	s1,0x0
  16:	00f4b023          	sd	a5,0(s1) # 0 <core>
  1a:	01261023          	sh	s2,0(a2)
  1e:	00258893          	addi	a7,a1,2
  22:	01450693          	addi	a3,a0,20
  26:	8732                	mv	a4,a2
  28:	4801                	li	a6,0
  2a:	4325                	li	t1,9
  2c:	4e05                	li	t3,1
  2e:	4e89                	li	t4,2
  30:	4f0d                	li	t5,3
  32:	4f91                	li	t6,4
  34:	4295                	li	t0,5
  36:	4399                	li	t2,6
  38:	4421                	li	s0,8
  3a:	aa89                	j	18c <.L2>

000000000000003c <.L4>:
  3c:	00089783          	lh	a5,0(a7)
  40:	0709                	addi	a4,a4,2
  42:	0008059b          	sext.w	a1,a6
  46:	00f71023          	sh	a5,0(a4)
  4a:	00065903          	lhu	s2,0(a2)
  4e:	0006d983          	lhu	s3,0(a3)
  52:	0339093b          	mulw	s2,s2,s3
  56:	412787bb          	subw	a5,a5,s2
  5a:	17c2                	slli	a5,a5,0x30
  5c:	93c1                	srli	a5,a5,0x30
  5e:	0107991b          	slliw	s2,a5,0x10
  62:	4109591b          	sraiw	s2,s2,0x10
  66:	01271023          	sh	s2,0(a4)
  6a:	10080d63          	beqz	a6,184 <.L3>
  6e:	00265903          	lhu	s2,2(a2)
  72:	0026d983          	lhu	s3,2(a3)
  76:	0339093b          	mulw	s2,s2,s3
  7a:	412787bb          	subw	a5,a5,s2
  7e:	17c2                	slli	a5,a5,0x30
  80:	93c1                	srli	a5,a5,0x30
  82:	0107991b          	slliw	s2,a5,0x10
  86:	4109591b          	sraiw	s2,s2,0x10
  8a:	01271023          	sh	s2,0(a4)
  8e:	0fc58b63          	beq	a1,t3,184 <.L3>
  92:	00465903          	lhu	s2,4(a2)
  96:	0046d983          	lhu	s3,4(a3)
  9a:	0339093b          	mulw	s2,s2,s3
  9e:	412787bb          	subw	a5,a5,s2
  a2:	17c2                	slli	a5,a5,0x30
  a4:	93c1                	srli	a5,a5,0x30
  a6:	0107991b          	slliw	s2,a5,0x10
  aa:	4109591b          	sraiw	s2,s2,0x10
  ae:	01271023          	sh	s2,0(a4)
  b2:	0dd58963          	beq	a1,t4,184 <.L3>
  b6:	0066d903          	lhu	s2,6(a3)
  ba:	00665983          	lhu	s3,6(a2)
  be:	0339093b          	mulw	s2,s2,s3
  c2:	412787bb          	subw	a5,a5,s2
  c6:	17c2                	slli	a5,a5,0x30
  c8:	93c1                	srli	a5,a5,0x30
  ca:	0107991b          	slliw	s2,a5,0x10
  ce:	4109591b          	sraiw	s2,s2,0x10
  d2:	01271023          	sh	s2,0(a4)
  d6:	0be58763          	beq	a1,t5,184 <.L3>
  da:	0086d903          	lhu	s2,8(a3)
  de:	00865983          	lhu	s3,8(a2)
  e2:	0339093b          	mulw	s2,s2,s3
  e6:	412787bb          	subw	a5,a5,s2
  ea:	17c2                	slli	a5,a5,0x30
  ec:	93c1                	srli	a5,a5,0x30
  ee:	0107991b          	slliw	s2,a5,0x10
  f2:	4109591b          	sraiw	s2,s2,0x10
  f6:	01271023          	sh	s2,0(a4)
  fa:	09f58563          	beq	a1,t6,184 <.L3>
  fe:	00a6d903          	lhu	s2,10(a3)
 102:	00a65983          	lhu	s3,10(a2)
 106:	0339093b          	mulw	s2,s2,s3
 10a:	412787bb          	subw	a5,a5,s2
 10e:	17c2                	slli	a5,a5,0x30
 110:	93c1                	srli	a5,a5,0x30
 112:	0107991b          	slliw	s2,a5,0x10
 116:	4109591b          	sraiw	s2,s2,0x10
 11a:	01271023          	sh	s2,0(a4)
 11e:	06558363          	beq	a1,t0,184 <.L3>
 122:	00c6d903          	lhu	s2,12(a3)
 126:	00c65983          	lhu	s3,12(a2)
 12a:	0339093b          	mulw	s2,s2,s3
 12e:	412787bb          	subw	a5,a5,s2
 132:	17c2                	slli	a5,a5,0x30
 134:	93c1                	srli	a5,a5,0x30
 136:	0107991b          	slliw	s2,a5,0x10
 13a:	4109591b          	sraiw	s2,s2,0x10
 13e:	01271023          	sh	s2,0(a4)
 142:	04758163          	beq	a1,t2,184 <.L3>
 146:	00e6d903          	lhu	s2,14(a3)
 14a:	00e65983          	lhu	s3,14(a2)
 14e:	0339093b          	mulw	s2,s2,s3
 152:	412787bb          	subw	a5,a5,s2
 156:	17c2                	slli	a5,a5,0x30
 158:	93c1                	srli	a5,a5,0x30
 15a:	0107991b          	slliw	s2,a5,0x10
 15e:	4109591b          	sraiw	s2,s2,0x10
 162:	01271023          	sh	s2,0(a4)
 166:	00859f63          	bne	a1,s0,184 <.L3>
 16a:	01065903          	lhu	s2,16(a2)
 16e:	0106d583          	lhu	a1,16(a3)
 172:	032585bb          	mulw	a1,a1,s2
 176:	9f8d                	subw	a5,a5,a1
 178:	0107991b          	slliw	s2,a5,0x10
 17c:	4109591b          	sraiw	s2,s2,0x10
 180:	01271023          	sh	s2,0(a4)

0000000000000184 <.L3>:
 184:	0805                	addi	a6,a6,1
 186:	0559                	addi	a0,a0,22
 188:	0889                	addi	a7,a7,2
 18a:	06d1                	addi	a3,a3,20

000000000000018c <.L2>:
 18c:	00051783          	lh	a5,0(a0)
 190:	02f947bb          	divw	a5,s2,a5
 194:	00f71023          	sh	a5,0(a4)
 198:	ea6812e3          	bne	a6,t1,3c <.L4>
 19c:	c02027f3          	rdinstret	a5
 1a0:	6462                	ld	s0,24(sp)
 1a2:	0004b583          	ld	a1,0(s1)
 1a6:	6922                	ld	s2,8(sp)
 1a8:	64c2                	ld	s1,16(sp)
 1aa:	6982                	ld	s3,0(sp)
 1ac:	00000737          	lui	a4,0x0
 1b0:	00000537          	lui	a0,0x0
 1b4:	00f73023          	sd	a5,0(a4) # 0 <core>
 1b8:	863e                	mv	a2,a5
 1ba:	00050513          	mv	a0,a0
 1be:	6105                	addi	sp,sp,32
 1c0:	00000317          	auipc	t1,0x0
 1c4:	00030067          	jr	t1 # 1c0 <.L2+0x34>
