
kernel.o:     file format elf64-littleriscv


Disassembly of section .text:

0000000000000000 <core>:
   0:	46a9                	li	a3,10
   2:	4825                	li	a6,9
   4:	48ad                	li	a7,11
   6:	4305                	li	t1,1
   8:	c0202773          	rdinstret	a4
   c:	6cd5508b          	ss.sta.ld.h	u1,a0,a3,a3
  10:	3008408b          	ss.app.mod.siz.inc	u1,a6,t1
  14:	3200008b          	ss.end	u1,zero,zero,t1
  18:	0000108b          	ss.cfg.vec	u1
  1c:	04d6510b          	ss.sta.ld.h	u2,a2,a3,zero
  20:	3008410b          	ss.app.mod.siz.inc	u2,a6,t1
  24:	3200010b          	ss.end	u2,zero,zero,t1
  28:	0000110b          	ss.cfg.vec	u2
  2c:	36d5d18b          	ss.ld.h	u3,a1,a3,t1
  30:	8ed5520b          	ss.ld.h	u4,a0,a3,a7
  34:	36d6128b          	ss.st.h	u5,a2,a3,t1

0000000000000038 <.fLoop112>:
  38:	ac00132b          	so.v.dp.h	u6,zero,p0

000000000000003c <.jloop112>:
  3c:	1020a3ab          	so.a.mul.sg	u7,u1,u2,p0
  40:	0073632b          	so.a.sub.sg	u6,u6,u7,p0
  44:	ffe08cab          	so.b.ndc.1	u1,3c <.jloop112>
  48:	200323ab          	so.a.adde.sg	u7,u6,p0
  4c:	0071a3ab          	so.a.add.sg	u7,u3,u7,p0
  50:	1043e2ab          	so.a.div.sg	u5,u7,u4,p0
  54:	fff0e2ab          	so.b.nc	u1,38 <.fLoop112>
  58:	c02027f3          	rdinstret	a5
  5c:	00000537          	lui	a0,0x0
  60:	000006b7          	lui	a3,0x0
  64:	85ba                	mv	a1,a4
  66:	00e6b023          	sd	a4,0(a3) # 0 <core>
  6a:	863e                	mv	a2,a5
  6c:	00000737          	lui	a4,0x0
  70:	00050513          	mv	a0,a0
  74:	00f73023          	sd	a5,0(a4) # 0 <core>
  78:	00000317          	auipc	t1,0x0
  7c:	00030067          	jr	t1 # 78 <.jloop112+0x3c>
