
kernel.o:     file format elf64-littleriscv


Disassembly of section .text:

0000000000000000 <core>:
   0:	1101                	addi	sp,sp,-32
   2:	ec22                	sd	s0,24(sp)
   4:	e826                	sd	s1,16(sp)
   6:	e44a                	sd	s2,8(sp)
   8:	e04e                	sd	s3,0(sp)
   a:	c02027f3          	rdinstret	a5
   e:	0005a803          	lw	a6,0(a1)
  12:	00000937          	lui	s2,0x0
  16:	00f93023          	sd	a5,0(s2) # 0 <core>
  1a:	01062023          	sw	a6,0(a2)
  1e:	00458313          	addi	t1,a1,4
  22:	02850693          	addi	a3,a0,40
  26:	8732                	mv	a4,a2
  28:	4881                	li	a7,0
  2a:	4e25                	li	t3,9
  2c:	4e85                	li	t4,1
  2e:	4f09                	li	t5,2
  30:	4f8d                	li	t6,3
  32:	4291                	li	t0,4
  34:	4395                	li	t2,5
  36:	4419                	li	s0,6
  38:	44a1                	li	s1,8
  3a:	a8f5                	j	136 <.L2>

000000000000003c <.L4>:
  3c:	00032783          	lw	a5,0(t1)
  40:	0711                	addi	a4,a4,4
  42:	0008859b          	sext.w	a1,a7
  46:	c31c                	sw	a5,0(a4)
  48:	00062803          	lw	a6,0(a2)
  4c:	0006a983          	lw	s3,0(a3)
  50:	0338083b          	mulw	a6,a6,s3
  54:	4107883b          	subw	a6,a5,a6
  58:	01072023          	sw	a6,0(a4)
  5c:	87c2                	mv	a5,a6
  5e:	0c088663          	beqz	a7,12a <.L3>
  62:	00462803          	lw	a6,4(a2)
  66:	0046a983          	lw	s3,4(a3)
  6a:	0338083b          	mulw	a6,a6,s3
  6e:	4107883b          	subw	a6,a5,a6
  72:	01072023          	sw	a6,0(a4)
  76:	87c2                	mv	a5,a6
  78:	0bd58963          	beq	a1,t4,12a <.L3>
  7c:	00862803          	lw	a6,8(a2)
  80:	0086a983          	lw	s3,8(a3)
  84:	0338083b          	mulw	a6,a6,s3
  88:	4107883b          	subw	a6,a5,a6
  8c:	01072023          	sw	a6,0(a4)
  90:	87c2                	mv	a5,a6
  92:	09e58c63          	beq	a1,t5,12a <.L3>
  96:	00c6a803          	lw	a6,12(a3)
  9a:	00c62983          	lw	s3,12(a2)
  9e:	0338083b          	mulw	a6,a6,s3
  a2:	4107883b          	subw	a6,a5,a6
  a6:	01072023          	sw	a6,0(a4)
  aa:	87c2                	mv	a5,a6
  ac:	07f58f63          	beq	a1,t6,12a <.L3>
  b0:	0106a803          	lw	a6,16(a3)
  b4:	01062983          	lw	s3,16(a2)
  b8:	0338083b          	mulw	a6,a6,s3
  bc:	4107883b          	subw	a6,a5,a6
  c0:	01072023          	sw	a6,0(a4)
  c4:	87c2                	mv	a5,a6
  c6:	06558263          	beq	a1,t0,12a <.L3>
  ca:	0146a803          	lw	a6,20(a3)
  ce:	01462983          	lw	s3,20(a2)
  d2:	0338083b          	mulw	a6,a6,s3
  d6:	4107883b          	subw	a6,a5,a6
  da:	01072023          	sw	a6,0(a4)
  de:	87c2                	mv	a5,a6
  e0:	04758563          	beq	a1,t2,12a <.L3>
  e4:	0186a803          	lw	a6,24(a3)
  e8:	01862983          	lw	s3,24(a2)
  ec:	0338083b          	mulw	a6,a6,s3
  f0:	4107883b          	subw	a6,a5,a6
  f4:	01072023          	sw	a6,0(a4)
  f8:	87c2                	mv	a5,a6
  fa:	02858863          	beq	a1,s0,12a <.L3>
  fe:	01c6a803          	lw	a6,28(a3)
 102:	01c62983          	lw	s3,28(a2)
 106:	0338083b          	mulw	a6,a6,s3
 10a:	4107883b          	subw	a6,a5,a6
 10e:	01072023          	sw	a6,0(a4)
 112:	87c2                	mv	a5,a6
 114:	00959b63          	bne	a1,s1,12a <.L3>
 118:	02062803          	lw	a6,32(a2)
 11c:	528c                	lw	a1,32(a3)
 11e:	030585bb          	mulw	a1,a1,a6
 122:	40b7883b          	subw	a6,a5,a1
 126:	01072023          	sw	a6,0(a4)

000000000000012a <.L3>:
 12a:	0885                	addi	a7,a7,1
 12c:	02c50513          	addi	a0,a0,44
 130:	0311                	addi	t1,t1,4
 132:	02868693          	addi	a3,a3,40

0000000000000136 <.L2>:
 136:	411c                	lw	a5,0(a0)
 138:	02f8483b          	divw	a6,a6,a5
 13c:	01072023          	sw	a6,0(a4)
 140:	efc89ee3          	bne	a7,t3,3c <.L4>
 144:	c02027f3          	rdinstret	a5
 148:	6462                	ld	s0,24(sp)
 14a:	00093583          	ld	a1,0(s2)
 14e:	64c2                	ld	s1,16(sp)
 150:	6922                	ld	s2,8(sp)
 152:	6982                	ld	s3,0(sp)
 154:	00000737          	lui	a4,0x0
 158:	00000537          	lui	a0,0x0
 15c:	00f73023          	sd	a5,0(a4) # 0 <core>
 160:	863e                	mv	a2,a5
 162:	00050513          	mv	a0,a0
 166:	6105                	addi	sp,sp,32
 168:	00000317          	auipc	t1,0x0
 16c:	00030067          	jr	t1 # 168 <.L2+0x32>
