
kernel.o:	file format elf64-littleriscv

Disassembly of section .text:

0000000000000000 <.text>:
       0: 01 00        	nop

0000000000000002 <core>:
       2: 5d 71        	addi	sp, sp, -80
       4: a2 e4        	sd	s0, 72(sp)
       6: a6 e0        	sd	s1, 64(sp)
       8: 4a fc        	sd	s2, 56(sp)
       a: 4e f8        	sd	s3, 48(sp)
       c: 52 f4        	sd	s4, 40(sp)
       e: 56 f0        	sd	s5, 32(sp)
      10: 5a ec        	sd	s6, 24(sp)
      12: 5e e8        	sd	s7, 16(sp)
      14: 62 e4        	sd	s8, 8(sp)
      16: 66 e0        	sd	s9, 0(sp)
      18: f3 24 20 c0  	rdinstret	s1
      1c: 37 08 00 00  	lui	a6, 0
      20: 23 30 98 00  	sd	s1, 0(a6)
      24: 63 50 b0 00  	blez	a1, 0x24 <core+0x22>
      28: 81 48        	li	a7, 0
      2a: 9b 82 15 00  	addiw	t0, a1, 1
      2e: 93 14 05 02  	slli	s1, a0, 32
      32: 13 d3 04 02  	srli	t1, s1, 32
      36: 93 13 35 00  	slli	t2, a0, 3
      3a: 13 9e 35 00  	slli	t3, a1, 3
      3e: 53 00 00 f2  	fmv.d.x	ft0, zero
      42: b6 8e        	mv	t4, a3
      44: 01 a0        	j	0x44 <core+0x42>

0000000000000046 <.LBB0_2>:
      46: 85 08        	addi	a7, a7, 1
      48: f2 9e        	add	t4, t4, t3
      4a: 63 80 b8 00  	beq	a7, a1, 0x4a <.LBB0_2+0x4>

000000000000004e <.LBB0_3>:
      4e: 63 50 a0 00  	blez	a0, 0x4e <.LBB0_3>
      52: 01 4f        	li	t5, 0
      54: b3 8f a8 02  	mul	t6, a7, a0
      58: 3b 84 12 03  	mulw	s0, t0, a7
      5c: 0e 04        	slli	s0, s0, 3
      5e: 33 89 86 00  	add	s2, a3, s0
      62: 3a 8a        	mv	s4, a4
      64: b2 8a        	mv	s5, a2
      66: 01 a0        	j	0x66 <.LBB0_3+0x18>

0000000000000068 <.LBB0_5>:
      68: 33 04 36 01  	add	s0, a2, s3
      6c: ba 99        	add	s3, s3, a4
      6e: 07 b1 09 00  	fld	ft2, 0(s3)
      72: 87 31 09 00  	fld	ft3, 0(s2)
      76: 07 32 04 00  	fld	ft4, 0(s0)
      7a: 53 71 a1 12  	fmul.d	ft2, ft2, fa0
      7e: 53 71 31 12  	fmul.d	ft2, ft2, ft3
      82: 43 f1 45 12  	fmadd.d	ft2, fa1, ft4, ft2
      86: c3 70 15 12  	fmadd.d	ft1, fa0, ft1, ft2
      8a: 27 30 14 00  	fsd	ft1, 0(s0)
      8e: 05 0f        	addi	t5, t5, 1
      90: a1 0a        	addi	s5, s5, 8
      92: 21 0a        	addi	s4, s4, 8
      94: 63 00 6f 00  	beq	t5, t1, 0x94 <.LBB0_5+0x2c>

0000000000000098 <.LBB0_6>:
      98: 93 1b 3f 00  	slli	s7, t5, 3
      9c: be 9b        	add	s7, s7, a5
      9e: 23 b0 0b 00  	sd	zero, 0(s7)
      a2: b3 09 ff 01  	add	s3, t5, t6
      a6: 8e 09        	slli	s3, s3, 3
      a8: d3 00 00 22  	fmv.d	ft1, ft0
      ac: 63 80 08 00  	beqz	a7, 0xac <.LBB0_6+0x14>
      b0: 33 0b 37 01  	add	s6, a4, s3
      b4: 46 8c        	mv	s8, a7
      b6: f6 84        	mv	s1, t4
      b8: d2 8c        	mv	s9, s4
      ba: 56 84        	mv	s0, s5

00000000000000bc <.LBB0_8>:
      bc: 87 30 0b 00  	fld	ft1, 0(s6)
      c0: 07 b1 04 00  	fld	ft2, 0(s1)
      c4: 87 31 04 00  	fld	ft3, 0(s0)
      c8: d3 f0 a0 12  	fmul.d	ft1, ft1, fa0
      cc: c3 f0 20 1a  	fmadd.d	ft1, ft1, ft2, ft3
      d0: 27 30 14 00  	fsd	ft1, 0(s0)
      d4: 87 b0 0c 00  	fld	ft1, 0(s9)
      d8: 07 b1 04 00  	fld	ft2, 0(s1)
      dc: 87 b1 0b 00  	fld	ft3, 0(s7)
      e0: c3 f0 20 1a  	fmadd.d	ft1, ft1, ft2, ft3
      e4: 27 b0 1b 00  	fsd	ft1, 0(s7)
      e8: 1e 94        	add	s0, s0, t2
      ea: 9e 9c        	add	s9, s9, t2
      ec: 7d 1c        	addi	s8, s8, -1
      ee: a1 04        	addi	s1, s1, 8
      f0: 63 10 0c 00  	bnez	s8, 0xf0 <.LBB0_8+0x34>
      f4: 01 a0        	j	0xf4 <.LBB0_8+0x38>

00000000000000f6 <.LBB0_9>:
      f6: 73 26 20 c0  	rdinstret	a2
      fa: 83 35 08 00  	ld	a1, 0(a6)
      fe: b7 06 00 00  	lui	a3, 0
     102: 37 05 00 00  	lui	a0, 0
     106: 13 05 05 00  	mv	a0, a0
     10a: 23 b0 c6 00  	sd	a2, 0(a3)
     10e: 26 64        	ld	s0, 72(sp)
     110: 86 64        	ld	s1, 64(sp)
     112: 62 79        	ld	s2, 56(sp)
     114: c2 79        	ld	s3, 48(sp)
     116: 22 7a        	ld	s4, 40(sp)
     118: 82 7a        	ld	s5, 32(sp)
     11a: 62 6b        	ld	s6, 24(sp)
     11c: c2 6b        	ld	s7, 16(sp)
     11e: 22 6c        	ld	s8, 8(sp)
     120: 82 6c        	ld	s9, 0(sp)
     122: 61 61        	addi	sp, sp, 80
     124: 17 03 00 00  	auipc	t1, 0
     128: 67 00 03 00  	jr	t1
