
kernel.o:     file format elf64-littleriscv


Disassembly of section .text:

0000000000000000 <core>:
   0:	7179                	addi	sp,sp,-48
   2:	f422                	sd	s0,40(sp)
   4:	f026                	sd	s1,32(sp)
   6:	ec4a                	sd	s2,24(sp)
   8:	e84e                	sd	s3,16(sp)
   a:	e452                	sd	s4,8(sp)
   c:	c0202873          	rdinstret	a6
  10:	000002b7          	lui	t0,0x0
  14:	0102b023          	sd	a6,0(t0) # 0 <core>
  18:	12a05963          	blez	a0,14a <.L2>
  1c:	fff5091b          	addiw	s2,a0,-1
  20:	02091413          	slli	s0,s2,0x20
  24:	807d                	srli	s0,s0,0x1f
  26:	00278f93          	addi	t6,a5,2
  2a:	0006049b          	sext.w	s1,a2
  2e:	8ebe                	mv	t4,a5
  30:	83b6                	mv	t2,a3
  32:	947e                	add	s0,s0,t6
  34:	00151f13          	slli	t5,a0,0x1

0000000000000038 <.L5>:
  38:	000e9023          	sh	zero,0(t4)
  3c:	14b05063          	blez	a1,17c <.L14>
  40:	831e                	mv	t1,t2
  42:	4801                	li	a6,0
  44:	4881                	li	a7,0

0000000000000046 <.L4>:
  46:	00035e03          	lhu	t3,0(t1)
  4a:	2885                	addiw	a7,a7,1
  4c:	937a                	add	t1,t1,t5
  4e:	010e083b          	addw	a6,t3,a6
  52:	0108181b          	slliw	a6,a6,0x10
  56:	4108581b          	sraiw	a6,a6,0x10
  5a:	010e9023          	sh	a6,0(t4)
  5e:	ff1594e3          	bne	a1,a7,46 <.L4>
  62:	0298483b          	divw	a6,a6,s1
  66:	0108181b          	slliw	a6,a6,0x10
  6a:	4108581b          	sraiw	a6,a6,0x10

000000000000006e <.L3>:
  6e:	010e9023          	sh	a6,0(t4)
  72:	0e89                	addi	t4,t4,2
  74:	0389                	addi	t2,t2,2
  76:	fc8e91e3          	bne	t4,s0,38 <.L5>
  7a:	02b05b63          	blez	a1,b0 <.L7>
  7e:	02091e93          	slli	t4,s2,0x20
  82:	01fede93          	srli	t4,t4,0x1f
  86:	9efe                	add	t4,t4,t6
  88:	83b6                	mv	t2,a3
  8a:	4f81                	li	t6,0

000000000000008c <.L13>:
  8c:	88be                	mv	a7,a5
  8e:	881e                	mv	a6,t2

0000000000000090 <.L8>:
  90:	00085303          	lhu	t1,0(a6)
  94:	0008de03          	lhu	t3,0(a7)
  98:	0809                	addi	a6,a6,2
  9a:	0889                	addi	a7,a7,2
  9c:	41c3033b          	subw	t1,t1,t3
  a0:	fe681f23          	sh	t1,-2(a6)
  a4:	ff1e96e3          	bne	t4,a7,90 <.L8>
  a8:	2f85                	addiw	t6,t6,1
  aa:	93fa                	add	t2,t2,t5
  ac:	febfc0e3          	blt	t6,a1,8c <.L13>

00000000000000b0 <.L7>:
  b0:	000007b7          	lui	a5,0x0
  b4:	d2060753          	fcvt.d.w	fa4,a2
  b8:	0007b787          	fld	fa5,0(a5) # 0 <core>
  bc:	00150913          	addi	s2,a0,1
  c0:	0906                	slli	s2,s2,0x1
  c2:	0af777d3          	fsub.d	fa5,fa4,fa5
  c6:	89ba                	mv	s3,a4
  c8:	8436                	mv	s0,a3
  ca:	ffe90e93          	addi	t4,s2,-2
  ce:	4f01                	li	t5,0
  d0:	4a01                	li	s4,0
  d2:	c20794d3          	fcvt.w.d	s1,fa5,rtz
  d6:	0104949b          	slliw	s1,s1,0x10
  da:	4104d49b          	sraiw	s1,s1,0x10

00000000000000de <.L12>:
  de:	41e00e33          	neg	t3,t5
  e2:	83ce                	mv	t2,s3
  e4:	834e                	mv	t1,s3
  e6:	8fd2                	mv	t6,s4

00000000000000e8 <.L11>:
  e8:	00031023          	sh	zero,0(t1)
  ec:	08b05663          	blez	a1,178 <.L15>
  f0:	8722                	mv	a4,s0
  f2:	4781                	li	a5,0
  f4:	4801                	li	a6,0

00000000000000f6 <.L10>:
  f6:	01e70633          	add	a2,a4,t5
  fa:	9672                	add	a2,a2,t3
  fc:	00075883          	lhu	a7,0(a4)
 100:	00065683          	lhu	a3,0(a2)
 104:	2805                	addiw	a6,a6,1
 106:	9776                	add	a4,a4,t4
 108:	031686bb          	mulw	a3,a3,a7
 10c:	9fb5                	addw	a5,a5,a3
 10e:	0107979b          	slliw	a5,a5,0x10
 112:	4107d79b          	sraiw	a5,a5,0x10
 116:	00f31023          	sh	a5,0(t1)
 11a:	fd059ee3          	bne	a1,a6,f6 <.L10>
 11e:	0297c7bb          	divw	a5,a5,s1
 122:	0107979b          	slliw	a5,a5,0x10
 126:	4107d79b          	sraiw	a5,a5,0x10

000000000000012a <.L9>:
 12a:	00f31023          	sh	a5,0(t1)
 12e:	00f39023          	sh	a5,0(t2)
 132:	2f85                	addiw	t6,t6,1
 134:	0309                	addi	t1,t1,2
 136:	93f6                	add	t2,t2,t4
 138:	0e09                	addi	t3,t3,2
 13a:	faafc7e3          	blt	t6,a0,e8 <.L11>
 13e:	2a05                	addiw	s4,s4,1
 140:	99ca                	add	s3,s3,s2
 142:	0409                	addi	s0,s0,2
 144:	1f79                	addi	t5,t5,-2
 146:	f9451ce3          	bne	a0,s4,de <.L12>

000000000000014a <.L2>:
 14a:	c02027f3          	rdinstret	a5
 14e:	7422                	ld	s0,40(sp)
 150:	7482                	ld	s1,32(sp)
 152:	6962                	ld	s2,24(sp)
 154:	69c2                	ld	s3,16(sp)
 156:	6a22                	ld	s4,8(sp)
 158:	0002b583          	ld	a1,0(t0)
 15c:	00000737          	lui	a4,0x0
 160:	00000537          	lui	a0,0x0
 164:	00f73023          	sd	a5,0(a4) # 0 <core>
 168:	863e                	mv	a2,a5
 16a:	00050513          	mv	a0,a0
 16e:	6145                	addi	sp,sp,48
 170:	00000317          	auipc	t1,0x0
 174:	00030067          	jr	t1 # 170 <.L2+0x26>

0000000000000178 <.L15>:
 178:	4781                	li	a5,0
 17a:	bf45                	j	12a <.L9>

000000000000017c <.L14>:
 17c:	4801                	li	a6,0
 17e:	bdc5                	j	6e <.L3>
