
kernel.o:     file format elf64-littleriscv


Disassembly of section .text:

0000000000000000 <core>:
   0:	000007b7          	lui	a5,0x0
   4:	0007b787          	fld	fa5,0(a5) # 0 <core>
   8:	4805                	li	a6,1
   a:	e2050e53          	fmv.x.d	t3,fa0
   e:	0af577d3          	fsub.d	fa5,fa0,fa5
  12:	e20787d3          	fmv.x.d	a5,fa5
  16:	c02028f3          	rdinstret	a7
  1a:	7806708b          	ss.sta.ld.d.v	u1,a2
  1e:	82a0008b          	ss.app	u1,zero,a0,a6
  22:	54b0008b          	ss.end	u1,zero,a1,a0
  26:	0007310b          	ss.sta.st.d	u2,a4
  2a:	84a0010b          	ss.end	u2,zero,a0,a6
  2e:	a98e31ab          	so.v.mvsv.d	u3,t3

0000000000000032 <.SLOOP_116>:
  32:	a980322b          	so.v.mvsv.d	u4,zero

0000000000000036 <.SLOOP_1_016>:
  36:	2010922b          	so.a.adde.acc.fp	u4,u1,p0
  3a:	ffd09eab          	so.b.ndc.2	u1,36 <.SLOOP_1_016>
  3e:	1032512b          	so.a.div.fp	u2,u4,u3,p0
  42:	ffd0f8ab          	so.b.nc	u1,32 <.SLOOP_116>
  46:	7806308b          	ss.sta.st.d.v	u1,a2
  4a:	52b0008b          	ss.app	u1,zero,a1,a0
  4e:	84a0008b          	ss.end	u1,zero,a0,a6
  52:	7807710b          	ss.sta.ld.d.v	u2,a4
  56:	02b0010b          	ss.app	u2,zero,a1,zero
  5a:	84a0010b          	ss.end	u2,zero,a0,a6
  5e:	7806718b          	ss.sta.ld.d.v	u3,a2
  62:	52b0018b          	ss.app	u3,zero,a1,a0
  66:	84a0018b          	ss.end	u3,zero,a0,a6

000000000000006a <.SLOOP_216>:
  6a:	0021d0ab          	so.a.sub.fp	u1,u3,u2,p0
  6e:	ffd0feab          	so.b.nc	u1,6a <.SLOOP_216>
  72:	f806708b          	ss.sta.ld.d.v.m	u1,a2
  76:	82a0008b          	ss.app	u1,zero,a0,a6
  7a:	8240c08b          	ss.app.mod.siz.dec.2	u1,a6
  7e:	82a0008b          	ss.app	u1,zero,a0,a6
  82:	54b0008b          	ss.end	u1,zero,a1,a0
  86:	f806710b          	ss.sta.ld.d.v.m	u2,a2
  8a:	82a0010b          	ss.app	u2,zero,a0,a6
  8e:	8240c10b          	ss.app.mod.siz.dec.2	u2,a6
  92:	02a0010b          	ss.app	u2,zero,a0,zero
  96:	54b0010b          	ss.end	u2,zero,a1,a0
  9a:	0006b18b          	ss.sta.st.d	u3,a3
  9e:	52a0018b          	ss.app	u3,zero,a0,a0
  a2:	8220c18b          	ss.app.mod.ofs.inc.2	u3,a6
  a6:	8240c18b          	ss.app.mod.siz.dec.2	u3,a6
  aa:	84a0018b          	ss.end	u3,zero,a0,a6
  ae:	0006b20b          	ss.sta.st.d	u4,a3
  b2:	82a0020b          	ss.app	u4,zero,a0,a6
  b6:	5220c20b          	ss.app.mod.ofs.inc.2	u4,a0
  ba:	8240c20b          	ss.app.mod.siz.dec.2	u4,a6
  be:	54a0020b          	ss.end	u4,zero,a0,a0
  c2:	a987b2ab          	so.v.mvsv.d	u5,a5

00000000000000c6 <.SLOOP_316>:
  c6:	ac00332b          	so.v.dp.d	u6,zero,p0

00000000000000ca <.SLOOP_3_0_016>:
  ca:	3011532b          	so.a.mac.fp	u6,u2,u1,p0
  ce:	ffd12eab          	so.b.ndc.3	u2,ca <.SLOOP_3_0_016>
  d2:	200313ab          	so.a.adde.fp	u7,u6,p0
  d6:	1053d42b          	so.a.div.fp	u8,u7,u5,p0
  da:	a80401ab          	so.v.mv	u3,u8,p0
  de:	a804022b          	so.v.mv	u4,u8,p0
  e2:	ffd0f2ab          	so.b.nc	u1,c6 <.SLOOP_316>
  e6:	c0202373          	rdinstret	t1
  ea:	000007b7          	lui	a5,0x0
  ee:	00000537          	lui	a0,0x0
  f2:	0117b023          	sd	a7,0(a5) # 0 <core>
  f6:	861a                	mv	a2,t1
  f8:	000007b7          	lui	a5,0x0
  fc:	85c6                	mv	a1,a7
  fe:	00050513          	mv	a0,a0
 102:	0067b023          	sd	t1,0(a5) # 0 <core>
 106:	00000317          	auipc	t1,0x0
 10a:	00030067          	jr	t1 # 106 <.SLOOP_3_0_016+0x3c>
