
kernel.o:     file format elf64-littleriscv


Disassembly of section .text:

0000000000000000 <core>:
   0:	c02027f3          	rdinstret	a5
   4:	219c                	fld	fa5,0(a1)
   6:	00000e37          	lui	t3,0x0
   a:	00fe3023          	sd	a5,0(t3) # 0 <core>
   e:	a21c                	fsd	fa5,0(a2)
  10:	2118                	fld	fa4,0(a0)
  12:	19850893          	addi	a7,a0,408
  16:	00860693          	addi	a3,a2,8
  1a:	1ae7f7d3          	fdiv.d	fa5,fa5,fa4
  1e:	19050513          	addi	a0,a0,400
  22:	4805                	li	a6,1
  24:	03200313          	li	t1,50
  28:	a21c                	fsd	fa5,0(a2)

000000000000002a <.L3>:
  2a:	40c687b3          	sub	a5,a3,a2
  2e:	97ae                	add	a5,a5,a1
  30:	239c                	fld	fa5,0(a5)
  32:	872a                	mv	a4,a0
  34:	87b2                	mv	a5,a2
  36:	a29c                	fsd	fa5,0(a3)

0000000000000038 <.L2>:
  38:	2314                	fld	fa3,0(a4)
  3a:	2398                	fld	fa4,0(a5)
  3c:	07a1                	addi	a5,a5,8
  3e:	0721                	addi	a4,a4,8
  40:	7ae6f7cb          	fnmsub.d	fa5,fa3,fa4,fa5
  44:	a29c                	fsd	fa5,0(a3)
  46:	fed799e3          	bne	a5,a3,38 <.L2>
  4a:	0008b707          	fld	fa4,0(a7)
  4e:	2805                	addiw	a6,a6,1
  50:	19888893          	addi	a7,a7,408
  54:	1ae7f7d3          	fdiv.d	fa5,fa5,fa4
  58:	19050513          	addi	a0,a0,400
  5c:	00878693          	addi	a3,a5,8
  60:	a39c                	fsd	fa5,0(a5)
  62:	fc6814e3          	bne	a6,t1,2a <.L3>
  66:	c02027f3          	rdinstret	a5
  6a:	000e3583          	ld	a1,0(t3)
  6e:	00000537          	lui	a0,0x0
  72:	00000737          	lui	a4,0x0
  76:	863e                	mv	a2,a5
  78:	00050513          	mv	a0,a0
  7c:	00f73023          	sd	a5,0(a4) # 0 <core>
  80:	00000317          	auipc	t1,0x0
  84:	00030067          	jr	t1 # 80 <.L2+0x48>
