
kernel.o:	file format elf64-littleriscv

Disassembly of section .text:

0000000000000000 <.text>:
       0: 01 00        	nop

0000000000000002 <core>:
       2: 1d 71        	addi	sp, sp, -96
       4: a2 ec        	sd	s0, 88(sp)
       6: a6 e8        	sd	s1, 80(sp)
       8: ca e4        	sd	s2, 72(sp)
       a: ce e0        	sd	s3, 64(sp)
       c: 52 fc        	sd	s4, 56(sp)
       e: 56 f8        	sd	s5, 48(sp)
      10: 5a f4        	sd	s6, 40(sp)
      12: 5e f0        	sd	s7, 32(sp)
      14: 62 ec        	sd	s8, 24(sp)
      16: 66 e8        	sd	s9, 16(sp)
      18: 6a e4        	sd	s10, 8(sp)
      1a: f3 24 20 c0  	rdinstret	s1
      1e: b7 02 00 00  	lui	t0, 0
      22: 23 b0 92 00  	sd	s1, 0(t0)
      26: 63 80 07 00  	beqz	a5, 0x26 <core+0x24>
      2a: 01 43        	li	t1, 0
      2c: f3 23 20 c2  	csrr	t2, vlenb
      30: 32 8e        	mv	t3, a2
      32: 01 a0        	j	0x32 <core+0x30>

0000000000000034 <.LBB0_2>:
      34: 05 03        	addi	t1, t1, 1
      36: 3e 9e        	add	t3, t3, a5
      38: 63 00 f3 00  	beq	t1, a5, 0x38 <.LBB0_2+0x4>

000000000000003c <.LBB0_3>:
      3c: 63 00 08 00  	beqz	a6, 0x3c <.LBB0_3>
      40: f3 2f 20 c2  	csrr	t6, vlenb
      44: 63 70 f8 01  	bgeu	a6, t6, 0x44 <.LBB0_3+0x8>
      48: 01 4f        	li	t5, 0
      4a: 01 a0        	j	0x4a <.LBB0_3+0xe>

000000000000004c <.LBB0_6>:
      4c: 93 84 ff ff  	addi	s1, t6, -1
      50: b3 7e 98 00  	and	t4, a6, s1
      54: 33 0f d8 41  	sub	t5, a6, t4
      58: 57 74 00 0c  	vsetvli	s0, zero, e8, m1, ta, ma
      5c: fa 84        	mv	s1, t5
      5e: 72 84        	mv	s0, t3

0000000000000060 <.LBB0_7>:
      60: 07 04 84 02  	vl1r.v	v8, (s0)
      64: 57 e4 85 96  	vmul.vx	v8, v8, a1
      68: 27 04 84 02  	vs1r.v	v8, (s0)
      6c: b3 84 f4 41  	sub	s1, s1, t6
      70: 7e 94        	add	s0, s0, t6
      72: 81 e0        	bnez	s1, 0x72 <.LBB0_7+0x12>
      74: 63 80 0e 00  	beqz	t4, 0x74 <.LBB0_7+0x14>

0000000000000078 <.LBB0_9>:
      78: b3 04 ee 01  	add	s1, t3, t5
      7c: b3 0e e8 41  	sub	t4, a6, t5

0000000000000080 <.LBB0_10>:
      80: 03 84 04 00  	lb	s0, 0(s1)
      84: 3b 04 b4 02  	mulw	s0, s0, a1
      88: 23 80 84 00  	sb	s0, 0(s1)
      8c: fd 1e        	addi	t4, t4, -1
      8e: 85 04        	addi	s1, s1, 1
      90: 63 90 0e 00  	bnez	t4, 0x90 <.LBB0_10+0x10>

0000000000000094 <.LBB0_11>:
      94: 63 80 08 00  	beqz	a7, 0x94 <.LBB0_11>
      98: 81 4e        	li	t4, 0
      9a: 33 0f f3 02  	mul	t5, t1, a5
      9e: b3 0f e6 01  	add	t6, a2, t5
      a2: b3 09 06 01  	add	s3, a2, a6
      a6: fa 99        	add	s3, s3, t5
      a8: 13 09 1f 00  	addi	s2, t5, 1
      ac: ba 8a        	mv	s5, a4
      ae: 01 a0        	j	0xae <.LBB0_11+0x1a>

00000000000000b0 <.LBB0_13>:
      b0: 85 0e        	addi	t4, t4, 1
      b2: c6 9a        	add	s5, s5, a7
      b4: 63 80 1e 01  	beq	t4, a7, 0xb4 <.LBB0_13+0x4>

00000000000000b8 <.LBB0_14>:
      b8: 63 00 08 00  	beqz	a6, 0xb8 <.LBB0_14>
      bc: c1 44        	li	s1, 16
      be: 1e 84        	mv	s0, t2
      c0: 63 e0 74 00  	bltu	s1, t2, 0xc0 <.LBB0_14+0x8>
      c4: 41 44        	li	s0, 16

00000000000000c6 <.LBB0_17>:
      c6: b3 0b df 01  	add	s7, t5, t4
      ca: b6 9b        	add	s7, s7, a3
      cc: 63 60 88 00  	bltu	a6, s0, 0xcc <.LBB0_17+0x6>
      d0: 33 04 d9 01  	add	s0, s2, t4
      d4: 33 8b 86 00  	add	s6, a3, s0
      d8: b3 84 1e 03  	mul	s1, t4, a7
      dc: 33 0a 97 00  	add	s4, a4, s1
      e0: 33 04 07 01  	add	s0, a4, a6
      e4: 33 0c 94 00  	add	s8, s0, s1
      e8: b3 b4 6f 01  	sltu	s1, t6, s6
      ec: 33 b4 3b 01  	sltu	s0, s7, s3
      f0: 33 fb 84 00  	and	s6, s1, s0
      f4: b3 b4 8f 01  	sltu	s1, t6, s8
      f8: 33 34 3a 01  	sltu	s0, s4, s3
      fc: 65 8c        	and	s0, s0, s1
      fe: 33 64 8b 00  	or	s0, s6, s0
     102: 01 c0        	beqz	s0, 0x102 <.LBB0_17+0x3c>

0000000000000104 <.LBB0_19>:
     104: 01 4a        	li	s4, 0

0000000000000106 <.LBB0_20>:
     106: b3 04 4e 01  	add	s1, t3, s4
     10a: 33 8b 4a 01  	add	s6, s5, s4
     10e: 33 0d 48 41  	sub	s10, a6, s4

0000000000000112 <.LBB0_21>:
     112: 03 8a 0b 00  	lb	s4, 0(s7)
     116: 03 0c 0b 00  	lb	s8, 0(s6)
     11a: 83 8c 04 00  	lb	s9, 0(s1)
     11e: 3b 04 aa 02  	mulw	s0, s4, a0
     122: 3b 04 84 03  	mulw	s0, s0, s8
     126: 66 94        	add	s0, s0, s9
     128: 23 80 84 00  	sb	s0, 0(s1)
     12c: 85 04        	addi	s1, s1, 1
     12e: 7d 1d        	addi	s10, s10, -1
     130: 05 0b        	addi	s6, s6, 1
     132: 63 10 0d 00  	bnez	s10, 0x132 <.LBB0_21+0x20>
     136: 01 a0        	j	0x136 <.LBB0_21+0x24>

0000000000000138 <.LBB0_22>:
     138: f3 2c 20 c2  	csrr	s9, vlenb
     13c: 03 84 0b 00  	lb	s0, 0(s7)
     140: 93 84 fc ff  	addi	s1, s9, -1
     144: 33 7b 98 00  	and	s6, a6, s1
     148: 33 0a 68 41  	sub	s4, a6, s6
     14c: 33 0c a4 02  	mul	s8, s0, a0
     150: 57 74 00 0c  	vsetvli	s0, zero, e8, m1, ta, ma
     154: 52 8d        	mv	s10, s4
     156: f2 84        	mv	s1, t3
     158: 56 84        	mv	s0, s5

000000000000015a <.LBB0_23>:
     15a: 07 04 84 02  	vl1r.v	v8, (s0)
     15e: 87 84 84 02  	vl1r.v	v9, (s1)
     162: d7 64 8c b6  	vmacc.vx	v9, s8, v8
     166: a7 84 84 02  	vs1r.v	v9, (s1)
     16a: 66 94        	add	s0, s0, s9
     16c: 33 0d 9d 41  	sub	s10, s10, s9
     170: e6 94        	add	s1, s1, s9
     172: 63 10 0d 00  	bnez	s10, 0x172 <.LBB0_23+0x18>
     176: 63 10 0b 00  	bnez	s6, 0x176 <.LBB0_23+0x1c>
     17a: 01 a0        	j	0x17a <.LBB0_23+0x20>

000000000000017c <.LBB0_25>:
     17c: 73 26 20 c0  	rdinstret	a2
     180: 83 b5 02 00  	ld	a1, 0(t0)
     184: b7 06 00 00  	lui	a3, 0
     188: 37 05 00 00  	lui	a0, 0
     18c: 13 05 05 00  	mv	a0, a0
     190: 23 b0 c6 00  	sd	a2, 0(a3)
     194: 66 64        	ld	s0, 88(sp)
     196: c6 64        	ld	s1, 80(sp)
     198: 26 69        	ld	s2, 72(sp)
     19a: 86 69        	ld	s3, 64(sp)
     19c: 62 7a        	ld	s4, 56(sp)
     19e: c2 7a        	ld	s5, 48(sp)
     1a0: 22 7b        	ld	s6, 40(sp)
     1a2: 82 7b        	ld	s7, 32(sp)
     1a4: 62 6c        	ld	s8, 24(sp)
     1a6: c2 6c        	ld	s9, 16(sp)
     1a8: 22 6d        	ld	s10, 8(sp)
     1aa: 25 61        	addi	sp, sp, 96
     1ac: 17 03 00 00  	auipc	t1, 0
     1b0: 67 00 03 00  	jr	t1
