
kernel.o:	file format elf64-littleriscv

Disassembly of section .text:

0000000000000000 <.text>:
       0: 01 00        	nop

0000000000000002 <core>:
       2: 73 27 20 c0  	rdinstret	a4
       6: 37 08 00 00  	lui	a6, 0
       a: 23 30 e8 00  	sd	a4, 0(a6)
       e: 63 80 06 00  	beqz	a3, 0xe <core+0xc>
      12: 73 23 20 c2  	csrr	t1, vlenb
      16: 13 57 33 00  	srli	a4, t1, 3
      1a: a1 47        	li	a5, 8
      1c: 63 e0 e7 00  	bltu	a5, a4, 0x1c <core+0x1a>
      20: 21 47        	li	a4, 8

0000000000000022 <.LBB0_3>:
      22: 63 e0 e6 00  	bltu	a3, a4, 0x22 <.LBB0_3>
      26: 33 07 a6 40  	sub	a4, a2, a0
      2a: 63 70 67 00  	bgeu	a4, t1, 0x2a <.LBB0_3+0x8>

000000000000002e <.LBB0_5>:
      2e: 81 42        	li	t0, 0

0000000000000030 <.LBB0_6>:
      30: 13 97 32 00  	slli	a4, t0, 3
      34: b3 08 e6 00  	add	a7, a2, a4
      38: 2a 97        	add	a4, a4, a0
      3a: b3 87 56 40  	sub	a5, a3, t0

000000000000003e <.LBB0_7>:
      3e: 07 30 07 00  	fld	ft0, 0(a4)
      42: 27 b0 08 00  	fsd	ft0, 0(a7)
      46: a1 08        	addi	a7, a7, 8
      48: fd 17        	addi	a5, a5, -1
      4a: 21 07        	addi	a4, a4, 8
      4c: 81 e3        	bnez	a5, 0x4c <.LBB0_7+0xe>

000000000000004e <.LBB0_8>:
      4e: 81 c2        	beqz	a3, 0x4e <.LBB0_8>
      50: 13 57 33 00  	srli	a4, t1, 3
      54: 99 47        	li	a5, 6
      56: 63 e0 e7 00  	bltu	a5, a4, 0x56 <.LBB0_8+0x8>
      5a: 19 47        	li	a4, 6

000000000000005c <.LBB0_11>:
      5c: 63 e0 e6 00  	bltu	a3, a4, 0x5c <.LBB0_11>
      60: 33 87 c5 40  	sub	a4, a1, a2
      64: 63 70 67 00  	bgeu	a4, t1, 0x64 <.LBB0_11+0x8>

0000000000000068 <.LBB0_13>:
      68: 81 42        	li	t0, 0

000000000000006a <.LBB0_14>:
      6a: 13 97 32 00  	slli	a4, t0, 3
      6e: b3 88 e5 00  	add	a7, a1, a4
      72: 32 97        	add	a4, a4, a2
      74: b3 87 56 40  	sub	a5, a3, t0

0000000000000078 <.LBB0_15>:
      78: 07 30 07 00  	fld	ft0, 0(a4)
      7c: 53 70 a0 12  	fmul.d	ft0, ft0, fa0
      80: 27 b0 08 00  	fsd	ft0, 0(a7)
      84: a1 08        	addi	a7, a7, 8
      86: fd 17        	addi	a5, a5, -1
      88: 21 07        	addi	a4, a4, 8
      8a: 81 e3        	bnez	a5, 0x8a <.LBB0_15+0x12>

000000000000008c <.LBB0_16>:
      8c: 81 c2        	beqz	a3, 0x8c <.LBB0_16>
      8e: 13 57 33 00  	srli	a4, t1, 3
      92: a9 47        	li	a5, 10
      94: 63 e0 e7 00  	bltu	a5, a4, 0x94 <.LBB0_16+0x8>
      98: 29 47        	li	a4, 10

000000000000009a <.LBB0_19>:
      9a: 63 e0 e6 00  	bltu	a3, a4, 0x9a <.LBB0_19>
      9e: 33 07 a6 40  	sub	a4, a2, a0
      a2: 33 37 67 00  	sltu	a4, a4, t1
      a6: b3 07 b6 40  	sub	a5, a2, a1
      aa: b3 b7 67 00  	sltu	a5, a5, t1
      ae: 5d 8f        	or	a4, a4, a5
      b0: 63 00 07 00  	beqz	a4, 0xb0 <.LBB0_19+0x16>

00000000000000b4 <.LBB0_21>:
      b4: 81 42        	li	t0, 0

00000000000000b6 <.LBB0_22>:
      b6: 13 97 32 00  	slli	a4, t0, 3
      ba: b3 08 e6 00  	add	a7, a2, a4
      be: b3 83 e5 00  	add	t2, a1, a4
      c2: 2a 97        	add	a4, a4, a0
      c4: b3 87 56 40  	sub	a5, a3, t0

00000000000000c8 <.LBB0_23>:
      c8: 07 30 07 00  	fld	ft0, 0(a4)
      cc: 87 b0 03 00  	fld	ft1, 0(t2)
      d0: 53 f0 00 02  	fadd.d	ft0, ft1, ft0
      d4: 27 b0 08 00  	fsd	ft0, 0(a7)
      d8: a1 08        	addi	a7, a7, 8
      da: a1 03        	addi	t2, t2, 8
      dc: fd 17        	addi	a5, a5, -1
      de: 21 07        	addi	a4, a4, 8
      e0: 81 e3        	bnez	a5, 0xe0 <.LBB0_23+0x18>

00000000000000e2 <.LBB0_24>:
      e2: 81 c2        	beqz	a3, 0xe2 <.LBB0_24>
      e4: 13 57 33 00  	srli	a4, t1, 3
      e8: a1 47        	li	a5, 8
      ea: 63 e0 e7 00  	bltu	a5, a4, 0xea <.LBB0_24+0x8>
      ee: 21 47        	li	a4, 8

00000000000000f0 <.LBB0_27>:
      f0: 63 e0 e6 00  	bltu	a3, a4, 0xf0 <.LBB0_27>
      f4: 33 07 b5 40  	sub	a4, a0, a1
      f8: 33 37 67 00  	sltu	a4, a4, t1
      fc: b3 07 c5 40  	sub	a5, a0, a2
     100: b3 b7 67 00  	sltu	a5, a5, t1
     104: 5d 8f        	or	a4, a4, a5
     106: 01 c3        	beqz	a4, 0x106 <.LBB0_27+0x16>

0000000000000108 <.LBB0_29>:
     108: 81 42        	li	t0, 0

000000000000010a <.LBB0_30>:
     10a: 13 97 32 00  	slli	a4, t0, 3
     10e: 3a 95        	add	a0, a0, a4
     110: 3a 96        	add	a2, a2, a4
     112: ba 95        	add	a1, a1, a4
     114: b3 86 56 40  	sub	a3, a3, t0

0000000000000118 <.LBB0_31>:
     118: 07 b0 05 00  	fld	ft0, 0(a1)
     11c: 87 30 06 00  	fld	ft1, 0(a2)
     120: 43 f0 a0 02  	fmadd.d	ft0, ft1, fa0, ft0
     124: 27 30 05 00  	fsd	ft0, 0(a0)
     128: 21 05        	addi	a0, a0, 8
     12a: 21 06        	addi	a2, a2, 8
     12c: fd 16        	addi	a3, a3, -1
     12e: a1 05        	addi	a1, a1, 8
     130: 81 e2        	bnez	a3, 0x130 <.LBB0_31+0x18>

0000000000000132 <.LBB0_32>:
     132: 73 26 20 c0  	rdinstret	a2
     136: 83 35 08 00  	ld	a1, 0(a6)
     13a: b7 06 00 00  	lui	a3, 0
     13e: 37 05 00 00  	lui	a0, 0
     142: 13 05 05 00  	mv	a0, a0
     146: 23 b0 c6 00  	sd	a2, 0(a3)
     14a: 17 03 00 00  	auipc	t1, 0
     14e: 67 00 03 00  	jr	t1

0000000000000152 <.LBB0_33>:
     152: 93 53 33 00  	srli	t2, t1, 3
     156: 13 87 f3 ff  	addi	a4, t2, -1
     15a: b3 f8 e6 00  	and	a7, a3, a4
     15e: b3 82 16 41  	sub	t0, a3, a7
     162: 16 8e        	mv	t3, t0
     164: b2 87        	mv	a5, a2
     166: 2a 87        	mv	a4, a0

0000000000000168 <.LBB0_34>:
     168: 07 74 87 02  	vl1re64.v	v8, (a4)
     16c: 27 84 87 02  	vs1r.v	v8, (a5)
     170: 1a 97        	add	a4, a4, t1
     172: 33 0e 7e 40  	sub	t3, t3, t2
     176: 9a 97        	add	a5, a5, t1
     178: 63 10 0e 00  	bnez	t3, 0x178 <.LBB0_34+0x10>
     17c: 63 90 08 00  	bnez	a7, 0x17c <.LBB0_34+0x14>
     180: 01 a0        	j	0x180 <.LBB0_34+0x18>

0000000000000182 <.LBB0_36>:
     182: 93 53 33 00  	srli	t2, t1, 3
     186: 13 87 f3 ff  	addi	a4, t2, -1
     18a: b3 f8 e6 00  	and	a7, a3, a4
     18e: b3 82 16 41  	sub	t0, a3, a7
     192: 57 77 80 0d  	vsetvli	a4, zero, e64, m1, ta, ma
     196: 16 8e        	mv	t3, t0
     198: ae 87        	mv	a5, a1
     19a: 32 87        	mv	a4, a2

000000000000019c <.LBB0_37>:
     19c: 07 74 87 02  	vl1re64.v	v8, (a4)
     1a0: 57 54 85 92  	vfmul.vf	v8, v8, fa0
     1a4: 27 84 87 02  	vs1r.v	v8, (a5)
     1a8: 1a 97        	add	a4, a4, t1
     1aa: 33 0e 7e 40  	sub	t3, t3, t2
     1ae: 9a 97        	add	a5, a5, t1
     1b0: 63 10 0e 00  	bnez	t3, 0x1b0 <.LBB0_37+0x14>
     1b4: 63 90 08 00  	bnez	a7, 0x1b4 <.LBB0_37+0x18>
     1b8: 01 a0        	j	0x1b8 <.LBB0_37+0x1c>

00000000000001ba <.LBB0_39>:
     1ba: 93 53 33 00  	srli	t2, t1, 3
     1be: 13 87 f3 ff  	addi	a4, t2, -1
     1c2: b3 f8 e6 00  	and	a7, a3, a4
     1c6: b3 82 16 41  	sub	t0, a3, a7
     1ca: 57 77 80 0d  	vsetvli	a4, zero, e64, m1, ta, ma
     1ce: 16 8e        	mv	t3, t0
     1d0: b2 8e        	mv	t4, a2
     1d2: ae 87        	mv	a5, a1
     1d4: 2a 87        	mv	a4, a0

00000000000001d6 <.LBB0_40>:
     1d6: 07 74 87 02  	vl1re64.v	v8, (a4)
     1da: 87 f4 87 02  	vl1re64.v	v9, (a5)
     1de: 57 14 94 02  	vfadd.vv	v8, v9, v8
     1e2: 27 84 8e 02  	vs1r.v	v8, (t4)
     1e6: 1a 97        	add	a4, a4, t1
     1e8: 9a 97        	add	a5, a5, t1
     1ea: 33 0e 7e 40  	sub	t3, t3, t2
     1ee: 9a 9e        	add	t4, t4, t1
     1f0: 63 10 0e 00  	bnez	t3, 0x1f0 <.LBB0_40+0x1a>
     1f4: 63 90 08 00  	bnez	a7, 0x1f4 <.LBB0_40+0x1e>
     1f8: 01 a0        	j	0x1f8 <.LBB0_40+0x22>

00000000000001fa <.LBB0_42>:
     1fa: 93 53 33 00  	srli	t2, t1, 3
     1fe: 13 87 f3 ff  	addi	a4, t2, -1
     202: b3 f8 e6 00  	and	a7, a3, a4
     206: b3 82 16 41  	sub	t0, a3, a7
     20a: 57 77 80 0d  	vsetvli	a4, zero, e64, m1, ta, ma
     20e: 16 8e        	mv	t3, t0
     210: aa 8e        	mv	t4, a0
     212: b2 87        	mv	a5, a2
     214: 2e 87        	mv	a4, a1

0000000000000216 <.LBB0_43>:
     216: 07 74 87 02  	vl1re64.v	v8, (a4)
     21a: 87 f4 87 02  	vl1re64.v	v9, (a5)
     21e: d7 54 85 a2  	vfmadd.vf	v9, fa0, v8
     222: a7 84 8e 02  	vs1r.v	v9, (t4)
     226: 1a 97        	add	a4, a4, t1
     228: 9a 97        	add	a5, a5, t1
     22a: 33 0e 7e 40  	sub	t3, t3, t2
     22e: 9a 9e        	add	t4, t4, t1
     230: 63 10 0e 00  	bnez	t3, 0x230 <.LBB0_43+0x1a>
     234: 63 90 08 00  	bnez	a7, 0x234 <.LBB0_43+0x1e>
     238: 01 a0        	j	0x238 <.LBB0_43+0x22>
