
kernel.o:	file format elf64-littleriscv

Disassembly of section .text:

0000000000000000 <.text>:
       0: 01 00        	nop

0000000000000002 <core>:
       2: 35 71        	addi	sp, sp, -160
       4: 06 ed        	sd	ra, 152(sp)
       6: 22 e9        	sd	s0, 144(sp)
       8: 26 e5        	sd	s1, 136(sp)
       a: 4a e1        	sd	s2, 128(sp)
       c: ce fc        	sd	s3, 120(sp)
       e: d2 f8        	sd	s4, 112(sp)
      10: d6 f4        	sd	s5, 104(sp)
      12: da f0        	sd	s6, 96(sp)
      14: de ec        	sd	s7, 88(sp)
      16: e2 e8        	sd	s8, 80(sp)
      18: e6 e4        	sd	s9, 72(sp)
      1a: ea e0        	sd	s10, 64(sp)
      1c: 6e fc        	sd	s11, 56(sp)
      1e: 3a 8d        	mv	s10, a4
      20: 73 27 20 c0  	rdinstret	a4
      24: b7 04 00 00  	lui	s1, 0
      28: 23 b0 e4 00  	sd	a4, 0(s1)
      2c: 63 50 a0 00  	blez	a0, 0x2c <core+0x2a>
      30: 93 19 05 02  	slli	s3, a0, 32
      34: 13 18 25 00  	slli	a6, a0, 2
      38: 63 50 b0 00  	blez	a1, 0x38 <core+0x36>
      3c: 7d 57        	li	a4, -1
      3e: 93 52 27 00  	srli	t0, a4, 2
      42: 93 de 09 02  	srli	t4, s3, 32
      46: f3 2c 20 c2  	csrr	s9, vlenb
      4a: 13 df 2c 00  	srli	t5, s9, 2
      4e: 91 44        	li	s1, 4
      50: 33 87 55 00  	add	a4, a1, t0
      54: 7a 83        	mv	t1, t5
      56: 63 e0 e4 01  	bltu	s1, t5, 0x56 <core+0x54>
      5a: 11 43        	li	t1, 4

000000000000005c <.LBB0_4>:
      5c: 01 49        	li	s2, 0
      5e: b3 03 d7 03  	mul	t2, a4, t4
      62: 13 17 35 00  	slli	a4, a0, 3
      66: 13 d4 3c 00  	srli	s0, s9, 3
      6a: 93 04 ff ff  	addi	s1, t5, -1
      6e: 33 fe 95 00  	and	t3, a1, s1
      72: b3 88 c5 41  	sub	a7, a1, t3
      76: 22 f0        	sd	s0, 32(sp)
      78: 33 0a 87 02  	mul	s4, a4, s0
      7c: 57 77 00 0d  	vsetvli	a4, zero, e32, m1, ta, ma
      80: 57 34 00 5e  	vmv.v.i	v8, 0
      84: b6 8f        	mv	t6, a3

0000000000000086 <.LBB0_5>:
      86: 13 17 29 00  	slli	a4, s2, 2
      8a: b3 8a e7 00  	add	s5, a5, a4
      8e: 23 a0 0a 00  	sw	zero, 0(s5)
      92: 63 e0 65 00  	bltu	a1, t1, 0x92 <.LBB0_5+0xc>
      96: 36 97        	add	a4, a4, a3
      98: 33 84 23 01  	add	s0, t2, s2
      9c: 0a 04        	slli	s0, s0, 2
      9e: b3 84 86 00  	add	s1, a3, s0
      a2: 3a 84        	mv	s0, a4
      a4: 63 e0 e4 00  	bltu	s1, a4, 0xa4 <.LBB0_5+0x1e>
      a8: 26 84        	mv	s0, s1

00000000000000aa <.LBB0_8>:
      aa: 63 60 97 00  	bltu	a4, s1, 0xaa <.LBB0_8>
      ae: 26 87        	mv	a4, s1

00000000000000b0 <.LBB0_10>:
      b0: 11 04        	addi	s0, s0, 4
      b2: 93 84 4a 00  	addi	s1, s5, 4
      b6: 33 b4 8a 00  	sltu	s0, s5, s0
      ba: 33 37 97 00  	sltu	a4, a4, s1
      be: 61 8f        	and	a4, a4, s0
      c0: 01 c3        	beqz	a4, 0xc0 <.LBB0_10+0x10>

00000000000000c2 <.LBB0_11>:
      c2: 81 44        	li	s1, 0
      c4: 01 4b        	li	s6, 0

00000000000000c6 <.LBB0_12>:
      c6: 33 07 95 02  	mul	a4, a0, s1
      ca: 4a 97        	add	a4, a4, s2
      cc: 0a 07        	slli	a4, a4, 2
      ce: 36 97        	add	a4, a4, a3
      d0: b3 84 95 40  	sub	s1, a1, s1

00000000000000d4 <.LBB0_13>:
      d4: 00 43        	lw	s0, 0(a4)
      d6: 22 9b        	add	s6, s6, s0
      d8: 23 a0 6a 01  	sw	s6, 0(s5)
      dc: fd 14        	addi	s1, s1, -1
      de: 42 97        	add	a4, a4, a6
      e0: 81 e0        	bnez	s1, 0xe0 <.LBB0_13+0xc>

00000000000000e2 <.LBB0_14>:
      e2: 3b 47 cb 02  	divw	a4, s6, a2
      e6: 23 a0 ea 00  	sw	a4, 0(s5)
      ea: 05 09        	addi	s2, s2, 1
      ec: 91 0f        	addi	t6, t6, 4
      ee: 63 10 d9 01  	bne	s2, t4, 0xee <.LBB0_14+0xc>
      f2: 01 a0        	j	0xf2 <.LBB0_14+0x10>

00000000000000f4 <.LBB0_15>:
      f4: 57 77 00 0d  	vsetvli	a4, zero, e32, m1, ta, ma
      f8: 7e 87        	mv	a4, t6
      fa: 46 84        	mv	s0, a7
      fc: d7 34 80 9e  	vmv1r.v	v9, v8

0000000000000100 <.LBB0_16>:
     100: 07 65 07 0b  	vlse32.v	v10, (a4), a6
     104: d7 04 95 02  	vadd.vv	v9, v9, v10
     108: 33 04 e4 41  	sub	s0, s0, t5
     10c: 52 97        	add	a4, a4, s4
     10e: 01 e0        	bnez	s0, 0x10e <.LBB0_16+0xe>
     110: 57 65 00 42  	vmv.s.x	v10, zero
     114: d7 24 95 02  	vredsum.vs	v9, v9, v10
     118: 57 2b 90 42  	vmv.x.s	s6, v9
     11c: 57 f0 00 cd  	vsetivli	zero, 1, e32, m1, ta, ma
     120: a7 e4 0a 02  	vse32.v	v9, (s5)
     124: c6 84        	mv	s1, a7
     126: 63 10 0e 00  	bnez	t3, 0x126 <.LBB0_16+0x26>
     12a: 01 a0        	j	0x12a <.LBB0_16+0x2a>

000000000000012c <.LBB0_18>:
     12c: 63 50 b0 00  	blez	a1, 0x12c <.LBB0_18>
     130: 63 50 a0 00  	blez	a0, 0x130 <.LBB0_18+0x4>
     134: 13 97 05 02  	slli	a4, a1, 32
     138: 93 d8 2c 00  	srli	a7, s9, 2
     13c: 91 44        	li	s1, 4
     13e: 13 93 2e 00  	slli	t1, t4, 2
     142: c6 83        	mv	t2, a7
     144: 63 e0 14 01  	bltu	s1, a7, 0x144 <.LBB0_18+0x18>
     148: 91 43        	li	t2, 4

000000000000014a <.LBB0_22>:
     14a: 01 4e        	li	t3, 0
     14c: 01 49        	li	s2, 0
     14e: 13 5b 07 02  	srli	s6, a4, 32
     152: 33 8f 67 00  	add	t5, a5, t1
     156: 13 87 f8 ff  	addi	a4, a7, -1
     15a: b3 ff ee 00  	and	t6, t4, a4
     15e: 33 8a fe 41  	sub	s4, t4, t6
     162: b6 8a        	mv	s5, a3
     164: 01 a0        	j	0x164 <.LBB0_22+0x1a>

0000000000000166 <.LBB0_23>:
     166: 05 09        	addi	s2, s2, 1
     168: c2 9a        	add	s5, s5, a6
     16a: 2a 9e        	add	t3, t3, a0
     16c: 63 00 69 01  	beq	s2, s6, 0x16c <.LBB0_23+0x6>

0000000000000170 <.LBB0_24>:
     170: 63 e0 7e 00  	bltu	t4, t2, 0x170 <.LBB0_24>
     174: 33 07 23 03  	mul	a4, t1, s2
     178: 33 04 e3 00  	add	s0, t1, a4
     17c: 36 94        	add	s0, s0, a3
     17e: 36 97        	add	a4, a4, a3
     180: 33 37 e7 01  	sltu	a4, a4, t5
     184: 33 b4 87 00  	sltu	s0, a5, s0
     188: 61 8f        	and	a4, a4, s0
     18a: 01 c3        	beqz	a4, 0x18a <.LBB0_24+0x1a>

000000000000018c <.LBB0_26>:
     18c: 01 47        	li	a4, 0

000000000000018e <.LBB0_27>:
     18e: 33 04 c7 01  	add	s0, a4, t3
     192: 0a 04        	slli	s0, s0, 2
     194: b3 84 86 00  	add	s1, a3, s0
     198: 13 14 27 00  	slli	s0, a4, 2
     19c: 33 8c 87 00  	add	s8, a5, s0
     1a0: 33 07 e5 40  	sub	a4, a0, a4

00000000000001a4 <.LBB0_28>:
     1a4: 83 2b 0c 00  	lw	s7, 0(s8)
     1a8: 80 40        	lw	s0, 0(s1)
     1aa: 3b 04 74 41  	subw	s0, s0, s7
     1ae: 80 c0        	sw	s0, 0(s1)
     1b0: 91 04        	addi	s1, s1, 4
     1b2: 7d 17        	addi	a4, a4, -1
     1b4: 11 0c        	addi	s8, s8, 4
     1b6: 01 e3        	bnez	a4, 0x1b6 <.LBB0_28+0x12>
     1b8: 01 a0        	j	0x1b8 <.LBB0_28+0x14>

00000000000001ba <.LBB0_29>:
     1ba: 57 77 00 0d  	vsetvli	a4, zero, e32, m1, ta, ma
     1be: 52 87        	mv	a4, s4
     1c0: 56 84        	mv	s0, s5
     1c2: be 84        	mv	s1, a5

00000000000001c4 <.LBB0_30>:
     1c4: 07 e4 84 02  	vl1re32.v	v8, (s1)
     1c8: 87 64 84 02  	vl1re32.v	v9, (s0)
     1cc: 57 04 94 0a  	vsub.vv	v8, v9, v8
     1d0: 27 04 84 02  	vs1r.v	v8, (s0)
     1d4: e6 94        	add	s1, s1, s9
     1d6: 33 07 17 41  	sub	a4, a4, a7
     1da: 66 94        	add	s0, s0, s9
     1dc: 01 e3        	bnez	a4, 0x1dc <.LBB0_30+0x18>
     1de: 52 87        	mv	a4, s4
     1e0: 63 90 0f 00  	bnez	t6, 0x1e0 <.LBB0_30+0x1c>
     1e4: 01 a0        	j	0x1e4 <.LBB0_30+0x20>

00000000000001e6 <.LBB0_32>:
     1e6: 66 f4        	sd	s9, 40(sp)
     1e8: 63 50 a0 00  	blez	a0, 0x1e8 <.LBB0_32+0x2>
     1ec: 63 50 b0 00  	blez	a1, 0x1ec <.LBB0_32+0x6>
     1f0: 93 9c 2e 00  	slli	s9, t4, 2
     1f4: 22 75        	ld	a0, 40(sp)
     1f6: 13 5e 25 00  	srli	t3, a0, 2
     1fa: 21 45        	li	a0, 8
     1fc: ae 92        	add	t0, t0, a1
     1fe: 63 60 c5 01  	bltu	a0, t3, 0x1fe <.LBB0_32+0x18>
     202: 21 4e        	li	t3, 8

0000000000000204 <.LBB0_36>:
     204: 01 4f        	li	t5, 0
     206: 1b 0a f6 ff  	addiw	s4, a2, -1
     20a: 13 85 4c 00  	addi	a0, s9, 4
     20e: 2a e8        	sd	a0, 16(sp)
     210: 33 85 d2 03  	mul	a0, t0, t4
     214: 2a e4        	sd	a0, 8(sp)
     216: 13 d5 d9 01  	srli	a0, s3, 29
     21a: 2a ec        	sd	a0, 24(sp)
     21c: 93 d8 e9 01  	srli	a7, s3, 30
     220: 57 75 00 0d  	vsetvli	a0, zero, e32, m1, ta, ma
     224: 57 34 00 5e  	vmv.v.i	v8, 0
     228: 36 f8        	sd	a3, 48(sp)
     22a: 01 a0        	j	0x22a <.LBB0_36+0x26>

000000000000022c <.LBB0_37>:
     22c: 05 0f        	addi	t5, t5, 1
     22e: 42 75        	ld	a0, 48(sp)
     230: 11 05        	addi	a0, a0, 4
     232: 2a f8        	sd	a0, 48(sp)
     234: 63 00 df 01  	beq	t5, t4, 0x234 <.LBB0_37+0x8>

0000000000000238 <.LBB0_38>:
     238: 13 18 2f 00  	slli	a6, t5, 2
     23c: a2 6f        	ld	t6, 8(sp)
     23e: fa 9f        	add	t6, t6, t5
     240: 8a 0f        	slli	t6, t6, 2
     242: b3 8b 06 01  	add	s7, a3, a6
     246: 33 85 f6 01  	add	a0, a3, t6
     24a: de 89        	mv	s3, s7
     24c: 63 e0 ab 00  	bltu	s7, a0, 0x24c <.LBB0_38+0x14>
     250: aa 89        	mv	s3, a0

0000000000000252 <.LBB0_40>:
     252: 63 60 75 01  	bltu	a0, s7, 0x252 <.LBB0_40>
     256: aa 8b        	mv	s7, a0

0000000000000258 <.LBB0_42>:
     258: 01 43        	li	t1, 0
     25a: 42 65        	ld	a0, 16(sp)
     25c: b3 0a e5 03  	mul	s5, a0, t5
     260: 13 8b 4a 00  	addi	s6, s5, 4
     264: 91 0b        	addi	s7, s7, 4
     266: 33 0c df 03  	mul	s8, t5, t4
     26a: c2 70        	ld	ra, 48(sp)
     26c: fa 8d        	mv	s11, t5
     26e: 01 a0        	j	0x26e <.LBB0_42+0x16>

0000000000000270 <.LBB0_43>:
     270: 3b 45 49 03  	divw	a0, s2, s4
     274: 08 c0        	sw	a0, 0(s0)
     276: 33 86 dd 03  	mul	a2, s11, t4
     27a: 7a 96        	add	a2, a2, t5
     27c: 0a 06        	slli	a2, a2, 2
     27e: 6a 96        	add	a2, a2, s10
     280: 08 c2        	sw	a0, 0(a2)
     282: 85 0d        	addi	s11, s11, 1
     284: 05 03        	addi	t1, t1, 1
     286: 91 00        	addi	ra, ra, 4
     288: 63 80 dd 01  	beq	s11, t4, 0x288 <.LBB0_43+0x18>

000000000000028c <.LBB0_44>:
     28c: 33 85 8d 01  	add	a0, s11, s8
     290: 0a 05        	slli	a0, a0, 2
     292: 33 04 ad 00  	add	s0, s10, a0
     296: 23 20 04 00  	sw	zero, 0(s0)
     29a: 63 e0 c5 01  	bltu	a1, t3, 0x29a <.LBB0_44+0xe>
     29e: 13 16 23 00  	slli	a2, t1, 2
     2a2: 33 07 c8 00  	add	a4, a6, a2
     2a6: 36 97        	add	a4, a4, a3
     2a8: b3 87 cf 00  	add	a5, t6, a2
     2ac: b6 97        	add	a5, a5, a3
     2ae: 3a 85        	mv	a0, a4
     2b0: 63 e0 e7 00  	bltu	a5, a4, 0x2b0 <.LBB0_44+0x24>
     2b4: 3e 85        	mv	a0, a5

00000000000002b6 <.LBB0_47>:
     2b6: 63 60 f7 00  	bltu	a4, a5, 0x2b6 <.LBB0_47>
     2ba: 3e 87        	mv	a4, a5

00000000000002bc <.LBB0_49>:
     2bc: 11 05        	addi	a0, a0, 4
     2be: b3 07 cb 00  	add	a5, s6, a2
     2c2: ea 97        	add	a5, a5, s10
     2c4: 56 96        	add	a2, a2, s5
     2c6: 6a 96        	add	a2, a2, s10
     2c8: 33 35 a6 00  	sltu	a0, a2, a0
     2cc: 33 37 f7 00  	sltu	a4, a4, a5
     2d0: 79 8d        	and	a0, a0, a4
     2d2: 33 36 76 01  	sltu	a2, a2, s7
     2d6: 33 b7 f9 00  	sltu	a4, s3, a5
     2da: 79 8e        	and	a2, a2, a4
     2dc: 51 8d        	or	a0, a0, a2
     2de: 01 c1        	beqz	a0, 0x2de <.LBB0_49+0x22>

00000000000002e0 <.LBB0_50>:
     2e0: 81 43        	li	t2, 0
     2e2: 01 49        	li	s2, 0

00000000000002e4 <.LBB0_51>:
     2e4: 33 85 7e 02  	mul	a0, t4, t2
     2e8: 33 86 ad 00  	add	a2, s11, a0
     2ec: 0a 06        	slli	a2, a2, 2
     2ee: 36 96        	add	a2, a2, a3
     2f0: 7a 95        	add	a0, a0, t5
     2f2: 0a 05        	slli	a0, a0, 2
     2f4: 33 87 a6 00  	add	a4, a3, a0
     2f8: b3 84 75 40  	sub	s1, a1, t2

00000000000002fc <.LBB0_52>:
     2fc: 08 43        	lw	a0, 0(a4)
     2fe: 1c 42        	lw	a5, 0(a2)
     300: 3b 85 a7 02  	mulw	a0, a5, a0
     304: 2a 99        	add	s2, s2, a0
     306: 23 20 24 01  	sw	s2, 0(s0)
     30a: 46 96        	add	a2, a2, a7
     30c: fd 14        	addi	s1, s1, -1
     30e: 46 97        	add	a4, a4, a7
     310: 81 e0        	bnez	s1, 0x310 <.LBB0_52+0x14>
     312: 01 a0        	j	0x312 <.LBB0_52+0x16>

0000000000000314 <.LBB0_53>:
     314: 22 76        	ld	a2, 40(sp)
     316: 09 82        	srli	a2, a2, 2
     318: 13 05 f6 ff  	addi	a0, a2, -1
     31c: b3 f2 a5 00  	and	t0, a1, a0
     320: b3 83 55 40  	sub	t2, a1, t0
     324: 02 75        	ld	a0, 32(sp)
     326: 62 67        	ld	a4, 24(sp)
     328: b3 07 a7 02  	mul	a5, a4, a0
     32c: 57 75 00 0d  	vsetvli	a0, zero, e32, m1, ta, ma
     330: 06 87        	mv	a4, ra
     332: c2 74        	ld	s1, 48(sp)
     334: 1e 85        	mv	a0, t2
     336: d7 34 80 9e  	vmv1r.v	v9, v8

000000000000033a <.LBB0_54>:
     33a: 07 e5 94 0b  	vlse32.v	v10, (s1), s9
     33e: 87 65 97 0b  	vlse32.v	v11, (a4), s9
     342: d7 a4 a5 b6  	vmacc.vv	v9, v11, v10
     346: 11 8d        	sub	a0, a0, a2
     348: be 94        	add	s1, s1, a5
     34a: 3e 97        	add	a4, a4, a5
     34c: 01 e1        	bnez	a0, 0x34c <.LBB0_54+0x12>
     34e: 57 65 00 42  	vmv.s.x	v10, zero
     352: d7 24 95 02  	vredsum.vs	v9, v9, v10
     356: 57 29 90 42  	vmv.x.s	s2, v9
     35a: 57 f0 00 cd  	vsetivli	zero, 1, e32, m1, ta, ma
     35e: a7 64 04 02  	vse32.v	v9, (s0)
     362: 63 90 02 00  	bnez	t0, 0x362 <.LBB0_54+0x28>
     366: 01 a0        	j	0x366 <.LBB0_54+0x2c>

0000000000000368 <.LBB0_56>:
     368: 3e 85        	mv	a0, a5
     36a: 81 45        	li	a1, 0
     36c: 42 86        	mv	a2, a6
     36e: 97 00 00 00  	auipc	ra, 0
     372: e7 80 00 00  	jalr	ra

0000000000000376 <.LBB0_57>:
     376: 01 45        	li	a0, 0
     378: 93 d5 09 02  	srli	a1, s3, 32
     37c: 93 d6 e9 01  	srli	a3, s3, 30
     380: 13 84 46 00  	addi	s0, a3, 4
     384: 2e 87        	mv	a4, a1

0000000000000386 <.LBB0_58>:
     386: ba 87        	mv	a5, a4
     388: ea 84        	mv	s1, s10
     38a: 6a 86        	mv	a2, s10

000000000000038c <.LBB0_59>:
     38c: 23 a0 04 00  	sw	zero, 0(s1)
     390: 23 20 06 00  	sw	zero, 0(a2)
     394: 36 96        	add	a2, a2, a3
     396: fd 17        	addi	a5, a5, -1
     398: 91 04        	addi	s1, s1, 4
     39a: 81 e3        	bnez	a5, 0x39a <.LBB0_59+0xe>
     39c: 05 05        	addi	a0, a0, 1
     39e: 22 9d        	add	s10, s10, s0
     3a0: 7d 17        	addi	a4, a4, -1
     3a2: 63 10 b5 00  	bne	a0, a1, 0x3a2 <.LBB0_59+0x16>

00000000000003a6 <.LBB0_61>:
     3a6: 73 26 20 c0  	rdinstret	a2
     3aa: 37 05 00 00  	lui	a0, 0
     3ae: 83 35 05 00  	ld	a1, 0(a0)
     3b2: b7 06 00 00  	lui	a3, 0
     3b6: 37 05 00 00  	lui	a0, 0
     3ba: 13 05 05 00  	mv	a0, a0
     3be: 23 b0 c6 00  	sd	a2, 0(a3)
     3c2: ea 60        	ld	ra, 152(sp)
     3c4: 4a 64        	ld	s0, 144(sp)
     3c6: aa 64        	ld	s1, 136(sp)
     3c8: 0a 69        	ld	s2, 128(sp)
     3ca: e6 79        	ld	s3, 120(sp)
     3cc: 46 7a        	ld	s4, 112(sp)
     3ce: a6 7a        	ld	s5, 104(sp)
     3d0: 06 7b        	ld	s6, 96(sp)
     3d2: e6 6b        	ld	s7, 88(sp)
     3d4: 46 6c        	ld	s8, 80(sp)
     3d6: a6 6c        	ld	s9, 72(sp)
     3d8: 06 6d        	ld	s10, 64(sp)
     3da: e2 7d        	ld	s11, 56(sp)
     3dc: 0d 61        	addi	sp, sp, 160
     3de: 17 03 00 00  	auipc	t1, 0
     3e2: 67 00 03 00  	jr	t1
