
kernel.o:     file format elf64-littleriscv


Disassembly of section .text:

0000000000000000 <core>:
   0:	7179                	addi	sp,sp,-48
   2:	f422                	sd	s0,40(sp)
   4:	f026                	sd	s1,32(sp)
   6:	ec4a                	sd	s2,24(sp)
   8:	e84e                	sd	s3,16(sp)
   a:	e452                	sd	s4,8(sp)
   c:	c0202873          	rdinstret	a6
  10:	000003b7          	lui	t2,0x0
  14:	0103b023          	sd	a6,0(t2) # 0 <core>
  18:	10a05363          	blez	a0,11e <.L2>
  1c:	fff5049b          	addiw	s1,a0,-1
  20:	02049413          	slli	s0,s1,0x20
  24:	8079                	srli	s0,s0,0x1e
  26:	00478f93          	addi	t6,a5,4
  2a:	8ebe                	mv	t4,a5
  2c:	82b6                	mv	t0,a3
  2e:	947e                	add	s0,s0,t6
  30:	00251f13          	slli	t5,a0,0x2

0000000000000034 <.L5>:
  34:	000ea023          	sw	zero,0(t4)
  38:	10b05c63          	blez	a1,150 <.L14>
  3c:	8316                	mv	t1,t0
  3e:	4801                	li	a6,0
  40:	4881                	li	a7,0

0000000000000042 <.L4>:
  42:	00032e03          	lw	t3,0(t1)
  46:	2885                	addiw	a7,a7,1
  48:	937a                	add	t1,t1,t5
  4a:	010e083b          	addw	a6,t3,a6
  4e:	010ea023          	sw	a6,0(t4)
  52:	ff1598e3          	bne	a1,a7,42 <.L4>
  56:	02c8483b          	divw	a6,a6,a2

000000000000005a <.L3>:
  5a:	010ea023          	sw	a6,0(t4)
  5e:	0e91                	addi	t4,t4,4
  60:	0291                	addi	t0,t0,4
  62:	fc8e99e3          	bne	t4,s0,34 <.L5>
  66:	02b05b63          	blez	a1,9c <.L7>
  6a:	02049e93          	slli	t4,s1,0x20
  6e:	01eede93          	srli	t4,t4,0x1e
  72:	9efe                	add	t4,t4,t6
  74:	82b6                	mv	t0,a3
  76:	4f81                	li	t6,0

0000000000000078 <.L13>:
  78:	88be                	mv	a7,a5
  7a:	8816                	mv	a6,t0

000000000000007c <.L8>:
  7c:	00082303          	lw	t1,0(a6)
  80:	0008ae03          	lw	t3,0(a7)
  84:	0811                	addi	a6,a6,4
  86:	0891                	addi	a7,a7,4
  88:	41c3033b          	subw	t1,t1,t3
  8c:	fe682e23          	sw	t1,-4(a6)
  90:	ffd896e3          	bne	a7,t4,7c <.L8>
  94:	2f85                	addiw	t6,t6,1
  96:	92fa                	add	t0,t0,t5
  98:	febfc0e3          	blt	t6,a1,78 <.L13>

000000000000009c <.L7>:
  9c:	000007b7          	lui	a5,0x0
  a0:	d2060753          	fcvt.d.w	fa4,a2
  a4:	0007b787          	fld	fa5,0(a5) # 0 <core>
  a8:	00150993          	addi	s3,a0,1
  ac:	098a                	slli	s3,s3,0x2
  ae:	0af777d3          	fsub.d	fa5,fa4,fa5
  b2:	8a3a                	mv	s4,a4
  b4:	8436                	mv	s0,a3
  b6:	ffc98e93          	addi	t4,s3,-4
  ba:	4f01                	li	t5,0
  bc:	4901                	li	s2,0
  be:	c20794d3          	fcvt.w.d	s1,fa5,rtz
  c2:	2481                	sext.w	s1,s1

00000000000000c4 <.L12>:
  c4:	41e00e33          	neg	t3,t5
  c8:	82d2                	mv	t0,s4
  ca:	8352                	mv	t1,s4
  cc:	8fca                	mv	t6,s2

00000000000000ce <.L11>:
  ce:	00032023          	sw	zero,0(t1)
  d2:	06b05d63          	blez	a1,14c <.L15>
  d6:	8722                	mv	a4,s0
  d8:	4781                	li	a5,0
  da:	4801                	li	a6,0

00000000000000dc <.L10>:
  dc:	00ef0633          	add	a2,t5,a4
  e0:	9672                	add	a2,a2,t3
  e2:	00072883          	lw	a7,0(a4)
  e6:	4214                	lw	a3,0(a2)
  e8:	2805                	addiw	a6,a6,1
  ea:	9776                	add	a4,a4,t4
  ec:	031686bb          	mulw	a3,a3,a7
  f0:	9fb5                	addw	a5,a5,a3
  f2:	00f32023          	sw	a5,0(t1)
  f6:	ff0593e3          	bne	a1,a6,dc <.L10>
  fa:	0297c7bb          	divw	a5,a5,s1

00000000000000fe <.L9>:
  fe:	00f32023          	sw	a5,0(t1)
 102:	00f2a023          	sw	a5,0(t0)
 106:	2f85                	addiw	t6,t6,1
 108:	0311                	addi	t1,t1,4
 10a:	92f6                	add	t0,t0,t4
 10c:	0e11                	addi	t3,t3,4
 10e:	fcafc0e3          	blt	t6,a0,ce <.L11>
 112:	2905                	addiw	s2,s2,1
 114:	9a4e                	add	s4,s4,s3
 116:	0411                	addi	s0,s0,4
 118:	1f71                	addi	t5,t5,-4
 11a:	fb2515e3          	bne	a0,s2,c4 <.L12>

000000000000011e <.L2>:
 11e:	c02027f3          	rdinstret	a5
 122:	7422                	ld	s0,40(sp)
 124:	7482                	ld	s1,32(sp)
 126:	6962                	ld	s2,24(sp)
 128:	69c2                	ld	s3,16(sp)
 12a:	6a22                	ld	s4,8(sp)
 12c:	0003b583          	ld	a1,0(t2)
 130:	00000737          	lui	a4,0x0
 134:	00000537          	lui	a0,0x0
 138:	00f73023          	sd	a5,0(a4) # 0 <core>
 13c:	863e                	mv	a2,a5
 13e:	00050513          	mv	a0,a0
 142:	6145                	addi	sp,sp,48
 144:	00000317          	auipc	t1,0x0
 148:	00030067          	jr	t1 # 144 <.L2+0x26>

000000000000014c <.L15>:
 14c:	4781                	li	a5,0
 14e:	bf45                	j	fe <.L9>

0000000000000150 <.L14>:
 150:	4801                	li	a6,0
 152:	b721                	j	5a <.L3>
