
kernel.o:	file format elf64-littleriscv

Disassembly of section .text:

0000000000000000 <core>:
       0: 7135         	addi	sp, sp, -0xa0
       2: ed06         	sd	ra, 0x98(sp)
       4: e922         	sd	s0, 0x90(sp)
       6: e526         	sd	s1, 0x88(sp)
       8: e14a         	sd	s2, 0x80(sp)
       a: fcce         	sd	s3, 0x78(sp)
       c: f8d2         	sd	s4, 0x70(sp)
       e: f4d6         	sd	s5, 0x68(sp)
      10: f0da         	sd	s6, 0x60(sp)
      12: ecde         	sd	s7, 0x58(sp)
      14: e8e2         	sd	s8, 0x50(sp)
      16: e4e6         	sd	s9, 0x48(sp)
      18: e0ea         	sd	s10, 0x40(sp)
      1a: fc6e         	sd	s11, 0x38(sp)
      1c: 832e         	mv	t1, a1
      1e: e82a         	sd	a0, 0x10(sp)
      20: c0202573     	rdinstret	a0
      24: 000005b7     	lui	a1, 0x0
      28: 00a5b023     	sd	a0, 0x0(a1)
      2c: ec36         	sd	a3, 0x18(sp)
      2e: 00068063     	beqz	a3, 0x2e <core+0x2e>
      32: 8e32         	mv	t3, a2
      34: f802         	sd	zero, 0x30(sp)
      36: 6642         	ld	a2, 0x10(sp)
      38: 41c60533     	sub	a0, a2, t3
      3c: e42a         	sd	a0, 0x8(sp)
      3e: 02e78533     	mul	a0, a5, a4
      42: 050e         	slli	a0, a0, 0x3
      44: f02a         	sd	a0, 0x20(sp)
      46: 00379393     	slli	t2, a5, 0x3
      4a: 007e02b3     	add	t0, t3, t2
      4e: 557d         	li	a0, -0x1
      50: 810d         	srli	a0, a0, 0x3
      52: 953e         	add	a0, a0, a5
      54: 02f50eb3     	mul	t4, a0, a5
      58: 00760533     	add	a0, a2, t2
      5c: e02a         	sd	a0, 0x0(sp)
      5e: c22028f3     	csrr	a7, vlenb
      62: 0038d593     	srli	a1, a7, 0x3
      66: 00189f93     	slli	t6, a7, 0x1
      6a: 0028dd93     	srli	s11, a7, 0x2
      6e: 02b78933     	mul	s2, a5, a1
      72: 0912         	slli	s2, s2, 0x4
      74: f20007d3     	fmv.d.x	fa5, zero
      78: 0d9075d7     	vsetvli	a1, zero, e64, m2, ta, ma
      7c: 5e003457     	vmv.v.i	v8, 0x0
      80: 42006557     	vmv.s.x	v10, zero
      84: f432         	sd	a2, 0x28(sp)
      86: a001         	j	0x86 <core+0x86>
      88: 75c2         	ld	a1, 0x30(sp)
      8a: 0585         	addi	a1, a1, 0x1
      8c: 7502         	ld	a0, 0x20(sp)
      8e: 7622         	ld	a2, 0x28(sp)
      90: 962a         	add	a2, a2, a0
      92: f432         	sd	a2, 0x28(sp)
      94: 6562         	ld	a0, 0x18(sp)
      96: f82e         	sd	a1, 0x30(sp)
      98: 00a58063     	beq	a1, a0, 0x98 <core+0x98>
      9c: c301         	beqz	a4, 0x9c <core+0x9c>
      9e: 4a01         	li	s4, 0x0
      a0: 7542         	ld	a0, 0x30(sp)
      a2: 7582         	ld	a1, 0x20(sp)
      a4: 02a58bb3     	mul	s7, a1, a0
      a8: 6aa2         	ld	s5, 0x8(sp)
      aa: 9ade         	add	s5, s5, s7
      ac: 6b42         	ld	s6, 0x10(sp)
      ae: 9b5e         	add	s6, s6, s7
      b0: 6502         	ld	a0, 0x0(sp)
      b2: 9baa         	add	s7, s7, a0
      b4: 79a2         	ld	s3, 0x28(sp)
      b6: a001         	j	0xb6 <core+0xb6>
      b8: 0a05         	addi	s4, s4, 0x1
      ba: 999e         	add	s3, s3, t2
      bc: 00ea0063     	beq	s4, a4, 0xbc <core+0xbc>
      c0: c381         	beqz	a5, 0xc0 <core+0xc0>
      c2: 4591         	li	a1, 0x4
      c4: 8cee         	mv	s9, s11
      c6: 01b5e063     	bltu	a1, s11, 0xc6 <core+0xc6>
      ca: 4c91         	li	s9, 0x4
      cc: 4481         	li	s1, 0x0
      ce: 03438d33     	mul	s10, t2, s4
      d2: 01ab05b3     	add	a1, s6, s10
      d6: 01ab8633     	add	a2, s7, s10
      da: 9d56         	add	s10, s10, s5
      dc: 00ce3633     	sltu	a2, t3, a2
      e0: 0055b5b3     	sltu	a1, a1, t0
      e4: 00b670b3     	and	ra, a2, a1
      e8: 881a         	mv	a6, t1
      ea: a001         	j	0xea <core+0xea>
      ec: 0485         	addi	s1, s1, 0x1
      ee: 0821         	addi	a6, a6, 0x8
      f0: 00f48063     	beq	s1, a5, 0xf0 <core+0xf0>
      f4: 00349593     	slli	a1, s1, 0x3
      f8: 00be0633     	add	a2, t3, a1
      fc: 00063023     	sd	zero, 0x0(a2)
     100: 0197e063     	bltu	a5, s9, 0x100 <core+0x100>
     104: 959a         	add	a1, a1, t1
     106: 009e86b3     	add	a3, t4, s1
     10a: 068e         	slli	a3, a3, 0x3
     10c: 969a         	add	a3, a3, t1
     10e: 842e         	mv	s0, a1
     110: 00b6e063     	bltu	a3, a1, 0x110 <core+0x110>
     114: 8436         	mv	s0, a3
     116: 00d5e063     	bltu	a1, a3, 0x116 <core+0x116>
     11a: 85b6         	mv	a1, a3
     11c: 0421         	addi	s0, s0, 0x8
     11e: 008e36b3     	sltu	a3, t3, s0
     122: 0055b5b3     	sltu	a1, a1, t0
     126: 8df5         	and	a1, a1, a3
     128: 00b0e5b3     	or	a1, ra, a1
     12c: c181         	beqz	a1, 0x12c <core+0x12c>
     12e: 4f01         	li	t5, 0x0
     130: 22f78753     	fmv.d	fa4, fa5
     134: 003f1c13     	slli	s8, t5, 0x3
     138: 9c4e         	add	s8, s8, s3
     13a: 03e385b3     	mul	a1, t2, t5
     13e: 95c2         	add	a1, a1, a6
     140: 41e786b3     	sub	a3, a5, t5
     144: 000c3687     	fld	fa3, 0x0(s8)
     148: 2190         	fld	fa2, 0x0(a1)
     14a: 72d67743     	fmadd.d	fa4, fa2, fa3, fa4
     14e: a218         	fsd	fa4, 0x0(a2)
     150: 0c21         	addi	s8, s8, 0x8
     152: 16fd         	addi	a3, a3, -0x1
     154: 959e         	add	a1, a1, t2
     156: e281         	bnez	a3, 0x156 <core+0x156>
     158: a001         	j	0x158 <core+0x158>
     15a: 0028d593     	srli	a1, a7, 0x2
     15e: 40b005b3     	neg	a1, a1
     162: 00f5ff33     	and	t5, a1, a5
     166: 85c2         	mv	a1, a6
     168: 86fa         	mv	a3, t5
     16a: 844e         	mv	s0, s3
     16c: 9e80b657     	vmv2r.v	v12, v8
     170: 0d907557     	vsetvli	a0, zero, e64, m2, ta, ma
     174: 22847707     	vl2re64.v	v14, (s0)
     178: 0a75f807     	vlse64.v	v16, (a1), t2
     17c: b2e81657     	vfmacc.vv	v12, v16, v14
     180: 947e         	add	s0, s0, t6
     182: 41b686b3     	sub	a3, a3, s11
     186: 95ca         	add	a1, a1, s2
     188: e281         	bnez	a3, 0x188 <core+0x188>
     18a: 06c515d7     	vfredusum.vs	v11, v12, v10
     18e: cd80f057     	vsetivli	zero, 0x1, e64, m1, ta, ma
     192: 020675a7     	vse64.v	v11, (a2)
     196: 00ff0063     	beq	t5, a5, 0x196 <core+0x196>
     19a: 42b01757     	vfmv.f.s	fa4, v11
     19e: a001         	j	0x19e <core+0x19e>
     1a0: 0028d593     	srli	a1, a7, 0x2
     1a4: 4621         	li	a2, 0x8
     1a6: 00b66063     	bltu	a2, a1, 0x1a6 <core+0x1a6>
     1aa: 45a1         	li	a1, 0x8
     1ac: 00b7e063     	bltu	a5, a1, 0x1ac <core+0x1ac>
     1b0: 01fd7063     	bgeu	s10, t6, 0x1b0 <core+0x1b0>
     1b4: 4581         	li	a1, 0x0
     1b6: 00359693     	slli	a3, a1, 0x3
     1ba: 00d98633     	add	a2, s3, a3
     1be: 96f2         	add	a3, a3, t3
     1c0: 40b785b3     	sub	a1, a5, a1
     1c4: 2298         	fld	fa4, 0x0(a3)
     1c6: a218         	fsd	fa4, 0x0(a2)
     1c8: 0621         	addi	a2, a2, 0x8
     1ca: 15fd         	addi	a1, a1, -0x1
     1cc: 06a1         	addi	a3, a3, 0x8
     1ce: e181         	bnez	a1, 0x1ce <core+0x1ce>
     1d0: a001         	j	0x1d0 <core+0x1d0>
     1d2: 0028d593     	srli	a1, a7, 0x2
     1d6: 40b005b3     	neg	a1, a1
     1da: 8dfd         	and	a1, a1, a5
     1dc: 862e         	mv	a2, a1
     1de: 86ce         	mv	a3, s3
     1e0: 84f2         	mv	s1, t3
     1e2: 2284f607     	vl2re64.v	v12, (s1)
     1e6: 22868627     	vs2r.v	v12, (a3)
     1ea: 94fe         	add	s1, s1, t6
     1ec: 41b60633     	sub	a2, a2, s11
     1f0: 96fe         	add	a3, a3, t6
     1f2: e201         	bnez	a2, 0x1f2 <core+0x1f2>
     1f4: 00f58063     	beq	a1, a5, 0x1f4 <core+0x1f4>
     1f8: a001         	j	0x1f8 <core+0x1f8>
     1fa: c0202673     	rdinstret	a2
     1fe: 00000537     	lui	a0, 0x0
     202: 00053583     	ld	a1, 0x0(a0)
     206: 000006b7     	lui	a3, 0x0
     20a: 00000537     	lui	a0, 0x0
     20e: 00050513     	mv	a0, a0
     212: 00c6b023     	sd	a2, 0x0(a3)
     216: 60ea         	ld	ra, 0x98(sp)
     218: 644a         	ld	s0, 0x90(sp)
     21a: 64aa         	ld	s1, 0x88(sp)
     21c: 690a         	ld	s2, 0x80(sp)
     21e: 79e6         	ld	s3, 0x78(sp)
     220: 7a46         	ld	s4, 0x70(sp)
     222: 7aa6         	ld	s5, 0x68(sp)
     224: 7b06         	ld	s6, 0x60(sp)
     226: 6be6         	ld	s7, 0x58(sp)
     228: 6c46         	ld	s8, 0x50(sp)
     22a: 6ca6         	ld	s9, 0x48(sp)
     22c: 6d06         	ld	s10, 0x40(sp)
     22e: 7de2         	ld	s11, 0x38(sp)
     230: 610d         	addi	sp, sp, 0xa0
     232: 00000317     	auipc	t1, 0x0
     236: 00030067     	jr	t1 <core+0x232>
