
kernel.o:	file format elf64-littleriscv

Disassembly of section .text:

0000000000000000 <core>:
       0: 7115         	addi	sp, sp, -0xe0
       2: ed86         	sd	ra, 0xd8(sp)
       4: e9a2         	sd	s0, 0xd0(sp)
       6: e5a6         	sd	s1, 0xc8(sp)
       8: e1ca         	sd	s2, 0xc0(sp)
       a: fd4e         	sd	s3, 0xb8(sp)
       c: f952         	sd	s4, 0xb0(sp)
       e: f556         	sd	s5, 0xa8(sp)
      10: f15a         	sd	s6, 0xa0(sp)
      12: ed5e         	sd	s7, 0x98(sp)
      14: e962         	sd	s8, 0x90(sp)
      16: e566         	sd	s9, 0x88(sp)
      18: e16a         	sd	s10, 0x80(sp)
      1a: fcee         	sd	s11, 0x78(sp)
      1c: 8baa         	mv	s7, a0
      1e: c0202573     	rdinstret	a0
      22: 000007b7     	lui	a5, 0x0
      26: 00a7b023     	sd	a0, 0x0(a5)
      2a: 00d05063     	blez	a3, 0x2a <core+0x2a>
      2e: 4481         	li	s1, 0x0
      30: 4081         	li	ra, 0x0
      32: 02071513     	slli	a0, a4, 0x20
      36: 02055313     	srli	t1, a0, 0x20
      3a: fff30b13     	addi	s6, t1, -0x1
      3e: 02d707b3     	mul	a5, a4, a3
      42: ec3e         	sd	a5, 0x18(sp)
      44: 1782         	slli	a5, a5, 0x20
      46: 9381         	srli	a5, a5, 0x20
      48: e83e         	sd	a5, 0x10(sp)
      4a: 008b8413     	addi	s0, s7, 0x8
      4e: 8175         	srli	a0, a0, 0x1d
      50: 00a607b3     	add	a5, a2, a0
      54: f43e         	sd	a5, 0x28(sp)
      56: 952e         	add	a0, a0, a1
      58: f8aa         	sd	a0, 0x70(sp)
      5a: c2202573     	csrr	a0, vlenb
      5e: f0aa         	sd	a0, 0x60(sp)
      60: 00255d93     	srli	s11, a0, 0x2
      64: ecba         	sd	a4, 0x58(sp)
      66: a001         	j	0x66 <core+0x66>
      68: 00e080bb     	addw	ra, ra, a4
      6c: 64a2         	ld	s1, 0x8(sp)
      6e: 0485         	addi	s1, s1, 0x1
      70: 00d0d063     	bge	ra, a3, 0x70 <core+0x70>
      74: 4781         	li	a5, 0x0
      76: e882         	sd	zero, 0x50(sp)
      78: e426         	sd	s1, 0x8(sp)
      7a: 02e48533     	mul	a0, s1, a4
      7e: fc2a         	sd	a0, 0x38(sp)
      80: e486         	sd	ra, 0x48(sp)
      82: e086         	sd	ra, 0x40(sp)
      84: a001         	j	0x84 <core+0x84>
      86: 6846         	ld	a6, 0x50(sp)
      88: 983a         	add	a6, a6, a4
      8a: 7782         	ld	a5, 0x20(sp)
      8c: 0785         	addi	a5, a5, 0x1
      8e: 6562         	ld	a0, 0x18(sp)
      90: 64a6         	ld	s1, 0x48(sp)
      92: 9ca9         	addw	s1, s1, a0
      94: e4a6         	sd	s1, 0x48(sp)
      96: 6086         	ld	ra, 0x40(sp)
      98: e8c2         	sd	a6, 0x50(sp)
      9a: 00d85063     	bge	a6, a3, 0x9a <core+0x9a>
      9e: f482         	sd	zero, 0x68(sp)
      a0: 4d01         	li	s10, 0x0
      a2: 02678533     	mul	a0, a5, t1
      a6: f82a         	sd	a0, 0x30(sp)
      a8: 6542         	ld	a0, 0x10(sp)
      aa: f03e         	sd	a5, 0x20(sp)
      ac: 02a78cb3     	mul	s9, a5, a0
      b0: 7562         	ld	a0, 0x38(sp)
      b2: 9caa         	add	s9, s9, a0
      b4: a001         	j	0xb4 <core+0xb4>
      b6: 2d05         	addiw	s10, s10, 0x1
      b8: 7526         	ld	a0, 0x68(sp)
      ba: 0505         	addi	a0, a0, 0x1
      bc: f4aa         	sd	a0, 0x68(sp)
      be: 00d080bb     	addw	ra, ra, a3
      c2: 6766         	ld	a4, 0x58(sp)
      c4: 00dd0063     	beq	s10, a3, 0xc4 <core+0xc4>
      c8: 00e05063     	blez	a4, 0xc8 <core+0xc8>
      cc: 4531         	li	a0, 0xc
      ce: 8fee         	mv	t6, s11
      d0: 01b56063     	bltu	a0, s11, 0xd0 <core+0xd0>
      d4: 4fb1         	li	t6, 0xc
      d6: 4a01         	li	s4, 0x0
      d8: 7526         	ld	a0, 0x68(sp)
      da: 02d50533     	mul	a0, a0, a3
      de: 7c42         	ld	s8, 0x30(sp)
      e0: 9c2a         	add	s8, s8, a0
      e2: 7762         	ld	a4, 0x38(sp)
      e4: 9d39         	addw	a0, a0, a4
      e6: 050e         	slli	a0, a0, 0x3
      e8: 00a608b3     	add	a7, a2, a0
      ec: 7f22         	ld	t5, 0x28(sp)
      ee: 9f2a         	add	t5, t5, a0
      f0: 02dd09b3     	mul	s3, s10, a3
      f4: 6506         	ld	a0, 0x40(sp)
      f6: 01350e3b     	addw	t3, a0, s3
      fa: 6546         	ld	a0, 0x50(sp)
      fc: 99aa         	add	s3, s3, a0
      fe: 016e03bb     	addw	t2, t3, s6
     102: 6aa6         	ld	s5, 0x48(sp)
     104: 0149853b     	addw	a0, s3, s4
     108: 050e         	slli	a0, a0, 0x3
     10a: 00ab8eb3     	add	t4, s7, a0
     10e: 4801         	li	a6, 0x0
     110: 01f37063     	bgeu	t1, t6, 0x110 <core+0x110>
     114: 010082bb     	addw	t0, ra, a6
     118: 010a893b     	addw	s2, s5, a6
     11c: 41030733     	sub	a4, t1, a6
     120: 000eb787     	fld	fa5, 0x0(t4)
     124: 00391513     	slli	a0, s2, 0x3
     128: 952e         	add	a0, a0, a1
     12a: 2118         	fld	fa4, 0x0(a0)
     12c: 00329513     	slli	a0, t0, 0x3
     130: 9532         	add	a0, a0, a2
     132: 2114         	fld	fa3, 0x0(a0)
     134: 6af777c3     	fmadd.d	fa5, fa4, fa5, fa3
     138: a11c         	fsd	fa5, 0x0(a0)
     13a: 2285         	addiw	t0, t0, 0x1
     13c: 177d         	addi	a4, a4, -0x1
     13e: 2905         	addiw	s2, s2, 0x1
     140: e301         	bnez	a4, 0x140 <core+0x140>
     142: 0a05         	addi	s4, s4, 0x1
     144: 00da8abb     	addw	s5, s5, a3
     148: 006a1063     	bne	s4, t1, 0x148 <core+0x148>
     14c: a001         	j	0x14c <core+0x14c>
     14e: 01c3c063     	blt	t2, t3, 0x14e <core+0x14e>
     152: 02da0733     	mul	a4, s4, a3
     156: 00ec873b     	addw	a4, s9, a4
     15a: 016707bb     	addw	a5, a4, s6
     15e: 00e7c063     	blt	a5, a4, 0x15e <core+0x15e>
     162: 020b5793     	srli	a5, s6, 0x20
     166: e381         	bnez	a5, 0x166 <core+0x166>
     168: 014c07bb     	addw	a5, s8, s4
     16c: 078e         	slli	a5, a5, 0x3
     16e: 00fb84b3     	add	s1, s7, a5
     172: 97a2         	add	a5, a5, s0
     174: 01e4b4b3     	sltu	s1, s1, t5
     178: 00f8b7b3     	sltu	a5, a7, a5
     17c: 8fe5         	and	a5, a5, s1
     17e: 4801         	li	a6, 0x0
     180: e381         	bnez	a5, 0x180 <core+0x180>
     182: 070e         	slli	a4, a4, 0x3
     184: 00e587b3     	add	a5, a1, a4
     188: 7546         	ld	a0, 0x70(sp)
     18a: 972a         	add	a4, a4, a0
     18c: 00e8b733     	sltu	a4, a7, a4
     190: 01e7b7b3     	sltu	a5, a5, t5
     194: 8f7d         	and	a4, a4, a5
     196: e301         	bnez	a4, 0x196 <core+0x196>
     198: 82a2         	mv	t0, s0
     19a: 7706         	ld	a4, 0x60(sp)
     19c: 830d         	srli	a4, a4, 0x3
     19e: 0706         	slli	a4, a4, 0x1
     1a0: 000eb787     	fld	fa5, 0x0(t4)
     1a4: 40e00733     	neg	a4, a4
     1a8: 00677833     	and	a6, a4, t1
     1ac: 8706         	mv	a4, ra
     1ae: 8556         	mv	a0, s5
     1b0: 84c2         	mv	s1, a6
     1b2: 0d907457     	vsetvli	s0, zero, e64, m2, ta, ma
     1b6: 00351793     	slli	a5, a0, 0x3
     1ba: 97ae         	add	a5, a5, a1
     1bc: 2287f407     	vl2re64.v	v8, (a5)
     1c0: 00371793     	slli	a5, a4, 0x3
     1c4: 97b2         	add	a5, a5, a2
     1c6: 2287f507     	vl2re64.v	v10, (a5)
     1ca: b287d557     	vfmacc.vf	v10, fa5, v8
     1ce: 22878527     	vs2r.v	v10, (a5)
     1d2: 41b484b3     	sub	s1, s1, s11
     1d6: 01b5053b     	addw	a0, a0, s11
     1da: 01b7073b     	addw	a4, a4, s11
     1de: e081         	bnez	s1, 0x1de <core+0x1de>
     1e0: 8416         	mv	s0, t0
     1e2: 00681063     	bne	a6, t1, 0x1e2 <core+0x1e2>
     1e6: a001         	j	0x1e6 <core+0x1e6>
     1e8: c0202673     	rdinstret	a2
     1ec: 00000537     	lui	a0, 0x0
     1f0: 00053583     	ld	a1, 0x0(a0)
     1f4: 000006b7     	lui	a3, 0x0
     1f8: 00000537     	lui	a0, 0x0
     1fc: 00050513     	mv	a0, a0
     200: 00c6b023     	sd	a2, 0x0(a3)
     204: 60ee         	ld	ra, 0xd8(sp)
     206: 644e         	ld	s0, 0xd0(sp)
     208: 64ae         	ld	s1, 0xc8(sp)
     20a: 690e         	ld	s2, 0xc0(sp)
     20c: 79ea         	ld	s3, 0xb8(sp)
     20e: 7a4a         	ld	s4, 0xb0(sp)
     210: 7aaa         	ld	s5, 0xa8(sp)
     212: 7b0a         	ld	s6, 0xa0(sp)
     214: 6bea         	ld	s7, 0x98(sp)
     216: 6c4a         	ld	s8, 0x90(sp)
     218: 6caa         	ld	s9, 0x88(sp)
     21a: 6d0a         	ld	s10, 0x80(sp)
     21c: 7de6         	ld	s11, 0x78(sp)
     21e: 612d         	addi	sp, sp, 0xe0
     220: 00000317     	auipc	t1, 0x0
     224: 00030067     	jr	t1 <core+0x220>
