
kernel.o:	file format elf64-littleriscv

Disassembly of section .text:

0000000000000000 <.text>:
       0: 01 00        	nop

0000000000000002 <core>:
       2: 79 71        	addi	sp, sp, -48
       4: 22 f4        	sd	s0, 40(sp)
       6: 26 f0        	sd	s1, 32(sp)
       8: 4a ec        	sd	s2, 24(sp)
       a: 4e e8        	sd	s3, 16(sp)
       c: 52 e4        	sd	s4, 8(sp)
       e: 56 e0        	sd	s5, 0(sp)
      10: f3 27 20 c0  	rdinstret	a5
      14: 37 08 00 00  	lui	a6, 0
      18: 23 30 f8 00  	sd	a5, 0(a6)
      1c: 63 50 d0 00  	blez	a3, 0x1c <core+0x1a>
      20: 81 48        	li	a7, 0
      22: 93 17 07 02  	slli	a5, a4, 32
      26: 13 df 07 02  	srli	t5, a5, 32
      2a: bb 02 d7 02  	mulw	t0, a4, a3
      2e: 01 a0        	j	0x2e <core+0x2c>

0000000000000030 <.LBB0_2>:
      30: bb 88 e8 00  	addw	a7, a7, a4
      34: 63 d0 d8 00  	bge	a7, a3, 0x34 <.LBB0_2+0x4>

0000000000000038 <.LBB0_3>:
      38: 01 43        	li	t1, 0
      3a: c6 83        	mv	t2, a7
      3c: 01 a0        	j	0x3c <.LBB0_3+0x4>

000000000000003e <.LBB0_4>:
      3e: 3a 93        	add	t1, t1, a4
      40: bb 83 53 00  	addw	t2, t2, t0
      44: 63 50 d3 00  	bge	t1, a3, 0x44 <.LBB0_4+0x6>

0000000000000048 <.LBB0_5>:
      48: 01 4e        	li	t3, 0
      4a: c6 8e        	mv	t4, a7
      4c: 01 a0        	j	0x4c <.LBB0_5+0x4>

000000000000004e <.LBB0_6>:
      4e: 05 2e        	addiw	t3, t3, 1
      50: bb 8e de 00  	addw	t4, t4, a3
      54: 63 00 de 00  	beq	t3, a3, 0x54 <.LBB0_6+0x6>

0000000000000058 <.LBB0_7>:
      58: 63 50 e0 00  	blez	a4, 0x58 <.LBB0_7>
      5c: 81 49        	li	s3, 0
      5e: bb 0f de 02  	mulw	t6, t3, a3
      62: 1e 89        	mv	s2, t2

0000000000000064 <.LBB0_9>:
      64: b3 87 69 00  	add	a5, s3, t1
      68: bb 87 f7 01  	addw	a5, a5, t6
      6c: 8e 07        	slli	a5, a5, 3
      6e: 33 0a f5 00  	add	s4, a0, a5
      72: fa 8a        	mv	s5, t5
      74: 4a 84        	mv	s0, s2
      76: f6 84        	mv	s1, t4

0000000000000078 <.LBB0_10>:
      78: 07 30 0a 00  	fld	ft0, 0(s4)
      7c: 93 17 34 00  	slli	a5, s0, 3
      80: ae 97        	add	a5, a5, a1
      82: 87 b0 07 00  	fld	ft1, 0(a5)
      86: 93 97 34 00  	slli	a5, s1, 3
      8a: b2 97        	add	a5, a5, a2
      8c: 07 b1 07 00  	fld	ft2, 0(a5)
      90: 43 70 10 12  	fmadd.d	ft0, ft0, ft1, ft2
      94: 27 b0 07 00  	fsd	ft0, 0(a5)
      98: 85 24        	addiw	s1, s1, 1
      9a: fd 1a        	addi	s5, s5, -1
      9c: 05 24        	addiw	s0, s0, 1
      9e: 63 90 0a 00  	bnez	s5, 0x9e <.LBB0_10+0x26>
      a2: 85 09        	addi	s3, s3, 1
      a4: 3b 09 d9 00  	addw	s2, s2, a3
      a8: 63 90 e9 01  	bne	s3, t5, 0xa8 <.LBB0_10+0x30>
      ac: 01 a0        	j	0xac <.LBB0_10+0x34>

00000000000000ae <.LBB0_12>:
      ae: 73 26 20 c0  	rdinstret	a2
      b2: 83 35 08 00  	ld	a1, 0(a6)
      b6: b7 06 00 00  	lui	a3, 0
      ba: 37 05 00 00  	lui	a0, 0
      be: 13 05 05 00  	mv	a0, a0
      c2: 23 b0 c6 00  	sd	a2, 0(a3)
      c6: 22 74        	ld	s0, 40(sp)
      c8: 82 74        	ld	s1, 32(sp)
      ca: 62 69        	ld	s2, 24(sp)
      cc: c2 69        	ld	s3, 16(sp)
      ce: 22 6a        	ld	s4, 8(sp)
      d0: 82 6a        	ld	s5, 0(sp)
      d2: 45 61        	addi	sp, sp, 48
      d4: 17 03 00 00  	auipc	t1, 0
      d8: 67 00 03 00  	jr	t1
