
kernel.o:     file format elf64-littleriscv


Disassembly of section .text:

0000000000000000 <core>:
   0:	1101                	addi	sp,sp,-32
   2:	ec22                	sd	s0,24(sp)
   4:	e826                	sd	s1,16(sp)
   6:	e44a                	sd	s2,8(sp)
   8:	c02027f3          	rdinstret	a5
   c:	00000f37          	lui	t5,0x0
  10:	00ff3023          	sd	a5,0(t5) # 0 <core>
  14:	14a05e63          	blez	a0,170 <.L2>
  18:	fff50f9b          	addiw	t6,a0,-1
  1c:	1f82                	slli	t6,t6,0x20
  1e:	01dfdf93          	srli	t6,t6,0x1d
  22:	00870e13          	addi	t3,a4,8
  26:	88ba                	mv	a7,a4
  28:	8eb2                	mv	t4,a2
  2a:	9ff2                	add	t6,t6,t3
  2c:	00351313          	slli	t1,a0,0x3

0000000000000030 <.L5>:
  30:	0008b023          	sd	zero,0(a7)
  34:	f20007d3          	fmv.d.x	fa5,zero
  38:	00b05e63          	blez	a1,54 <.L3>
  3c:	8876                	mv	a6,t4
  3e:	4781                	li	a5,0

0000000000000040 <.L4>:
  40:	00083707          	fld	fa4,0(a6)
  44:	2785                	addiw	a5,a5,1
  46:	981a                	add	a6,a6,t1
  48:	02e7f7d3          	fadd.d	fa5,fa5,fa4
  4c:	00f8b027          	fsd	fa5,0(a7)
  50:	fef598e3          	bne	a1,a5,40 <.L4>

0000000000000054 <.L3>:
  54:	1aa7f7d3          	fdiv.d	fa5,fa5,fa0
  58:	08a1                	addi	a7,a7,8
  5a:	0ea1                	addi	t4,t4,8
  5c:	fef8bc27          	fsd	fa5,-8(a7)
  60:	fdf898e3          	bne	a7,t6,30 <.L5>
  64:	0005029b          	sext.w	t0,a0
  68:	04b05663          	blez	a1,b4 <.L7>

000000000000006c <.L6>:
  6c:	0005029b          	sext.w	t0,a0
  70:	fff2889b          	addiw	a7,t0,-1
  74:	1882                	slli	a7,a7,0x20
  76:	01d8d893          	srli	a7,a7,0x1d
  7a:	98f2                	add	a7,a7,t3
  7c:	4301                	li	t1,0
  7e:	4e01                	li	t3,0

0000000000000080 <.L9>:
  80:	003e1793          	slli	a5,t3,0x3
  84:	97b2                	add	a5,a5,a2
  86:	883a                	mv	a6,a4
  88:	00a05d63          	blez	a0,a2 <.L12>

000000000000008c <.L8>:
  8c:	239c                	fld	fa5,0(a5)
  8e:	00083707          	fld	fa4,0(a6)
  92:	07a1                	addi	a5,a5,8
  94:	0821                	addi	a6,a6,8
  96:	0ae7f7d3          	fsub.d	fa5,fa5,fa4
  9a:	fef7bc27          	fsd	fa5,-8(a5)
  9e:	ff1817e3          	bne	a6,a7,8c <.L8>

00000000000000a2 <.L12>:
  a2:	2305                	addiw	t1,t1,1
  a4:	005e0e3b          	addw	t3,t3,t0
  a8:	fcb34ce3          	blt	t1,a1,80 <.L9>
  ac:	08a05d63          	blez	a0,146 <.L13>
  b0:	00351313          	slli	t1,a0,0x3

00000000000000b4 <.L7>:
  b4:	00000737          	lui	a4,0x0
  b8:	00073587          	fld	fa1,0(a4) # 0 <core>
  bc:	83b2                	mv	t2,a2
  be:	4401                	li	s0,0
  c0:	4e01                	li	t3,0
  c2:	4881                	li	a7,0
  c4:	4781                	li	a5,0
  c6:	fff2849b          	addiw	s1,t0,-1

00000000000000ca <.L14>:
  ca:	00188913          	addi	s2,a7,1
  ce:	06a7d363          	ble	a0,a5,134 <.L19>
  d2:	0ab57653          	fsub.d	fa2,fa0,fa1
  d6:	41148fbb          	subw	t6,s1,a7
  da:	01140833          	add	a6,s0,a7
  de:	1f82                	slli	t6,t6,0x20
  e0:	00188913          	addi	s2,a7,1
  e4:	080e                	slli	a6,a6,0x3
  e6:	020fdf93          	srli	t6,t6,0x20
  ea:	9836                	add	a6,a6,a3
  ec:	9fca                	add	t6,t6,s2
  ee:	088e                	slli	a7,a7,0x3
  f0:	0f8e                	slli	t6,t6,0x3
  f2:	8ec2                	mv	t4,a6

00000000000000f4 <.L17>:
  f4:	00083023          	sd	zero,0(a6)
  f8:	f20007d3          	fmv.d.x	fa5,zero
  fc:	02b05163          	blez	a1,11e <.L15>
 100:	879e                	mv	a5,t2
 102:	4601                	li	a2,0

0000000000000104 <.L16>:
 104:	00fe0733          	add	a4,t3,a5
 108:	9746                	add	a4,a4,a7
 10a:	2394                	fld	fa3,0(a5)
 10c:	2318                	fld	fa4,0(a4)
 10e:	2605                	addiw	a2,a2,1
 110:	979a                	add	a5,a5,t1
 112:	7ae6f7c3          	fmadd.d	fa5,fa3,fa4,fa5
 116:	00f83027          	fsd	fa5,0(a6)
 11a:	fec595e3          	bne	a1,a2,104 <.L16>

000000000000011e <.L15>:
 11e:	1ac7f7d3          	fdiv.d	fa5,fa5,fa2
 122:	0821                	addi	a6,a6,8
 124:	08a1                	addi	a7,a7,8
 126:	fef83c27          	fsd	fa5,-8(a6)
 12a:	00feb027          	fsd	fa5,0(t4)
 12e:	9e9a                	add	t4,t4,t1
 130:	fd1f92e3          	bne	t6,a7,f4 <.L17>

0000000000000134 <.L19>:
 134:	0009079b          	sext.w	a5,s2
 138:	88ca                	mv	a7,s2
 13a:	03a1                	addi	t2,t2,8
 13c:	1e61                	addi	t3,t3,-8
 13e:	0082843b          	addw	s0,t0,s0
 142:	f8a7c4e3          	blt	a5,a0,ca <.L14>

0000000000000146 <.L13>:
 146:	c02027f3          	rdinstret	a5
 14a:	6462                	ld	s0,24(sp)
 14c:	64c2                	ld	s1,16(sp)
 14e:	6922                	ld	s2,8(sp)
 150:	000f3583          	ld	a1,0(t5)
 154:	00000737          	lui	a4,0x0
 158:	00000537          	lui	a0,0x0
 15c:	00f73023          	sd	a5,0(a4) # 0 <core>
 160:	863e                	mv	a2,a5
 162:	00050513          	mv	a0,a0
 166:	6105                	addi	sp,sp,32
 168:	00000317          	auipc	t1,0x0
 16c:	00030067          	jr	t1 # 168 <.L13+0x22>

0000000000000170 <.L2>:
 170:	00870e13          	addi	t3,a4,8
 174:	eeb04ce3          	bgtz	a1,6c <.L6>
 178:	b7f9                	j	146 <.L13>
