
kernel.o:     file format elf64-littleriscv


Disassembly of section .text:

0000000000000000 <core>:
   0:	7119                	addi	sp,sp,-128
   2:	00269793          	slli	a5,a3,0x2
   6:	f8a2                	sd	s0,112(sp)
   8:	00169e93          	slli	t4,a3,0x1
   c:	00278313          	addi	t1,a5,2
  10:	00250413          	addi	s0,a0,2
  14:	0791                	addi	a5,a5,4
  16:	002e8813          	addi	a6,t4,2
  1a:	97aa                	add	a5,a5,a0
  1c:	82a2                	mv	t0,s0
  1e:	00450413          	addi	s0,a0,4
  22:	f06a                	sd	s10,32(sp)
  24:	8e3a                	mv	t3,a4
  26:	8d36                	mv	s10,a3
  28:	01d50733          	add	a4,a0,t4
  2c:	004e8893          	addi	a7,t4,4
  30:	83a2                	mv	t2,s0
  32:	8f3e                	mv	t5,a5
  34:	01050433          	add	s0,a0,a6
  38:	01d587b3          	add	a5,a1,t4
  3c:	86ba                	mv	a3,a4
  3e:	8fa2                	mv	t6,s0
  40:	883e                	mv	a6,a5
  42:	01150433          	add	s0,a0,a7
  46:	ffed079b          	addiw	a5,s10,-2
  4a:	f4a6                	sd	s1,104(sp)
  4c:	f862                	sd	s8,48(sp)
  4e:	f466                	sd	s9,40(sp)
  50:	8c32                	mv	s8,a2
  52:	8caa                	mv	s9,a0
  54:	84a2                	mv	s1,s0
  56:	01d68433          	add	s0,a3,t4
  5a:	8ebe                	mv	t4,a5
  5c:	ffee079b          	addiw	a5,t3,-2
  60:	fc86                	sd	ra,120(sp)
  62:	f0ca                	sd	s2,96(sp)
  64:	ecce                	sd	s3,88(sp)
  66:	e8d2                	sd	s4,80(sp)
  68:	e4d6                	sd	s5,72(sp)
  6a:	e0da                	sd	s6,64(sp)
  6c:	fc5e                	sd	s7,56(sp)
  6e:	ec6e                	sd	s11,24(sp)
  70:	8722                	mv	a4,s0
  72:	e406                	sd	ra,8(sp)
  74:	00650433          	add	s0,a0,t1
  78:	000c5603          	lhu	a2,0(s8)
  7c:	853e                	mv	a0,a5
  7e:	002c5583          	lhu	a1,2(s8)
  82:	004c5883          	lhu	a7,4(s8)
  86:	006c5303          	lhu	t1,6(s8)
  8a:	008c5903          	lhu	s2,8(s8)
  8e:	00ac5983          	lhu	s3,10(s8)
  92:	00cc5a03          	lhu	s4,12(s8)
  96:	00ec5a83          	lhu	s5,14(s8)
  9a:	010c5783          	lhu	a5,16(s8)
  9e:	4b0d                	li	s6,3
  a0:	4b85                	li	s7,1
  a2:	8de6                	mv	s11,s9
  a4:	80e2                	mv	ra,s8
  a6:	c0202cf3          	rdinstret	s9
  aa:	d4add08b          	ss.sta.ld.h	u1,s11,a0,s10
  ae:	bbd0008b          	ss.end	u1,zero,t4,s7
  b2:	0000108b          	ss.cfg.vec	u1
  b6:	d4a2d10b          	ss.sta.ld.h	u2,t0,a0,s10
  ba:	bbd0010b          	ss.end	u2,zero,t4,s7
  be:	0000110b          	ss.cfg.vec	u2
  c2:	d4a3d18b          	ss.sta.ld.h	u3,t2,a0,s10
  c6:	bbd0018b          	ss.end	u3,zero,t4,s7
  ca:	0000118b          	ss.cfg.vec	u3
  ce:	d4a6d20b          	ss.sta.ld.h	u4,a3,a0,s10
  d2:	bbd0020b          	ss.end	u4,zero,t4,s7
  d6:	0000120b          	ss.cfg.vec	u4
  da:	d4afd28b          	ss.sta.ld.h	u5,t6,a0,s10
  de:	bbd0028b          	ss.end	u5,zero,t4,s7
  e2:	0000128b          	ss.cfg.vec	u5
  e6:	d4a4d30b          	ss.sta.ld.h	u6,s1,a0,s10
  ea:	bbd0030b          	ss.end	u6,zero,t4,s7
  ee:	0000130b          	ss.cfg.vec	u6
  f2:	d4a7538b          	ss.sta.ld.h	u7,a4,a0,s10
  f6:	bbd0038b          	ss.end	u7,zero,t4,s7
  fa:	0000138b          	ss.cfg.vec	u7
  fe:	d4a4540b          	ss.sta.ld.h	u8,s0,a0,s10
 102:	bbd0040b          	ss.end	u8,zero,t4,s7
 106:	0000140b          	ss.cfg.vec	u8
 10a:	d4af548b          	ss.sta.ld.h	u9,t5,a0,s10
 10e:	bbd0048b          	ss.end	u9,zero,t4,s7
 112:	0000148b          	ss.cfg.vec	u9
 116:	ac06152b          	so.v.dp.h	u10,a2,p0
 11a:	ac0595ab          	so.v.dp.h	u11,a1,p0
 11e:	ac08962b          	so.v.dp.h	u12,a7,p0
 122:	ac0316ab          	so.v.dp.h	u13,t1,p0
 126:	ac09172b          	so.v.dp.h	u14,s2,p0
 12a:	ac0997ab          	so.v.dp.h	u15,s3,p0
 12e:	ac0a182b          	so.v.dp.h	u16,s4,p0
 132:	ac0a98ab          	so.v.dp.h	u17,s5,p0
 136:	ac07992b          	so.v.dp.h	u18,a5,p0
 13a:	d4a8100b          	ss.sta.st.h	u0,a6,a0,s10
 13e:	bbdb800b          	ss.end	u0,s7,t4,s7
 142:	0000100b          	ss.cfg.vec	u0

0000000000000146 <.loop_y76>:
 146:	109529ab          	so.a.mul.sg	u19,u10,u9,p0
 14a:	1085aa2b          	so.a.mul.sg	u20,u11,u8,p0
 14e:	10762aab          	so.a.mul.sg	u21,u12,u7,p0
 152:	1066ab2b          	so.a.mul.sg	u22,u13,u6,p0
 156:	10572bab          	so.a.mul.sg	u23,u14,u5,p0
 15a:	1047ac2b          	so.a.mul.sg	u24,u15,u4,p0
 15e:	10382cab          	so.a.mul.sg	u25,u16,u3,p0
 162:	1028ad2b          	so.a.mul.sg	u26,u17,u2,p0
 166:	10192dab          	so.a.mul.sg	u27,u18,u1,p0
 16a:	0149ae2b          	so.a.add.sg	u28,u19,u20,p0
 16e:	016aaeab          	so.a.add.sg	u29,u21,u22,p0
 172:	018baf2b          	so.a.add.sg	u30,u23,u24,p0
 176:	01acafab          	so.a.add.sg	u31,u25,u26,p0
 17a:	01ceaeab          	so.a.add.sg	u29,u29,u28,p0
 17e:	01efafab          	so.a.add.sg	u31,u31,u30,p0
 182:	01dfafab          	so.a.add.sg	u31,u31,u29,p0
 186:	01bfa02b          	so.a.add.sg	u0,u31,u27,p0
 18a:	ff706eab          	so.b.nc	u0,146 <.loop_y76>
 18e:	c0202c73          	rdinstret	s8
 192:	000007b7          	lui	a5,0x0
 196:	0197b023          	sd	s9,0(a5) # 0 <core>
 19a:	7446                	ld	s0,112(sp)
 19c:	000007b7          	lui	a5,0x0
 1a0:	0187b023          	sd	s8,0(a5) # 0 <core>
 1a4:	70e6                	ld	ra,120(sp)
 1a6:	74a6                	ld	s1,104(sp)
 1a8:	7906                	ld	s2,96(sp)
 1aa:	69e6                	ld	s3,88(sp)
 1ac:	6a46                	ld	s4,80(sp)
 1ae:	6aa6                	ld	s5,72(sp)
 1b0:	6b06                	ld	s6,64(sp)
 1b2:	7be2                	ld	s7,56(sp)
 1b4:	7d02                	ld	s10,32(sp)
 1b6:	6de2                	ld	s11,24(sp)
 1b8:	8662                	mv	a2,s8
 1ba:	85e6                	mv	a1,s9
 1bc:	7c42                	ld	s8,48(sp)
 1be:	7ca2                	ld	s9,40(sp)
 1c0:	00000537          	lui	a0,0x0
 1c4:	00050513          	mv	a0,a0
 1c8:	6109                	addi	sp,sp,128
 1ca:	00000317          	auipc	t1,0x0
 1ce:	00030067          	jr	t1 # 1ca <.loop_y76+0x84>
