
kernel.o:     file format elf64-littleriscv


Disassembly of section .text:

0000000000000000 <core>:
   0:	7119                	addi	sp,sp,-128
   2:	f46a                	sd	s10,40(sp)
   4:	fca2                	sd	s0,120(sp)
   6:	f8a6                	sd	s1,112(sp)
   8:	f4ca                	sd	s2,104(sp)
   a:	f0ce                	sd	s3,96(sp)
   c:	ecd2                	sd	s4,88(sp)
   e:	e8d6                	sd	s5,80(sp)
  10:	e4da                	sd	s6,72(sp)
  12:	e0de                	sd	s7,64(sp)
  14:	fc62                	sd	s8,56(sp)
  16:	f866                	sd	s9,48(sp)
  18:	f06e                	sd	s11,32(sp)
  1a:	8d36                	mv	s10,a3
  1c:	c02027f3          	rdinstret	a5
  20:	000006b7          	lui	a3,0x0
  24:	00f6b023          	sd	a5,0(a3) # 0 <core>
  28:	4789                	li	a5,2
  2a:	0ee7dc63          	ble	a4,a5,122 <.L2>
  2e:	0fa7da63          	ble	s10,a5,122 <.L2>
  32:	ffdd079b          	addiw	a5,s10,-3
  36:	001d1c1b          	slliw	s8,s10,0x1
  3a:	00150693          	addi	a3,a0,1
  3e:	1782                	slli	a5,a5,0x20
  40:	9381                	srli	a5,a5,0x20
  42:	9c36                	add	s8,s8,a3
  44:	9c3e                	add	s8,s8,a5
  46:	fff7079b          	addiw	a5,a4,-1
  4a:	e03e                	sd	a5,0(sp)
  4c:	01a507b3          	add	a5,a0,s10
  50:	e83e                	sd	a5,16(sp)
  52:	41a507b3          	sub	a5,a0,s10
  56:	ec3e                	sd	a5,24(sp)
  58:	00158793          	addi	a5,a1,1
  5c:	8baa                	mv	s7,a0
  5e:	8cea                	mv	s9,s10
  60:	4d85                	li	s11,1
  62:	e43e                	sd	a5,8(sp)

0000000000000064 <.L4>:
  64:	67c2                	ld	a5,16(sp)
  66:	2d85                	addiw	s11,s11,1
  68:	019b8833          	add	a6,s7,s9
  6c:	01978733          	add	a4,a5,s9
  70:	67e2                	ld	a5,24(sp)
  72:	019785b3          	add	a1,a5,s9
  76:	67a2                	ld	a5,8(sp)
  78:	019786b3          	add	a3,a5,s9

000000000000007c <.L5>:
  7c:	00274783          	lbu	a5,2(a4)
  80:	00284b03          	lbu	s6,2(a6)
  84:	00064503          	lbu	a0,0(a2)
  88:	00364383          	lbu	t2,3(a2)
  8c:	0025ca83          	lbu	s5,2(a1)
  90:	00664283          	lbu	t0,6(a2)
  94:	00174a03          	lbu	s4,1(a4)
  98:	00164f83          	lbu	t6,1(a2)
  9c:	00184f03          	lbu	t5,1(a6)
  a0:	00464983          	lbu	s3,4(a2)
  a4:	02f507bb          	mulw	a5,a0,a5
  a8:	0015c903          	lbu	s2,1(a1)
  ac:	00764e83          	lbu	t4,7(a2)
  b0:	00074483          	lbu	s1,0(a4)
  b4:	00264e03          	lbu	t3,2(a2)
  b8:	00084403          	lbu	s0,0(a6)
  bc:	00564303          	lbu	t1,5(a2)
  c0:	0005c503          	lbu	a0,0(a1)
  c4:	00864883          	lbu	a7,8(a2)
  c8:	0685                	addi	a3,a3,1
  ca:	036383bb          	mulw	t2,t2,s6
  ce:	0705                	addi	a4,a4,1
  d0:	0805                	addi	a6,a6,1
  d2:	0585                	addi	a1,a1,1
  d4:	035282bb          	mulw	t0,t0,s5
  d8:	007783bb          	addw	t2,a5,t2
  dc:	034f8fbb          	mulw	t6,t6,s4
  e0:	005382bb          	addw	t0,t2,t0
  e4:	03e98f3b          	mulw	t5,s3,t5
  e8:	01f28fbb          	addw	t6,t0,t6
  ec:	032e8ebb          	mulw	t4,t4,s2
  f0:	01ef8f3b          	addw	t5,t6,t5
  f4:	029e0e3b          	mulw	t3,t3,s1
  f8:	01df0ebb          	addw	t4,t5,t4
  fc:	0283033b          	mulw	t1,t1,s0
 100:	01ce8e3b          	addw	t3,t4,t3
 104:	02a888bb          	mulw	a7,a7,a0
 108:	006e033b          	addw	t1,t3,t1
 10c:	011308bb          	addw	a7,t1,a7
 110:	ff168fa3          	sb	a7,-1(a3)
 114:	f78714e3          	bne	a4,s8,7c <.L5>
 118:	6782                	ld	a5,0(sp)
 11a:	9c6a                	add	s8,s8,s10
 11c:	9cea                	add	s9,s9,s10
 11e:	f5b793e3          	bne	a5,s11,64 <.L4>

0000000000000122 <.L2>:
 122:	c02027f3          	rdinstret	a5
 126:	00000737          	lui	a4,0x0
 12a:	7466                	ld	s0,120(sp)
 12c:	00073583          	ld	a1,0(a4) # 0 <core>
 130:	74c6                	ld	s1,112(sp)
 132:	7926                	ld	s2,104(sp)
 134:	7986                	ld	s3,96(sp)
 136:	6a66                	ld	s4,88(sp)
 138:	6ac6                	ld	s5,80(sp)
 13a:	6b26                	ld	s6,72(sp)
 13c:	6b86                	ld	s7,64(sp)
 13e:	7c62                	ld	s8,56(sp)
 140:	7cc2                	ld	s9,48(sp)
 142:	7d22                	ld	s10,40(sp)
 144:	7d82                	ld	s11,32(sp)
 146:	00000737          	lui	a4,0x0
 14a:	00000537          	lui	a0,0x0
 14e:	00f73023          	sd	a5,0(a4) # 0 <core>
 152:	863e                	mv	a2,a5
 154:	00050513          	mv	a0,a0
 158:	6109                	addi	sp,sp,128
 15a:	00000317          	auipc	t1,0x0
 15e:	00030067          	jr	t1 # 15a <.L2+0x38>
