
kernel.o:     file format elf64-littleriscv


Disassembly of section .text:

0000000000000000 <core>:
   0:	7119                	addi	sp,sp,-128
   2:	00169793          	slli	a5,a3,0x1
   6:	f8a2                	sd	s0,112(sp)
   8:	f466                	sd	s9,40(sp)
   a:	f06a                	sd	s10,32(sp)
   c:	8caa                	mv	s9,a0
   e:	8d36                	mv	s10,a3
  10:	00178313          	addi	t1,a5,1
  14:	00150413          	addi	s0,a0,1
  18:	0789                	addi	a5,a5,2
  1a:	001d0813          	addi	a6,s10,1
  1e:	97e6                	add	a5,a5,s9
  20:	82a2                	mv	t0,s0
  22:	00250413          	addi	s0,a0,2
  26:	8e3a                	mv	t3,a4
  28:	002d0893          	addi	a7,s10,2
  2c:	01a50733          	add	a4,a0,s10
  30:	83a2                	mv	t2,s0
  32:	8ebe                	mv	t4,a5
  34:	01050433          	add	s0,a0,a6
  38:	01a587b3          	add	a5,a1,s10
  3c:	86ba                	mv	a3,a4
  3e:	8f22                	mv	t5,s0
  40:	883e                	mv	a6,a5
  42:	01150433          	add	s0,a0,a7
  46:	ffed079b          	addiw	a5,s10,-2
  4a:	fc86                	sd	ra,120(sp)
  4c:	f4a6                	sd	s1,104(sp)
  4e:	e0da                	sd	s6,64(sp)
  50:	fc5e                	sd	s7,56(sp)
  52:	f862                	sd	s8,48(sp)
  54:	ec6e                	sd	s11,24(sp)
  56:	f0ca                	sd	s2,96(sp)
  58:	ecce                	sd	s3,88(sp)
  5a:	e8d2                	sd	s4,80(sp)
  5c:	e4d6                	sd	s5,72(sp)
  5e:	8c32                	mv	s8,a2
  60:	8fa2                	mv	t6,s0
  62:	873e                	mv	a4,a5
  64:	01a68433          	add	s0,a3,s10
  68:	ffee079b          	addiw	a5,t3,-2
  6c:	84a2                	mv	s1,s0
  6e:	853e                	mv	a0,a5
  70:	006c8433          	add	s0,s9,t1
  74:	e406                	sd	ra,8(sp)
  76:	00064603          	lbu	a2,0(a2)
  7a:	001c4583          	lbu	a1,1(s8)
  7e:	002c4883          	lbu	a7,2(s8)
  82:	003c4303          	lbu	t1,3(s8)
  86:	004c4903          	lbu	s2,4(s8)
  8a:	005c4983          	lbu	s3,5(s8)
  8e:	006c4a03          	lbu	s4,6(s8)
  92:	007c4a83          	lbu	s5,7(s8)
  96:	008c4783          	lbu	a5,8(s8)
  9a:	4b0d                	li	s6,3
  9c:	4b85                	li	s7,1
  9e:	8de6                	mv	s11,s9
  a0:	80e2                	mv	ra,s8
  a2:	c0202cf3          	rdinstret	s9
  a6:	400dc08b          	ss.sta.ld.b.v.1	u1,s11
  aa:	d2a0008b          	ss.app	u1,zero,a0,s10
  ae:	bce0008b          	ss.end	u1,zero,a4,s7
  b2:	4002c10b          	ss.sta.ld.b.v.1	u2,t0
  b6:	d2a0010b          	ss.app	u2,zero,a0,s10
  ba:	bce0010b          	ss.end	u2,zero,a4,s7
  be:	4003c18b          	ss.sta.ld.b.v.1	u3,t2
  c2:	d2a0018b          	ss.app	u3,zero,a0,s10
  c6:	bce0018b          	ss.end	u3,zero,a4,s7
  ca:	4006c20b          	ss.sta.ld.b.v.1	u4,a3
  ce:	d2a0020b          	ss.app	u4,zero,a0,s10
  d2:	bce0020b          	ss.end	u4,zero,a4,s7
  d6:	400f428b          	ss.sta.ld.b.v.1	u5,t5
  da:	d2a0028b          	ss.app	u5,zero,a0,s10
  de:	bce0028b          	ss.end	u5,zero,a4,s7
  e2:	400fc30b          	ss.sta.ld.b.v.1	u6,t6
  e6:	d2a0030b          	ss.app	u6,zero,a0,s10
  ea:	bce0030b          	ss.end	u6,zero,a4,s7
  ee:	4004c38b          	ss.sta.ld.b.v.1	u7,s1
  f2:	d2a0038b          	ss.app	u7,zero,a0,s10
  f6:	bce0038b          	ss.end	u7,zero,a4,s7
  fa:	4004440b          	ss.sta.ld.b.v.1	u8,s0
  fe:	d2a0040b          	ss.app	u8,zero,a0,s10
 102:	bce0040b          	ss.end	u8,zero,a4,s7
 106:	400ec48b          	ss.sta.ld.b.v.1	u9,t4
 10a:	d2a0048b          	ss.app	u9,zero,a0,s10
 10e:	bce0048b          	ss.end	u9,zero,a4,s7
 112:	ac06052b          	so.v.dp.b	u10,a2,p0
 116:	ac0585ab          	so.v.dp.b	u11,a1,p0
 11a:	ac08862b          	so.v.dp.b	u12,a7,p0
 11e:	ac0306ab          	so.v.dp.b	u13,t1,p0
 122:	ac09072b          	so.v.dp.b	u14,s2,p0
 126:	ac0987ab          	so.v.dp.b	u15,s3,p0
 12a:	ac0a082b          	so.v.dp.b	u16,s4,p0
 12e:	ac0a88ab          	so.v.dp.b	u17,s5,p0
 132:	ac07892b          	so.v.dp.b	u18,a5,p0
 136:	0008000b          	ss.sta.st.b	u0,a6
 13a:	d2a0000b          	ss.app	u0,zero,a0,s10
 13e:	bceb800b          	ss.end	u0,s7,a4,s7

0000000000000142 <.loop_y75>:
 142:	109529ab          	so.a.mul.sg	u19,u10,u9,p0
 146:	1085aa2b          	so.a.mul.sg	u20,u11,u8,p0
 14a:	10762aab          	so.a.mul.sg	u21,u12,u7,p0
 14e:	1066ab2b          	so.a.mul.sg	u22,u13,u6,p0
 152:	10572bab          	so.a.mul.sg	u23,u14,u5,p0
 156:	1047ac2b          	so.a.mul.sg	u24,u15,u4,p0
 15a:	10382cab          	so.a.mul.sg	u25,u16,u3,p0
 15e:	1028ad2b          	so.a.mul.sg	u26,u17,u2,p0
 162:	10192dab          	so.a.mul.sg	u27,u18,u1,p0
 166:	0149ae2b          	so.a.add.sg	u28,u19,u20,p0
 16a:	016aaeab          	so.a.add.sg	u29,u21,u22,p0
 16e:	018baf2b          	so.a.add.sg	u30,u23,u24,p0
 172:	01acafab          	so.a.add.sg	u31,u25,u26,p0
 176:	01ceaeab          	so.a.add.sg	u29,u29,u28,p0
 17a:	01efafab          	so.a.add.sg	u31,u31,u30,p0
 17e:	01dfafab          	so.a.add.sg	u31,u31,u29,p0
 182:	01bfa02b          	so.a.add.sg	u0,u31,u27,p0
 186:	ff507eab          	so.b.nc	u0,142 <.loop_y75>
 18a:	c0202c73          	rdinstret	s8
 18e:	000007b7          	lui	a5,0x0
 192:	0197b023          	sd	s9,0(a5) # 0 <core>
 196:	7446                	ld	s0,112(sp)
 198:	000007b7          	lui	a5,0x0
 19c:	0187b023          	sd	s8,0(a5) # 0 <core>
 1a0:	70e6                	ld	ra,120(sp)
 1a2:	74a6                	ld	s1,104(sp)
 1a4:	7906                	ld	s2,96(sp)
 1a6:	69e6                	ld	s3,88(sp)
 1a8:	6a46                	ld	s4,80(sp)
 1aa:	6aa6                	ld	s5,72(sp)
 1ac:	6b06                	ld	s6,64(sp)
 1ae:	7be2                	ld	s7,56(sp)
 1b0:	7d02                	ld	s10,32(sp)
 1b2:	6de2                	ld	s11,24(sp)
 1b4:	8662                	mv	a2,s8
 1b6:	85e6                	mv	a1,s9
 1b8:	7c42                	ld	s8,48(sp)
 1ba:	7ca2                	ld	s9,40(sp)
 1bc:	00000537          	lui	a0,0x0
 1c0:	00050513          	mv	a0,a0
 1c4:	6109                	addi	sp,sp,128
 1c6:	00000317          	auipc	t1,0x0
 1ca:	00030067          	jr	t1 # 1c6 <.loop_y75+0x84>
