
kernel.o:	file format elf64-littleriscv

Disassembly of section .text:

0000000000000000 <.text>:
       0: 01 00        	nop

0000000000000002 <core>:
       2: 71 71        	addi	sp, sp, -176
       4: 06 f5        	sd	ra, 168(sp)
       6: 22 f1        	sd	s0, 160(sp)
       8: 26 ed        	sd	s1, 152(sp)
       a: 4a e9        	sd	s2, 144(sp)
       c: 4e e5        	sd	s3, 136(sp)
       e: 52 e1        	sd	s4, 128(sp)
      10: d6 fc        	sd	s5, 120(sp)
      12: da f8        	sd	s6, 112(sp)
      14: de f4        	sd	s7, 104(sp)
      16: e2 f0        	sd	s8, 96(sp)
      18: e6 ec        	sd	s9, 88(sp)
      1a: ea e8        	sd	s10, 80(sp)
      1c: ee e4        	sd	s11, 72(sp)
      1e: a2 a0        	fsd	fs0, 64(sp)
      20: 26 bc        	fsd	fs1, 56(sp)
      22: 4a b8        	fsd	fs2, 48(sp)
      24: 4e b4        	fsd	fs3, 40(sp)
      26: 36 8b        	mv	s6, a3
      28: b2 8b        	mv	s7, a2
      2a: 53 04 a5 22  	fmv.d	fs0, fa0
      2e: ae 89        	mv	s3, a1
      30: aa 8d        	mv	s11, a0
      32: 73 25 20 c0  	rdinstret	a0
      36: b7 05 00 00  	lui	a1, 0
      3a: 23 b0 a5 00  	sd	a0, 0(a1)
      3e: 93 98 09 02  	slli	a7, s3, 32
      42: 13 99 3d 00  	slli	s2, s11, 3
      46: 63 50 b0 01  	blez	s11, 0x46 <core+0x44>
      4a: d3 84 b5 22  	fmv.d	fs1, fa1
      4e: 01 45        	li	a0, 0
      50: 13 d4 08 02  	srli	s0, a7, 32
      54: 53 00 00 f2  	fmv.d.x	ft0, zero
      58: de 84        	mv	s1, s7
      5a: 01 a0        	j	0x5a <core+0x58>

000000000000005c <.LBB0_2>:
      5c: d3 f0 80 1a  	fdiv.d	ft1, ft1, fs0
      60: 27 b0 16 00  	fsd	ft1, 0(a3)
      64: 05 05        	addi	a0, a0, 1
      66: a1 04        	addi	s1, s1, 8
      68: 63 00 b5 01  	beq	a0, s11, 0x68 <.LBB0_2+0xc>

000000000000006c <.LBB0_3>:
      6c: 93 16 35 00  	slli	a3, a0, 3
      70: ba 96        	add	a3, a3, a4
      72: 23 b0 06 00  	sd	zero, 0(a3)
      76: d3 00 00 22  	fmv.d	ft1, ft0
      7a: 63 50 30 01  	blez	s3, 0x7a <.LBB0_3+0xe>
      7e: a2 85        	mv	a1, s0
      80: 26 86        	mv	a2, s1
      82: d3 00 00 22  	fmv.d	ft1, ft0

0000000000000086 <.LBB0_5>:
      86: 07 31 06 00  	fld	ft2, 0(a2)
      8a: d3 70 11 02  	fadd.d	ft1, ft2, ft1
      8e: 27 b0 16 00  	fsd	ft1, 0(a3)
      92: fd 15        	addi	a1, a1, -1
      94: 4a 96        	add	a2, a2, s2
      96: 81 e1        	bnez	a1, 0x96 <.LBB0_5+0x10>
      98: 01 a0        	j	0x98 <.LBB0_5+0x12>

000000000000009a <.LBB0_6>:
      9a: 63 50 b0 01  	blez	s11, 0x9a <.LBB0_6>
      9e: 37 05 00 00  	lui	a0, 0
      a2: 07 39 05 00  	fld	fs2, 0(a0)
      a6: 01 4c        	li	s8, 0
      a8: 93 dc 08 02  	srli	s9, a7, 32
      ac: d3 09 00 f2  	fmv.d.x	fs3, zero
      b0: 5e 8d        	mv	s10, s7
      b2: 01 a0        	j	0xb2 <.LBB0_6+0x18>

00000000000000b4 <.LBB0_8>:
      b4: 08 a0        	fsd	fa0, 0(s0)
      b6: 05 0c        	addi	s8, s8, 1
      b8: 21 0d        	addi	s10, s10, 8
      ba: 63 00 bc 01  	beq	s8, s11, 0xba <.LBB0_8+0x6>

00000000000000be <.LBB0_9>:
      be: 13 15 3c 00  	slli	a0, s8, 3
      c2: 33 84 a7 00  	add	s0, a5, a0
      c6: 23 30 04 00  	sd	zero, 0(s0)
      ca: 53 80 39 23  	fmv.d	ft0, fs3
      ce: 63 50 30 01  	blez	s3, 0xce <.LBB0_9+0x10>
      d2: 3a 95        	add	a0, a0, a4
      d4: e6 85        	mv	a1, s9
      d6: 6a 86        	mv	a2, s10
      d8: 53 80 39 23  	fmv.d	ft0, fs3

00000000000000dc <.LBB0_11>:
      dc: 87 30 06 00  	fld	ft1, 0(a2)
      e0: 07 31 05 00  	fld	ft2, 0(a0)
      e4: d3 f0 20 0a  	fsub.d	ft1, ft1, ft2
      e8: 43 f0 10 02  	fmadd.d	ft0, ft1, ft1, ft0
      ec: 27 30 04 00  	fsd	ft0, 0(s0)
      f0: fd 15        	addi	a1, a1, -1
      f2: 4a 96        	add	a2, a2, s2
      f4: 81 e1        	bnez	a1, 0xf4 <.LBB0_11+0x18>

00000000000000f6 <.LBB0_12>:
      f6: 53 70 80 1a  	fdiv.d	ft0, ft0, fs0
      fa: 53 75 00 5a  	fsqrt.d	fa0, ft0
      fe: 53 25 a5 a2  	feq.d	a0, fa0, fa0
     102: 01 c1        	beqz	a0, 0x102 <.LBB0_12+0xc>
     104: 53 05 95 a2  	fle.d	a0, fa0, fs1
     108: 01 c1        	beqz	a0, 0x108 <.LBB0_12+0x12>

000000000000010a <.LBB0_14>:
     10a: 53 05 29 23  	fmv.d	fa0, fs2
     10e: 01 a0        	j	0x10e <.LBB0_14+0x4>

0000000000000110 <.LBB0_15>:
     110: 53 05 00 22  	fmv.d	fa0, ft0
     114: 46 8a        	mv	s4, a7
     116: be 84        	mv	s1, a5
     118: ba 8a        	mv	s5, a4
     11a: 97 00 00 00  	auipc	ra, 0
     11e: e7 80 00 00  	jalr	ra
     122: 56 87        	mv	a4, s5
     124: a6 87        	mv	a5, s1
     126: d2 88        	mv	a7, s4
     128: 53 05 95 a2  	fle.d	a0, fa0, fs1
     12c: 01 c1        	beqz	a0, 0x12c <.LBB0_15+0x1c>
     12e: 01 a0        	j	0x12e <.LBB0_15+0x1e>

0000000000000130 <.LBB0_16>:
     130: 63 50 30 01  	blez	s3, 0x130 <.LBB0_16>
     134: 01 4c        	li	s8, 0
     136: 13 95 0d 02  	slli	a0, s11, 32
     13a: 01 91        	srli	a0, a0, 32
     13c: d3 74 04 5a  	fsqrt.d	fs1, fs0
     140: 53 a4 94 a2  	feq.d	s0, fs1, fs1
     144: de 84        	mv	s1, s7
     146: 01 a0        	j	0x146 <.LBB0_16+0x16>

0000000000000148 <.LBB0_18>:
     148: 05 0c        	addi	s8, s8, 1
     14a: ca 94        	add	s1, s1, s2
     14c: 63 00 3c 01  	beq	s8, s3, 0x14c <.LBB0_18+0x4>

0000000000000150 <.LBB0_19>:
     150: aa 8c        	mv	s9, a0
     152: ba 8a        	mv	s5, a4
     154: 3e 8a        	mv	s4, a5
     156: 26 8d        	mv	s10, s1
     158: 63 50 b0 01  	blez	s11, 0x158 <.LBB0_19+0x8>

000000000000015c <.LBB0_20>:
     15c: 07 b0 0a 00  	fld	ft0, 0(s5)
     160: 87 30 0d 00  	fld	ft1, 0(s10)
     164: 53 f0 00 0a  	fsub.d	ft0, ft1, ft0
     168: 27 30 0d 00  	fsd	ft0, 0(s10)
     16c: 53 85 94 22  	fmv.d	fa0, fs1
     170: 01 c0        	beqz	s0, 0x170 <.LBB0_20+0x14>

0000000000000172 <.LBB0_21>:
     172: 07 30 0a 00  	fld	ft0, 0(s4)
     176: 87 30 0d 00  	fld	ft1, 0(s10)
     17a: 53 70 05 12  	fmul.d	ft0, fa0, ft0
     17e: 53 f0 00 1a  	fdiv.d	ft0, ft1, ft0
     182: 27 30 0d 00  	fsd	ft0, 0(s10)
     186: 21 0d        	addi	s10, s10, 8
     188: 21 0a        	addi	s4, s4, 8
     18a: fd 1c        	addi	s9, s9, -1
     18c: a1 0a        	addi	s5, s5, 8
     18e: 63 90 0c 00  	bnez	s9, 0x18e <.LBB0_21+0x1c>
     192: 01 a0        	j	0x192 <.LBB0_21+0x20>

0000000000000194 <.LBB0_22>:
     194: 53 05 84 22  	fmv.d	fa0, fs0
     198: 46 f0        	sd	a7, 32(sp)
     19a: 3e ec        	sd	a5, 24(sp)
     19c: 3a e8        	sd	a4, 16(sp)
     19e: 2a e4        	sd	a0, 8(sp)
     1a0: 97 00 00 00  	auipc	ra, 0
     1a4: e7 80 00 00  	jalr	ra
     1a8: 22 65        	ld	a0, 8(sp)
     1aa: 42 67        	ld	a4, 16(sp)
     1ac: e2 67        	ld	a5, 24(sp)
     1ae: 82 78        	ld	a7, 32(sp)
     1b0: 01 a0        	j	0x1b0 <.LBB0_22+0x1c>

00000000000001b2 <.LBB0_23>:
     1b2: 09 45        	li	a0, 2
     1b4: 63 c0 ad 00  	blt	s11, a0, 0x1b4 <.LBB0_23+0x2>
     1b8: 81 42        	li	t0, 0
     1ba: 01 4e        	li	t3, 0
     1bc: 1b 85 fd ff  	addiw	a0, s11, -1
     1c0: 02 15        	slli	a0, a0, 32
     1c2: 13 58 05 02  	srli	a6, a0, 32
     1c6: 93 de 08 02  	srli	t4, a7, 32
     1ca: 13 83 8b 00  	addi	t1, s7, 8
     1ce: 85 43        	li	t2, 1
     1d0: 93 08 f0 3f  	li	a7, 1023
     1d4: d2 18        	slli	a7, a7, 52
     1d6: 53 00 00 f2  	fmv.d.x	ft0, zero
     1da: 01 a0        	j	0x1da <.LBB0_23+0x28>

00000000000001dc <.LBB0_25>:
     1dc: 05 2e        	addiw	t3, t3, 1
     1de: 85 03        	addi	t2, t2, 1
     1e0: 21 03        	addi	t1, t1, 8
     1e2: a1 0b        	addi	s7, s7, 8
     1e4: 63 80 02 01  	beq	t0, a6, 0x1e4 <.LBB0_25+0x8>

00000000000001e8 <.LBB0_26>:
     1e8: 96 85        	mv	a1, t0
     1ea: 3b 05 be 03  	mulw	a0, t3, s11
     1ee: 16 95        	add	a0, a0, t0
     1f0: 0e 05        	slli	a0, a0, 3
     1f2: 5a 95        	add	a0, a0, s6
     1f4: 85 02        	addi	t0, t0, 1
     1f6: 23 30 15 01  	sd	a7, 0(a0)
     1fa: 63 f0 b2 01  	bgeu	t0, s11, 0x1fa <.LBB0_26+0x12>
     1fe: 33 84 b5 03  	mul	s0, a1, s11
     202: 1a 85        	mv	a0, t1
     204: 1e 87        	mv	a4, t2
     206: 01 a0        	j	0x206 <.LBB0_26+0x1e>

0000000000000208 <.LBB0_28>:
     208: 33 06 b7 03  	mul	a2, a4, s11
     20c: 2e 96        	add	a2, a2, a1
     20e: 0e 06        	slli	a2, a2, 3
     210: 5a 96        	add	a2, a2, s6
     212: 27 30 16 00  	fsd	ft1, 0(a2)
     216: 05 07        	addi	a4, a4, 1
     218: 21 05        	addi	a0, a0, 8
     21a: 63 00 b7 01  	beq	a4, s11, 0x21a <.LBB0_28+0x12>

000000000000021e <.LBB0_29>:
     21e: 33 06 87 00  	add	a2, a4, s0
     222: 0e 06        	slli	a2, a2, 3
     224: b3 07 cb 00  	add	a5, s6, a2
     228: 23 b0 07 00  	sd	zero, 0(a5)
     22c: d3 00 00 22  	fmv.d	ft1, ft0
     230: 63 50 30 01  	blez	s3, 0x230 <.LBB0_29+0x12>
     234: 76 86        	mv	a2, t4
     236: de 84        	mv	s1, s7
     238: aa 86        	mv	a3, a0
     23a: d3 00 00 22  	fmv.d	ft1, ft0

000000000000023e <.LBB0_31>:
     23e: 07 b1 04 00  	fld	ft2, 0(s1)
     242: 87 b1 06 00  	fld	ft3, 0(a3)
     246: c3 70 31 0a  	fmadd.d	ft1, ft2, ft3, ft1
     24a: 27 b0 17 00  	fsd	ft1, 0(a5)
     24e: ca 96        	add	a3, a3, s2
     250: 7d 16        	addi	a2, a2, -1
     252: ca 94        	add	s1, s1, s2
     254: 01 e2        	bnez	a2, 0x254 <.LBB0_31+0x16>
     256: 01 a0        	j	0x256 <.LBB0_31+0x18>

0000000000000258 <.LBB0_32>:
     258: 3b 85 bd 03  	mulw	a0, s11, s11
     25c: 7d 35        	addiw	a0, a0, -1
     25e: 0e 05        	slli	a0, a0, 3
     260: 5a 95        	add	a0, a0, s6
     262: 93 05 f0 3f  	li	a1, 1023
     266: d2 15        	slli	a1, a1, 52
     268: 0c e1        	sd	a1, 0(a0)
     26a: 73 26 20 c0  	rdinstret	a2
     26e: 37 05 00 00  	lui	a0, 0
     272: 83 35 05 00  	ld	a1, 0(a0)
     276: b7 06 00 00  	lui	a3, 0
     27a: 37 05 00 00  	lui	a0, 0
     27e: 13 05 05 00  	mv	a0, a0
     282: 23 b0 c6 00  	sd	a2, 0(a3)
     286: aa 70        	ld	ra, 168(sp)
     288: 0a 74        	ld	s0, 160(sp)
     28a: ea 64        	ld	s1, 152(sp)
     28c: 4a 69        	ld	s2, 144(sp)
     28e: aa 69        	ld	s3, 136(sp)
     290: 0a 6a        	ld	s4, 128(sp)
     292: e6 7a        	ld	s5, 120(sp)
     294: 46 7b        	ld	s6, 112(sp)
     296: a6 7b        	ld	s7, 104(sp)
     298: 06 7c        	ld	s8, 96(sp)
     29a: e6 6c        	ld	s9, 88(sp)
     29c: 46 6d        	ld	s10, 80(sp)
     29e: a6 6d        	ld	s11, 72(sp)
     2a0: 06 24        	fld	fs0, 64(sp)
     2a2: e2 34        	fld	fs1, 56(sp)
     2a4: 42 39        	fld	fs2, 48(sp)
     2a6: a2 39        	fld	fs3, 40(sp)
     2a8: 4d 61        	addi	sp, sp, 176
     2aa: 17 03 00 00  	auipc	t1, 0
     2ae: 67 00 03 00  	jr	t1
