
kernel.o:	file format elf64-littleriscv

Disassembly of section .text:

0000000000000000 <.text>:
       0: 01 00        	nop

0000000000000002 <core>:
       2: 79 71        	addi	sp, sp, -48
       4: 22 f4        	sd	s0, 40(sp)
       6: 26 f0        	sd	s1, 32(sp)
       8: 4a ec        	sd	s2, 24(sp)
       a: 4e e8        	sd	s3, 16(sp)
       c: 52 e4        	sd	s4, 8(sp)
       e: 73 26 20 c0  	rdinstret	a2
      12: b7 06 00 00  	lui	a3, 0
      16: 73 24 20 c2  	csrr	s0, vlenb
      1a: 13 53 24 00  	srli	t1, s0, 2
      1e: 11 47        	li	a4, 4
      20: 23 b0 c6 00  	sd	a2, 0(a3)
      24: 1a 88        	mv	a6, t1
      26: 63 60 67 00  	bltu	a4, t1, 0x26 <core+0x24>
      2a: 11 48        	li	a6, 4

000000000000002c <.LBB0_2>:
      2c: 81 48        	li	a7, 0
      2e: 81 42        	li	t0, 0
      30: 93 87 c5 0c  	addi	a5, a1, 204
      34: 05 4a        	li	s4, 1
      36: 93 09 20 03  	li	s3, 50
      3a: 93 03 00 03  	li	t2, 48
      3e: 37 06 00 00  	lui	a2, 0
      42: 07 30 06 00  	fld	ft0, 0(a2)
      46: 13 0e 10 03  	li	t3, 49
      4a: 93 0e 80 0c  	li	t4, 200
      4e: 1b 06 f3 ff  	addiw	a2, t1, -1
      52: 13 7f 06 03  	andi	t5, a2, 48
      56: 93 4f 0f 03  	xori	t6, t5, 48
      5a: 01 a0        	j	0x5a <.LBB0_2+0x2e>

000000000000005c <.LBB0_3>:
      5c: 05 0a        	addi	s4, s4, 1
      5e: 85 02        	addi	t0, t0, 1
      60: 93 88 88 0c  	addi	a7, a7, 200
      64: 93 89 29 03  	addi	s3, s3, 50
      68: 63 00 ca 01  	beq	s4, t3, 0x68 <.LBB0_3+0xc>

000000000000006c <.LBB0_4>:
      6c: 05 49        	li	s2, 1
      6e: 63 e0 03 01  	bltu	t2, a6, 0x6e <.LBB0_4+0x2>
      72: 33 86 d2 03  	mul	a2, t0, t4
      76: b3 06 c5 00  	add	a3, a0, a2
      7a: 93 84 46 25  	addi	s1, a3, 596
      7e: 13 89 46 00  	addi	s2, a3, 4
      82: 2e 96        	add	a2, a2, a1
      84: 93 06 c6 18  	addi	a3, a2, 396
      88: 13 06 c6 0c  	addi	a2, a2, 204
      8c: 33 36 96 00  	sltu	a2, a2, s1
      90: b3 36 d9 00  	sltu	a3, s2, a3
      94: 75 8e        	and	a2, a2, a3
      96: 05 49        	li	s2, 1
      98: 01 e2        	bnez	a2, 0x98 <.LBB0_4+0x2c>
      9a: 13 49 1f 03  	xori	s2, t5, 49
      9e: 57 76 00 0d  	vsetvli	a2, zero, e32, m1, ta, ma
      a2: fe 84        	mv	s1, t6
      a4: 46 86        	mv	a2, a7

00000000000000a6 <.LBB0_7>:
      a6: b3 06 c5 00  	add	a3, a0, a2
      aa: 13 87 c6 0c  	addi	a4, a3, 204
      ae: 07 64 87 02  	vl1re32.v	v8, (a4)
      b2: 13 87 86 0c  	addi	a4, a3, 200
      b6: 87 64 87 02  	vl1re32.v	v9, (a4)
      ba: 13 87 06 0d  	addi	a4, a3, 208
      be: 07 65 87 02  	vl1re32.v	v10, (a4)
      c2: 13 87 46 19  	addi	a4, a3, 404
      c6: 87 65 87 02  	vl1re32.v	v11, (a4)
      ca: 91 06        	addi	a3, a3, 4
      cc: 07 e6 86 02  	vl1re32.v	v12, (a3)
      d0: 57 14 94 02  	vfadd.vv	v8, v9, v8
      d4: 57 14 85 02  	vfadd.vv	v8, v8, v10
      d8: 57 94 85 02  	vfadd.vv	v8, v8, v11
      dc: 57 14 86 02  	vfadd.vv	v8, v8, v12
      e0: 57 15 86 4a  	vfwcvt.f.f.v	v10, v8
      e4: 57 70 90 0d  	vsetvli	zero, zero, e64, m2, ta, ma
      e8: 57 54 a0 92  	vfmul.vf	v8, v10, ft0
      ec: 57 70 00 0d  	vsetvli	zero, zero, e32, m1, ta, ma
      f0: 57 15 8a 4a  	vfncvt.f.f.w	v10, v8
      f4: b3 86 c7 00  	add	a3, a5, a2
      f8: 27 85 86 02  	vs1r.v	v10, (a3)
      fc: b3 84 64 40  	sub	s1, s1, t1
     100: 22 96        	add	a2, a2, s0
     102: 81 e0        	bnez	s1, 0x102 <.LBB0_7+0x5c>
     104: 63 00 0f 00  	beqz	t5, 0x104 <.LBB0_7+0x5e>

0000000000000108 <.LBB0_9>:
     108: 13 06 f9 fc  	addi	a2, s2, -49
     10c: 4e 99        	add	s2, s2, s3
     10e: 93 14 29 00  	slli	s1, s2, 2
     112: b3 06 95 00  	add	a3, a0, s1
     116: ae 94        	add	s1, s1, a1

0000000000000118 <.LBB0_10>:
     118: 87 a0 06 00  	flw	ft1, 0(a3)
     11c: 07 a1 c6 ff  	flw	ft2, -4(a3)
     120: 87 a1 46 00  	flw	ft3, 4(a3)
     124: 07 a2 86 0c  	flw	ft4, 200(a3)
     128: d3 70 11 00  	fadd.s	ft1, ft2, ft1
     12c: 07 a1 86 f3  	flw	ft2, -200(a3)
     130: d3 f1 41 00  	fadd.s	ft3, ft3, ft4
     134: 91 06        	addi	a3, a3, 4
     136: d3 f0 30 00  	fadd.s	ft1, ft1, ft3
     13a: d3 f0 20 00  	fadd.s	ft1, ft1, ft2
     13e: d3 80 00 42  	fcvt.d.s	ft1, ft1
     142: d3 f0 00 12  	fmul.d	ft1, ft1, ft0
     146: d3 f0 10 40  	fcvt.s.d	ft1, ft1
     14a: 27 a0 14 00  	fsw	ft1, 0(s1)
     14e: 05 06        	addi	a2, a2, 1
     150: 91 04        	addi	s1, s1, 4
     152: 01 e2        	bnez	a2, 0x152 <.LBB0_10+0x3a>
     154: 01 a0        	j	0x154 <.LBB0_10+0x3c>

0000000000000156 <.LBB0_11>:
     156: 93 59 24 00  	srli	s3, s0, 2
     15a: 11 46        	li	a2, 4
     15c: 4e 88        	mv	a6, s3
     15e: 63 60 36 01  	bltu	a2, s3, 0x15e <.LBB0_11+0x8>
     162: 11 48        	li	a6, 4

0000000000000164 <.LBB0_13>:
     164: 81 48        	li	a7, 0
     166: 81 42        	li	t0, 0
     168: 93 07 c5 0c  	addi	a5, a0, 204
     16c: 05 4a        	li	s4, 1
     16e: 13 03 20 03  	li	t1, 50
     172: 93 03 00 03  	li	t2, 48
     176: 37 06 00 00  	lui	a2, 0
     17a: 07 30 06 00  	fld	ft0, 0(a2)
     17e: 13 0e 10 03  	li	t3, 49
     182: 93 0e 80 0c  	li	t4, 200
     186: 1b 86 f9 ff  	addiw	a2, s3, -1
     18a: 13 7f 06 03  	andi	t5, a2, 48
     18e: 93 4f 0f 03  	xori	t6, t5, 48
     192: 01 a0        	j	0x192 <.LBB0_13+0x2e>

0000000000000194 <.LBB0_14>:
     194: 05 0a        	addi	s4, s4, 1
     196: 85 02        	addi	t0, t0, 1
     198: 93 88 88 0c  	addi	a7, a7, 200
     19c: 13 03 23 03  	addi	t1, t1, 50
     1a0: 63 00 ca 01  	beq	s4, t3, 0x1a0 <.LBB0_14+0xc>

00000000000001a4 <.LBB0_15>:
     1a4: 05 49        	li	s2, 1
     1a6: 63 e0 03 01  	bltu	t2, a6, 0x1a6 <.LBB0_15+0x2>
     1aa: 33 86 d2 03  	mul	a2, t0, t4
     1ae: b3 86 c5 00  	add	a3, a1, a2
     1b2: 93 84 46 25  	addi	s1, a3, 596
     1b6: 13 89 46 00  	addi	s2, a3, 4
     1ba: 2a 96        	add	a2, a2, a0
     1bc: 93 06 c6 18  	addi	a3, a2, 396
     1c0: 13 06 c6 0c  	addi	a2, a2, 204
     1c4: 33 36 96 00  	sltu	a2, a2, s1
     1c8: b3 36 d9 00  	sltu	a3, s2, a3
     1cc: 75 8e        	and	a2, a2, a3
     1ce: 05 49        	li	s2, 1
     1d0: 01 e2        	bnez	a2, 0x1d0 <.LBB0_15+0x2c>
     1d2: 13 49 1f 03  	xori	s2, t5, 49
     1d6: 57 76 00 0d  	vsetvli	a2, zero, e32, m1, ta, ma
     1da: fe 84        	mv	s1, t6
     1dc: c6 86        	mv	a3, a7

00000000000001de <.LBB0_18>:
     1de: 33 86 d5 00  	add	a2, a1, a3
     1e2: 13 07 c6 0c  	addi	a4, a2, 204
     1e6: 07 64 87 02  	vl1re32.v	v8, (a4)
     1ea: 13 07 86 0c  	addi	a4, a2, 200
     1ee: 87 64 87 02  	vl1re32.v	v9, (a4)
     1f2: 13 07 06 0d  	addi	a4, a2, 208
     1f6: 07 65 87 02  	vl1re32.v	v10, (a4)
     1fa: 13 07 46 19  	addi	a4, a2, 404
     1fe: 87 65 87 02  	vl1re32.v	v11, (a4)
     202: 11 06        	addi	a2, a2, 4
     204: 07 66 86 02  	vl1re32.v	v12, (a2)
     208: 57 14 94 02  	vfadd.vv	v8, v9, v8
     20c: 57 14 85 02  	vfadd.vv	v8, v8, v10
     210: 57 94 85 02  	vfadd.vv	v8, v8, v11
     214: 57 14 86 02  	vfadd.vv	v8, v8, v12
     218: 57 15 86 4a  	vfwcvt.f.f.v	v10, v8
     21c: 57 70 90 0d  	vsetvli	zero, zero, e64, m2, ta, ma
     220: 57 54 a0 92  	vfmul.vf	v8, v10, ft0
     224: 57 70 00 0d  	vsetvli	zero, zero, e32, m1, ta, ma
     228: 57 15 8a 4a  	vfncvt.f.f.w	v10, v8
     22c: 33 86 d7 00  	add	a2, a5, a3
     230: 27 05 86 02  	vs1r.v	v10, (a2)
     234: b3 84 34 41  	sub	s1, s1, s3
     238: a2 96        	add	a3, a3, s0
     23a: 81 e0        	bnez	s1, 0x23a <.LBB0_18+0x5c>
     23c: 63 00 0f 00  	beqz	t5, 0x23c <.LBB0_18+0x5e>

0000000000000240 <.LBB0_20>:
     240: 93 04 f9 fc  	addi	s1, s2, -49
     244: 1a 99        	add	s2, s2, t1
     246: 93 16 29 00  	slli	a3, s2, 2
     24a: 33 86 d5 00  	add	a2, a1, a3
     24e: aa 96        	add	a3, a3, a0

0000000000000250 <.LBB0_21>:
     250: 87 20 06 00  	flw	ft1, 0(a2)
     254: 07 21 c6 ff  	flw	ft2, -4(a2)
     258: 87 21 46 00  	flw	ft3, 4(a2)
     25c: 07 22 86 0c  	flw	ft4, 200(a2)
     260: d3 70 11 00  	fadd.s	ft1, ft2, ft1
     264: 07 21 86 f3  	flw	ft2, -200(a2)
     268: d3 f1 41 00  	fadd.s	ft3, ft3, ft4
     26c: 11 06        	addi	a2, a2, 4
     26e: d3 f0 30 00  	fadd.s	ft1, ft1, ft3
     272: d3 f0 20 00  	fadd.s	ft1, ft1, ft2
     276: d3 80 00 42  	fcvt.d.s	ft1, ft1
     27a: d3 f0 00 12  	fmul.d	ft1, ft1, ft0
     27e: d3 f0 10 40  	fcvt.s.d	ft1, ft1
     282: 27 a0 16 00  	fsw	ft1, 0(a3)
     286: 85 04        	addi	s1, s1, 1
     288: 91 06        	addi	a3, a3, 4
     28a: 81 e0        	bnez	s1, 0x28a <.LBB0_21+0x3a>
     28c: 01 a0        	j	0x28c <.LBB0_21+0x3c>

000000000000028e <.LBB0_22>:
     28e: 73 26 20 c0  	rdinstret	a2
     292: 37 05 00 00  	lui	a0, 0
     296: 83 35 05 00  	ld	a1, 0(a0)
     29a: b7 06 00 00  	lui	a3, 0
     29e: 37 05 00 00  	lui	a0, 0
     2a2: 13 05 05 00  	mv	a0, a0
     2a6: 23 b0 c6 00  	sd	a2, 0(a3)
     2aa: 22 74        	ld	s0, 40(sp)
     2ac: 82 74        	ld	s1, 32(sp)
     2ae: 62 69        	ld	s2, 24(sp)
     2b0: c2 69        	ld	s3, 16(sp)
     2b2: 22 6a        	ld	s4, 8(sp)
     2b4: 45 61        	addi	sp, sp, 48
     2b6: 17 03 00 00  	auipc	t1, 0
     2ba: 67 00 03 00  	jr	t1
