
kernel.o:     file format elf64-littleriscv


Disassembly of section .text:

0000000000000000 <core>:
   0:	7179                	addi	sp,sp,-48
   2:	ec4a                	sd	s2,24(sp)
   4:	f422                	sd	s0,40(sp)
   6:	f026                	sd	s1,32(sp)
   8:	e84e                	sd	s3,16(sp)
   a:	e452                	sd	s4,8(sp)
   c:	e056                	sd	s5,0(sp)
   e:	893a                	mv	s2,a4
  10:	c0202773          	rdinstret	a4
  14:	00000ab7          	lui	s5,0x0
  18:	00eab023          	sd	a4,0(s5) # 0 <core>
  1c:	c3c1                	beqz	a5,9c <.L2>
  1e:	00289713          	slli	a4,a7,0x2
  22:	82b2                	mv	t0,a2
  24:	8a42                	mv	s4,a6
  26:	41100633          	neg	a2,a7
  2a:	080a                	slli	a6,a6,0x2
  2c:	89c6                	mv	s3,a7
  2e:	01028f33          	add	t5,t0,a6
  32:	00279893          	slli	a7,a5,0x2
  36:	00e683b3          	add	t2,a3,a4
  3a:	0007841b          	sext.w	s0,a5
  3e:	00261493          	slli	s1,a2,0x2
  42:	4801                	li	a6,0

0000000000000044 <.L3>:
  44:	8796                	mv	a5,t0
  46:	040a0563          	beqz	s4,90 <.L8>

000000000000004a <.L4>:
  4a:	4394                	lw	a3,0(a5)
  4c:	0791                	addi	a5,a5,4
  4e:	02b686bb          	mulw	a3,a3,a1
  52:	fed7ae23          	sw	a3,-4(a5)
  56:	ffe79ae3          	bne	a5,t5,4a <.L4>
  5a:	8fca                	mv	t6,s2
  5c:	00938eb3          	add	t4,t2,s1
  60:	02098863          	beqz	s3,90 <.L8>

0000000000000064 <.L6>:
  64:	837e                	mv	t1,t6
  66:	8696                	mv	a3,t0

0000000000000068 <.L7>:
  68:	000ea783          	lw	a5,0(t4)
  6c:	00032e03          	lw	t3,0(t1)
  70:	4290                	lw	a2,0(a3)
  72:	02a787bb          	mulw	a5,a5,a0
  76:	0691                	addi	a3,a3,4
  78:	0311                	addi	t1,t1,4
  7a:	03c787bb          	mulw	a5,a5,t3
  7e:	9fb1                	addw	a5,a5,a2
  80:	fef6ae23          	sw	a5,-4(a3)
  84:	ffe692e3          	bne	a3,t5,68 <.L7>
  88:	0e91                	addi	t4,t4,4
  8a:	9fba                	add	t6,t6,a4
  8c:	fdd39ce3          	bne	t2,t4,64 <.L6>

0000000000000090 <.L8>:
  90:	2805                	addiw	a6,a6,1
  92:	93c6                	add	t2,t2,a7
  94:	92c6                	add	t0,t0,a7
  96:	9f46                	add	t5,t5,a7
  98:	fa8816e3          	bne	a6,s0,44 <.L3>

000000000000009c <.L2>:
  9c:	c02027f3          	rdinstret	a5
  a0:	7422                	ld	s0,40(sp)
  a2:	000ab583          	ld	a1,0(s5)
  a6:	7482                	ld	s1,32(sp)
  a8:	6962                	ld	s2,24(sp)
  aa:	69c2                	ld	s3,16(sp)
  ac:	6a22                	ld	s4,8(sp)
  ae:	6a82                	ld	s5,0(sp)
  b0:	00000737          	lui	a4,0x0
  b4:	00000537          	lui	a0,0x0
  b8:	00f73023          	sd	a5,0(a4) # 0 <core>
  bc:	863e                	mv	a2,a5
  be:	00050513          	mv	a0,a0
  c2:	6145                	addi	sp,sp,48
  c4:	00000317          	auipc	t1,0x0
  c8:	00030067          	jr	t1 # c4 <.L2+0x28>
