
kernel.o:     file format elf64-littleriscv


Disassembly of section .text:

0000000000000000 <core>:
   0:	1101                	addi	sp,sp,-32
   2:	ec22                	sd	s0,24(sp)
   4:	e826                	sd	s1,16(sp)
   6:	e44a                	sd	s2,8(sp)
   8:	c02027f3          	rdinstret	a5
   c:	00000eb7          	lui	t4,0x0
  10:	00feb023          	sd	a5,0(t4) # 0 <core>
  14:	2a068363          	beqz	a3,2ba <.L2>
  18:	00860293          	addi	t0,a2,8
  1c:	00850f13          	addi	t5,a0,8
  20:	01e63f33          	sltu	t5,a2,t5
  24:	00553833          	sltu	a6,a0,t0
  28:	00c567b3          	or	a5,a0,a2
  2c:	001f4f13          	xori	t5,t5,1
  30:	00184813          	xori	a6,a6,1
  34:	8b9d                	andi	a5,a5,7
  36:	fff68393          	addi	t2,a3,-1
  3a:	010f6f33          	or	t5,t5,a6
  3e:	2c079563          	bnez	a5,308 <.L3>
  42:	00a3b793          	sltiu	a5,t2,10
  46:	0017c793          	xori	a5,a5,1
  4a:	00ff77b3          	and	a5,t5,a5
  4e:	2a078d63          	beqz	a5,308 <.L3>
  52:	ff86f313          	andi	t1,a3,-8
  56:	87aa                	mv	a5,a0
  58:	8832                	mv	a6,a2
  5a:	932a                	add	t1,t1,a0

000000000000005c <.L4>:
  5c:	0007b883          	ld	a7,0(a5)
  60:	0821                	addi	a6,a6,8
  62:	07a1                	addi	a5,a5,8
  64:	ff183c23          	sd	a7,-8(a6)
  68:	fe679ae3          	bne	a5,t1,5c <.L4>
  6c:	ff86f813          	andi	a6,a3,-8
  70:	0008079b          	sext.w	a5,a6
  74:	09068a63          	beq	a3,a6,108 <.L7>
  78:	010508b3          	add	a7,a0,a6
  7c:	00088303          	lb	t1,0(a7)
  80:	9832                	add	a6,a6,a2
  82:	0017889b          	addiw	a7,a5,1
  86:	00680023          	sb	t1,0(a6)
  8a:	06d8ff63          	bleu	a3,a7,108 <.L7>
  8e:	01150833          	add	a6,a0,a7
  92:	00080303          	lb	t1,0(a6)
  96:	98b2                	add	a7,a7,a2
  98:	0027881b          	addiw	a6,a5,2
  9c:	00688023          	sb	t1,0(a7)
  a0:	06d87463          	bleu	a3,a6,108 <.L7>
  a4:	010508b3          	add	a7,a0,a6
  a8:	00088303          	lb	t1,0(a7)
  ac:	9832                	add	a6,a6,a2
  ae:	0037889b          	addiw	a7,a5,3
  b2:	00680023          	sb	t1,0(a6)
  b6:	04d8f963          	bleu	a3,a7,108 <.L7>
  ba:	01150833          	add	a6,a0,a7
  be:	00080303          	lb	t1,0(a6)
  c2:	98b2                	add	a7,a7,a2
  c4:	0047881b          	addiw	a6,a5,4
  c8:	00688023          	sb	t1,0(a7)
  cc:	02d87e63          	bleu	a3,a6,108 <.L7>
  d0:	010508b3          	add	a7,a0,a6
  d4:	00088303          	lb	t1,0(a7)
  d8:	9832                	add	a6,a6,a2
  da:	0057889b          	addiw	a7,a5,5
  de:	00680023          	sb	t1,0(a6)
  e2:	02d8f363          	bleu	a3,a7,108 <.L7>
  e6:	01150833          	add	a6,a0,a7
  ea:	00080803          	lb	a6,0(a6)
  ee:	98b2                	add	a7,a7,a2
  f0:	2799                	addiw	a5,a5,6
  f2:	01088023          	sb	a6,0(a7)
  f6:	00d7f963          	bleu	a3,a5,108 <.L7>
  fa:	00f50833          	add	a6,a0,a5
  fe:	00080803          	lb	a6,0(a6)
 102:	97b2                	add	a5,a5,a2
 104:	01078023          	sb	a6,0(a5)

0000000000000108 <.L7>:
 108:	0ff77713          	andi	a4,a4,255
 10c:	8332                	mv	t1,a2
 10e:	882e                	mv	a6,a1
 110:	00c68fb3          	add	t6,a3,a2
 114:	8e2e                	mv	t3,a1
 116:	87b2                	mv	a5,a2

0000000000000118 <.L8>:
 118:	0007c883          	lbu	a7,0(a5)
 11c:	0e05                	addi	t3,t3,1
 11e:	0785                	addi	a5,a5,1
 120:	02e888bb          	mulw	a7,a7,a4
 124:	ff1e0fa3          	sb	a7,-1(t3)
 128:	fff798e3          	bne	a5,t6,118 <.L8>
 12c:	00858793          	addi	a5,a1,8
 130:	00f637b3          	sltu	a5,a2,a5
 134:	0055b2b3          	sltu	t0,a1,t0
 138:	0073b393          	sltiu	t2,t2,7
 13c:	0017c793          	xori	a5,a5,1
 140:	0012c293          	xori	t0,t0,1
 144:	0013c393          	xori	t2,t2,1
 148:	0057e7b3          	or	a5,a5,t0
 14c:	007f7f33          	and	t5,t5,t2
 150:	01e7ff33          	and	t5,a5,t5
 154:	180f0863          	beqz	t5,2e4 <.L9>
 158:	00c5e7b3          	or	a5,a1,a2
 15c:	8fc9                	or	a5,a5,a0
 15e:	8b9d                	andi	a5,a5,7
 160:	18079263          	bnez	a5,2e4 <.L9>
 164:	000007b7          	lui	a5,0x0
 168:	0007b383          	ld	t2,0(a5) # 0 <core>
 16c:	000007b7          	lui	a5,0x0
 170:	0007b903          	ld	s2,0(a5) # 0 <core>
 174:	ff86f493          	andi	s1,a3,-8
 178:	8e2a                	mv	t3,a0
 17a:	94aa                	add	s1,s1,a0
 17c:	8fb2                	mv	t6,a2
 17e:	8f2e                	mv	t5,a1

0000000000000180 <.L10>:
 180:	000e3283          	ld	t0,0(t3)
 184:	000f3783          	ld	a5,0(t5)
 188:	0e21                	addi	t3,t3,8
 18a:	0072f8b3          	and	a7,t0,t2
 18e:	0077f433          	and	s0,a5,t2
 192:	0057c7b3          	xor	a5,a5,t0
 196:	98a2                	add	a7,a7,s0
 198:	0127f7b3          	and	a5,a5,s2
 19c:	00f8c7b3          	xor	a5,a7,a5
 1a0:	00ffb023          	sd	a5,0(t6)
 1a4:	0f21                	addi	t5,t5,8
 1a6:	0fa1                	addi	t6,t6,8
 1a8:	fc9e1ce3          	bne	t3,s1,180 <.L10>
 1ac:	ff86f893          	andi	a7,a3,-8
 1b0:	0008879b          	sext.w	a5,a7
 1b4:	0f168463          	beq	a3,a7,29c <.L13>
 1b8:	01150e33          	add	t3,a0,a7
 1bc:	01158f33          	add	t5,a1,a7
 1c0:	000e4f83          	lbu	t6,0(t3)
 1c4:	000f4f03          	lbu	t5,0(t5)
 1c8:	98b2                	add	a7,a7,a2
 1ca:	00178e1b          	addiw	t3,a5,1
 1ce:	01ff0f3b          	addw	t5,t5,t6
 1d2:	01e88023          	sb	t5,0(a7)
 1d6:	0cde7363          	bleu	a3,t3,29c <.L13>
 1da:	01c508b3          	add	a7,a0,t3
 1de:	01c58f33          	add	t5,a1,t3
 1e2:	0008cf83          	lbu	t6,0(a7)
 1e6:	000f4f03          	lbu	t5,0(t5)
 1ea:	9e32                	add	t3,t3,a2
 1ec:	0027889b          	addiw	a7,a5,2
 1f0:	01ff0f3b          	addw	t5,t5,t6
 1f4:	01ee0023          	sb	t5,0(t3)
 1f8:	0ad8f263          	bleu	a3,a7,29c <.L13>
 1fc:	01158e33          	add	t3,a1,a7
 200:	01150f33          	add	t5,a0,a7
 204:	000e4f83          	lbu	t6,0(t3)
 208:	000f4f03          	lbu	t5,0(t5)
 20c:	98b2                	add	a7,a7,a2
 20e:	00378e1b          	addiw	t3,a5,3
 212:	01ff0f3b          	addw	t5,t5,t6
 216:	01e88023          	sb	t5,0(a7)
 21a:	08de7163          	bleu	a3,t3,29c <.L13>
 21e:	01c588b3          	add	a7,a1,t3
 222:	01c50f33          	add	t5,a0,t3
 226:	0008cf83          	lbu	t6,0(a7)
 22a:	000f4f03          	lbu	t5,0(t5)
 22e:	9e32                	add	t3,t3,a2
 230:	0047889b          	addiw	a7,a5,4
 234:	01ff0f3b          	addw	t5,t5,t6
 238:	01ee0023          	sb	t5,0(t3)
 23c:	06d8f063          	bleu	a3,a7,29c <.L13>
 240:	01158e33          	add	t3,a1,a7
 244:	01150f33          	add	t5,a0,a7
 248:	000e4f83          	lbu	t6,0(t3)
 24c:	000f4f03          	lbu	t5,0(t5)
 250:	98b2                	add	a7,a7,a2
 252:	00578e1b          	addiw	t3,a5,5
 256:	01ff0f3b          	addw	t5,t5,t6
 25a:	01e88023          	sb	t5,0(a7)
 25e:	02de7f63          	bleu	a3,t3,29c <.L13>
 262:	01c508b3          	add	a7,a0,t3
 266:	01c58f33          	add	t5,a1,t3
 26a:	0008c883          	lbu	a7,0(a7)
 26e:	000f4f03          	lbu	t5,0(t5)
 272:	9e32                	add	t3,t3,a2
 274:	2799                	addiw	a5,a5,6
 276:	01e888bb          	addw	a7,a7,t5
 27a:	011e0023          	sb	a7,0(t3)
 27e:	00d7ff63          	bleu	a3,a5,29c <.L13>
 282:	00f588b3          	add	a7,a1,a5
 286:	00f50e33          	add	t3,a0,a5
 28a:	0008c883          	lbu	a7,0(a7)
 28e:	000e4e03          	lbu	t3,0(t3)
 292:	97b2                	add	a5,a5,a2
 294:	01c888bb          	addw	a7,a7,t3
 298:	01178023          	sb	a7,0(a5)

000000000000029c <.L13>:
 29c:	95b6                	add	a1,a1,a3

000000000000029e <.L14>:
 29e:	00034783          	lbu	a5,0(t1)
 2a2:	00084683          	lbu	a3,0(a6)
 2a6:	0505                	addi	a0,a0,1
 2a8:	02e787bb          	mulw	a5,a5,a4
 2ac:	0805                	addi	a6,a6,1
 2ae:	0305                	addi	t1,t1,1
 2b0:	9fb5                	addw	a5,a5,a3
 2b2:	fef50fa3          	sb	a5,-1(a0)
 2b6:	feb814e3          	bne	a6,a1,29e <.L14>

00000000000002ba <.L2>:
 2ba:	c02027f3          	rdinstret	a5
 2be:	6462                	ld	s0,24(sp)
 2c0:	64c2                	ld	s1,16(sp)
 2c2:	6922                	ld	s2,8(sp)
 2c4:	000eb583          	ld	a1,0(t4)
 2c8:	00000737          	lui	a4,0x0
 2cc:	00000537          	lui	a0,0x0
 2d0:	00f73023          	sd	a5,0(a4) # 0 <core>
 2d4:	863e                	mv	a2,a5
 2d6:	00050513          	mv	a0,a0
 2da:	6105                	addi	sp,sp,32
 2dc:	00000317          	auipc	t1,0x0
 2e0:	00030067          	jr	t1 # 2dc <.L2+0x22>

00000000000002e4 <.L9>:
 2e4:	87aa                	mv	a5,a0
 2e6:	00a68fb3          	add	t6,a3,a0
 2ea:	8e2e                	mv	t3,a1

00000000000002ec <.L12>:
 2ec:	000e4883          	lbu	a7,0(t3)
 2f0:	0007cf03          	lbu	t5,0(a5)
 2f4:	0785                	addi	a5,a5,1
 2f6:	0e05                	addi	t3,t3,1
 2f8:	01e888bb          	addw	a7,a7,t5
 2fc:	01160023          	sb	a7,0(a2)
 300:	0605                	addi	a2,a2,1
 302:	fff795e3          	bne	a5,t6,2ec <.L12>
 306:	bf59                	j	29c <.L13>

0000000000000308 <.L3>:
 308:	882a                	mv	a6,a0
 30a:	87b2                	mv	a5,a2
 30c:	00a68333          	add	t1,a3,a0

0000000000000310 <.L6>:
 310:	00080883          	lb	a7,0(a6)
 314:	0785                	addi	a5,a5,1
 316:	0805                	addi	a6,a6,1
 318:	ff178fa3          	sb	a7,-1(a5)
 31c:	fe681ae3          	bne	a6,t1,310 <.L6>
 320:	b3e5                	j	108 <.L7>
