
kernel.o:     file format elf64-littleriscv


Disassembly of section .text:

0000000000000000 <core>:
   0:	c0202873          	rdinstret	a6
   4:	00000f37          	lui	t5,0x0
   8:	010f3023          	sd	a6,0(t5) # 0 <core>
   c:	cfa9                	beqz	a5,66 <.L3>
   e:	00379893          	slli	a7,a5,0x3
  12:	01158eb3          	add	t4,a1,a7
  16:	01168333          	add	t1,a3,a7
  1a:	8e2a                	mv	t3,a0

000000000000001c <.L5>:
  1c:	219c                	fld	fa5,0(a1)
  1e:	87b6                	mv	a5,a3
  20:	8872                	mv	a6,t3

0000000000000022 <.L4>:
  22:	00083687          	fld	fa3,0(a6)
  26:	2398                	fld	fa4,0(a5)
  28:	07a1                	addi	a5,a5,8
  2a:	0821                	addi	a6,a6,8
  2c:	7ae6f7c3          	fmadd.d	fa5,fa3,fa4,fa5
  30:	a19c                	fsd	fa5,0(a1)
  32:	fef318e3          	bne	t1,a5,22 <.L4>
  36:	05a1                	addi	a1,a1,8
  38:	9e46                	add	t3,t3,a7
  3a:	febe91e3          	bne	t4,a1,1c <.L5>
  3e:	01160833          	add	a6,a2,a7
  42:	011705b3          	add	a1,a4,a7

0000000000000046 <.L6>:
  46:	221c                	fld	fa5,0(a2)
  48:	87ba                	mv	a5,a4
  4a:	86aa                	mv	a3,a0

000000000000004c <.L7>:
  4c:	2294                	fld	fa3,0(a3)
  4e:	2398                	fld	fa4,0(a5)
  50:	07a1                	addi	a5,a5,8
  52:	96c6                	add	a3,a3,a7
  54:	7ae6f7c3          	fmadd.d	fa5,fa3,fa4,fa5
  58:	a21c                	fsd	fa5,0(a2)
  5a:	fef599e3          	bne	a1,a5,4c <.L7>
  5e:	0621                	addi	a2,a2,8
  60:	0521                	addi	a0,a0,8
  62:	fec812e3          	bne	a6,a2,46 <.L6>

0000000000000066 <.L3>:
  66:	c02027f3          	rdinstret	a5
  6a:	000f3583          	ld	a1,0(t5)
  6e:	00000537          	lui	a0,0x0
  72:	00000737          	lui	a4,0x0
  76:	863e                	mv	a2,a5
  78:	00050513          	mv	a0,a0
  7c:	00f73023          	sd	a5,0(a4) # 0 <core>
  80:	00000317          	auipc	t1,0x0
  84:	00030067          	jr	t1 # 80 <.L3+0x1a>
