
kernel.o:	file format elf64-littleriscv

Disassembly of section .text:

0000000000000000 <.text>:
       0: 01 00        	nop

0000000000000002 <core>:
       2: 75 71        	addi	sp, sp, -144
       4: 06 e5        	sd	ra, 136(sp)
       6: 22 e1        	sd	s0, 128(sp)
       8: a6 fc        	sd	s1, 120(sp)
       a: ca f8        	sd	s2, 112(sp)
       c: ce f4        	sd	s3, 104(sp)
       e: d2 f0        	sd	s4, 96(sp)
      10: d6 ec        	sd	s5, 88(sp)
      12: da e8        	sd	s6, 80(sp)
      14: de e4        	sd	s7, 72(sp)
      16: e2 e0        	sd	s8, 64(sp)
      18: 66 fc        	sd	s9, 56(sp)
      1a: 6a f8        	sd	s10, 48(sp)
      1c: 6e f4        	sd	s11, 40(sp)
      1e: ba 8e        	mv	t4, a4
      20: 36 8e        	mv	t3, a3
      22: f3 26 20 c0  	rdinstret	a3
      26: 37 07 00 00  	lui	a4, 0
      2a: 23 30 d7 00  	sd	a3, 0(a4)
      2e: 3e e4        	sd	a5, 8(sp)
      30: 63 80 07 00  	beqz	a5, 0x30 <core+0x2e>
      34: 01 43        	li	t1, 0
      36: 02 e8        	sd	zero, 16(sp)
      38: a2 66        	ld	a3, 8(sp)
      3a: 86 06        	slli	a3, a3, 1
      3c: 36 e0        	sd	a3, 0(sp)
      3e: 93 16 18 00  	slli	a3, a6, 1
      42: 36 f0        	sd	a3, 32(sp)
      44: 13 9f 18 00  	slli	t5, a7, 1
      48: 32 ec        	sd	a2, 24(sp)
      4a: f3 2c 20 c2  	csrr	s9, vlenb
      4e: 01 a0        	j	0x4e <core+0x4c>

0000000000000050 <.LBB0_2>:
      50: 42 67        	ld	a4, 16(sp)
      52: 05 07        	addi	a4, a4, 1
      54: 82 66        	ld	a3, 0(sp)
      56: e2 67        	ld	a5, 24(sp)
      58: b6 97        	add	a5, a5, a3
      5a: 3e ec        	sd	a5, 24(sp)
      5c: a2 66        	ld	a3, 8(sp)
      5e: 36 93        	add	t1, t1, a3
      60: 3a e8        	sd	a4, 16(sp)
      62: 63 00 d7 00  	beq	a4, a3, 0x62 <.LBB0_2+0x12>

0000000000000066 <.LBB0_3>:
      66: 63 00 08 00  	beqz	a6, 0x66 <.LBB0_3>
      6a: 93 d6 1c 00  	srli	a3, s9, 1
      6e: 63 70 d8 00  	bgeu	a6, a3, 0x6e <.LBB0_3+0x8>
      72: 01 44        	li	s0, 0
      74: 01 a0        	j	0x74 <.LBB0_3+0xe>

0000000000000076 <.LBB0_6>:
      76: 13 87 f6 ff  	addi	a4, a3, -1
      7a: b3 72 e8 00  	and	t0, a6, a4
      7e: 33 04 58 40  	sub	s0, a6, t0
      82: 57 77 80 0c  	vsetvli	a4, zero, e16, m1, ta, ma
      86: 22 87        	mv	a4, s0
      88: e2 64        	ld	s1, 24(sp)

000000000000008a <.LBB0_7>:
      8a: 07 d4 84 02  	vl1re16.v	v8, (s1)
      8e: 57 e4 85 96  	vmul.vx	v8, v8, a1
      92: 27 84 84 02  	vs1r.v	v8, (s1)
      96: 15 8f        	sub	a4, a4, a3
      98: e6 94        	add	s1, s1, s9
      9a: 01 e3        	bnez	a4, 0x9a <.LBB0_7+0x10>
      9c: 63 80 02 00  	beqz	t0, 0x9c <.LBB0_7+0x12>

00000000000000a0 <.LBB0_9>:
      a0: b3 06 64 00  	add	a3, s0, t1
      a4: 86 06        	slli	a3, a3, 1
      a6: b2 96        	add	a3, a3, a2
      a8: 33 07 88 40  	sub	a4, a6, s0

00000000000000ac <.LBB0_10>:
      ac: 83 94 06 00  	lh	s1, 0(a3)
      b0: bb 84 b4 02  	mulw	s1, s1, a1
      b4: 23 90 96 00  	sh	s1, 0(a3)
      b8: 7d 17        	addi	a4, a4, -1
      ba: 89 06        	addi	a3, a3, 2
      bc: 01 e3        	bnez	a4, 0xbc <.LBB0_10+0x10>

00000000000000be <.LBB0_11>:
      be: 63 80 08 00  	beqz	a7, 0xbe <.LBB0_11>
      c2: 01 49        	li	s2, 0
      c4: 81 4d        	li	s11, 0
      c6: 42 67        	ld	a4, 16(sp)
      c8: 82 66        	ld	a3, 0(sp)
      ca: b3 89 e6 02  	mul	s3, a3, a4
      ce: 33 0a 36 01  	add	s4, a2, s3
      d2: 82 7a        	ld	s5, 32(sp)
      d4: ce 9a        	add	s5, s5, s3
      d6: b2 9a        	add	s5, s5, a2
      d8: 13 8b 29 00  	addi	s6, s3, 2
      dc: a2 66        	ld	a3, 8(sp)
      de: b3 0b d7 02  	mul	s7, a4, a3
      e2: f6 83        	mv	t2, t4
      e4: 01 a0        	j	0xe4 <.LBB0_11+0x26>

00000000000000e6 <.LBB0_13>:
      e6: 85 0d        	addi	s11, s11, 1
      e8: fa 93        	add	t2, t2, t5
      ea: 46 99        	add	s2, s2, a7
      ec: 63 80 1d 01  	beq	s11, a7, 0xec <.LBB0_13+0x6>

00000000000000f0 <.LBB0_14>:
      f0: 63 00 08 00  	beqz	a6, 0xf0 <.LBB0_14>
      f4: 93 d6 1c 00  	srli	a3, s9, 1
      f8: a1 44        	li	s1, 8
      fa: 63 e0 d4 00  	bltu	s1, a3, 0xfa <.LBB0_14+0xa>
      fe: a1 46        	li	a3, 8

0000000000000100 <.LBB0_17>:
     100: b3 84 7d 01  	add	s1, s11, s7
     104: 93 92 14 00  	slli	t0, s1, 1
     108: f2 92        	add	t0, t0, t3
     10a: 63 60 d8 00  	bltu	a6, a3, 0x10a <.LBB0_17+0xa>
     10e: 93 94 1d 00  	slli	s1, s11, 1
     112: b3 86 99 00  	add	a3, s3, s1
     116: f2 96        	add	a3, a3, t3
     118: da 94        	add	s1, s1, s6
     11a: f2 94        	add	s1, s1, t3
     11c: 33 04 bf 03  	mul	s0, t5, s11
     120: b3 87 8e 00  	add	a5, t4, s0
     124: 02 77        	ld	a4, 32(sp)
     126: 3a 94        	add	s0, s0, a4
     128: 76 94        	add	s0, s0, t4
     12a: b3 34 9a 00  	sltu	s1, s4, s1
     12e: b3 b6 56 01  	sltu	a3, a3, s5
     132: e5 8e        	and	a3, a3, s1
     134: b3 34 8a 00  	sltu	s1, s4, s0
     138: b3 b7 57 01  	sltu	a5, a5, s5
     13c: e5 8f        	and	a5, a5, s1
     13e: dd 8e        	or	a3, a3, a5
     140: 81 c2        	beqz	a3, 0x140 <.LBB0_17+0x40>

0000000000000142 <.LBB0_19>:
     142: 01 4d        	li	s10, 0

0000000000000144 <.LBB0_20>:
     144: b3 06 a3 01  	add	a3, t1, s10
     148: 86 06        	slli	a3, a3, 1
     14a: b3 04 d6 00  	add	s1, a2, a3
     14e: b3 06 2d 01  	add	a3, s10, s2
     152: 86 06        	slli	a3, a3, 1
     154: 33 84 de 00  	add	s0, t4, a3
     158: b3 06 a8 41  	sub	a3, a6, s10

000000000000015c <.LBB0_21>:
     15c: 83 9f 02 00  	lh	t6, 0(t0)
     160: 03 1c 04 00  	lh	s8, 0(s0)
     164: 83 97 04 00  	lh	a5, 0(s1)
     168: 3b 87 af 02  	mulw	a4, t6, a0
     16c: 3b 07 87 03  	mulw	a4, a4, s8
     170: 3e 97        	add	a4, a4, a5
     172: 23 90 e4 00  	sh	a4, 0(s1)
     176: 89 04        	addi	s1, s1, 2
     178: fd 16        	addi	a3, a3, -1
     17a: 09 04        	addi	s0, s0, 2
     17c: 81 e2        	bnez	a3, 0x17c <.LBB0_21+0x20>
     17e: 01 a0        	j	0x17e <.LBB0_21+0x22>

0000000000000180 <.LBB0_22>:
     180: 93 d4 1c 00  	srli	s1, s9, 1
     184: 83 96 02 00  	lh	a3, 0(t0)
     188: 93 87 f4 ff  	addi	a5, s1, -1
     18c: b3 70 f8 00  	and	ra, a6, a5
     190: 33 0d 18 40  	sub	s10, a6, ra
     194: b3 86 a6 02  	mul	a3, a3, a0
     198: d7 77 80 0c  	vsetvli	a5, zero, e16, m1, ta, ma
     19c: 6a 84        	mv	s0, s10
     19e: e2 6f        	ld	t6, 24(sp)
     1a0: 1e 8c        	mv	s8, t2

00000000000001a2 <.LBB0_23>:
     1a2: 07 54 8c 02  	vl1re16.v	v8, (s8)
     1a6: 87 d4 8f 02  	vl1re16.v	v9, (t6)
     1aa: d7 e4 86 b6  	vmacc.vx	v9, a3, v8
     1ae: a7 84 8f 02  	vs1r.v	v9, (t6)
     1b2: 66 9c        	add	s8, s8, s9
     1b4: 05 8c        	sub	s0, s0, s1
     1b6: e6 9f        	add	t6, t6, s9
     1b8: 01 e0        	bnez	s0, 0x1b8 <.LBB0_23+0x16>
     1ba: 63 90 00 00  	bnez	ra, 0x1ba <.LBB0_23+0x18>
     1be: 01 a0        	j	0x1be <.LBB0_23+0x1c>

00000000000001c0 <.LBB0_25>:
     1c0: 73 26 20 c0  	rdinstret	a2
     1c4: 37 05 00 00  	lui	a0, 0
     1c8: 83 35 05 00  	ld	a1, 0(a0)
     1cc: b7 06 00 00  	lui	a3, 0
     1d0: 37 05 00 00  	lui	a0, 0
     1d4: 13 05 05 00  	mv	a0, a0
     1d8: 23 b0 c6 00  	sd	a2, 0(a3)
     1dc: aa 60        	ld	ra, 136(sp)
     1de: 0a 64        	ld	s0, 128(sp)
     1e0: e6 74        	ld	s1, 120(sp)
     1e2: 46 79        	ld	s2, 112(sp)
     1e4: a6 79        	ld	s3, 104(sp)
     1e6: 06 7a        	ld	s4, 96(sp)
     1e8: e6 6a        	ld	s5, 88(sp)
     1ea: 46 6b        	ld	s6, 80(sp)
     1ec: a6 6b        	ld	s7, 72(sp)
     1ee: 06 6c        	ld	s8, 64(sp)
     1f0: e2 7c        	ld	s9, 56(sp)
     1f2: 42 7d        	ld	s10, 48(sp)
     1f4: a2 7d        	ld	s11, 40(sp)
     1f6: 49 61        	addi	sp, sp, 144
     1f8: 17 03 00 00  	auipc	t1, 0
     1fc: 67 00 03 00  	jr	t1
