
kernel.o:	file format elf64-littleriscv

Disassembly of section .text:

0000000000000000 <.text>:
       0: 01 00        	nop

0000000000000002 <core>:
       2: 39 71        	addi	sp, sp, -64
       4: 22 fc        	sd	s0, 56(sp)
       6: 26 f8        	sd	s1, 48(sp)
       8: 4a f4        	sd	s2, 40(sp)
       a: 4e f0        	sd	s3, 32(sp)
       c: 52 ec        	sd	s4, 24(sp)
       e: 56 e8        	sd	s5, 16(sp)
      10: 5a e4        	sd	s6, 8(sp)
      12: 5e e0        	sd	s7, 0(sp)
      14: f3 24 20 c0  	rdinstret	s1
      18: b7 02 00 00  	lui	t0, 0
      1c: 23 b0 92 00  	sd	s1, 0(t0)
      20: 81 c3        	beqz	a5, 0x20 <core+0x1e>
      22: 01 43        	li	t1, 0
      24: 93 93 17 00  	slli	t2, a5, 1
      28: 13 9e 18 00  	slli	t3, a7, 1
      2c: 01 a0        	j	0x2c <core+0x2a>

000000000000002e <.LBB0_2>:
      2e: 05 03        	addi	t1, t1, 1
      30: 1e 96        	add	a2, a2, t2
      32: 63 00 f3 00  	beq	t1, a5, 0x32 <.LBB0_2+0x4>

0000000000000036 <.LBB0_3>:
      36: c2 8e        	mv	t4, a6
      38: 32 84        	mv	s0, a2
      3a: 63 00 08 00  	beqz	a6, 0x3a <.LBB0_3+0x4>

000000000000003e <.LBB0_4>:
      3e: 83 14 04 00  	lh	s1, 0(s0)
      42: bb 84 b4 02  	mulw	s1, s1, a1
      46: 23 10 94 00  	sh	s1, 0(s0)
      4a: fd 1e        	addi	t4, t4, -1
      4c: 09 04        	addi	s0, s0, 2
      4e: 63 90 0e 00  	bnez	t4, 0x4e <.LBB0_4+0x10>

0000000000000052 <.LBB0_5>:
      52: 63 80 08 00  	beqz	a7, 0x52 <.LBB0_5>
      56: 81 4e        	li	t4, 0
      58: 33 0f f3 02  	mul	t5, t1, a5
      5c: ba 8f        	mv	t6, a4
      5e: 01 a0        	j	0x5e <.LBB0_5+0xc>

0000000000000060 <.LBB0_7>:
      60: 85 0e        	addi	t4, t4, 1
      62: f2 9f        	add	t6, t6, t3
      64: 63 80 1e 01  	beq	t4, a7, 0x64 <.LBB0_7+0x4>

0000000000000068 <.LBB0_8>:
      68: 63 00 08 00  	beqz	a6, 0x68 <.LBB0_8>
      6c: 33 84 ee 01  	add	s0, t4, t5
      70: 06 04        	slli	s0, s0, 1
      72: 33 89 86 00  	add	s2, a3, s0
      76: c2 89        	mv	s3, a6
      78: fe 8b        	mv	s7, t6
      7a: b2 84        	mv	s1, a2

000000000000007c <.LBB0_10>:
      7c: 03 1a 09 00  	lh	s4, 0(s2)
      80: 83 9a 0b 00  	lh	s5, 0(s7)
      84: 03 9b 04 00  	lh	s6, 0(s1)
      88: 3b 04 aa 02  	mulw	s0, s4, a0
      8c: 3b 04 54 03  	mulw	s0, s0, s5
      90: 5a 94        	add	s0, s0, s6
      92: 23 90 84 00  	sh	s0, 0(s1)
      96: 89 04        	addi	s1, s1, 2
      98: fd 19        	addi	s3, s3, -1
      9a: 89 0b        	addi	s7, s7, 2
      9c: 63 90 09 00  	bnez	s3, 0x9c <.LBB0_10+0x20>
      a0: 01 a0        	j	0xa0 <.LBB0_10+0x24>

00000000000000a2 <.LBB0_11>:
      a2: 73 26 20 c0  	rdinstret	a2
      a6: 83 b5 02 00  	ld	a1, 0(t0)
      aa: b7 06 00 00  	lui	a3, 0
      ae: 37 05 00 00  	lui	a0, 0
      b2: 13 05 05 00  	mv	a0, a0
      b6: 23 b0 c6 00  	sd	a2, 0(a3)
      ba: 62 74        	ld	s0, 56(sp)
      bc: c2 74        	ld	s1, 48(sp)
      be: 22 79        	ld	s2, 40(sp)
      c0: 82 79        	ld	s3, 32(sp)
      c2: 62 6a        	ld	s4, 24(sp)
      c4: c2 6a        	ld	s5, 16(sp)
      c6: 22 6b        	ld	s6, 8(sp)
      c8: 82 6b        	ld	s7, 0(sp)
      ca: 21 61        	addi	sp, sp, 64
      cc: 17 03 00 00  	auipc	t1, 0
      d0: 67 00 03 00  	jr	t1
