
kernel.o:     file format elf64-littleriscv


Disassembly of section .text:

0000000000000000 <core>:
   0:	4305                	li	t1,1
   2:	c0202e73          	rdinstret	t3
   6:	4006108b          	ss.sta.st.h.v.1	u1,a2
   a:	82f0008b          	ss.app	u1,zero,a5,a6
   e:	3500008b          	ss.end	u1,zero,a6,t1
  12:	4006518b          	ss.sta.ld.h.v.1	u3,a2
  16:	82f0018b          	ss.app	u3,zero,a5,a6
  1a:	3500018b          	ss.end	u3,zero,a6,t1
  1e:	4006128b          	ss.sta.st.h.v.1	u5,a2
  22:	82f0028b          	ss.app	u5,zero,a5,a6
  26:	0310028b          	ss.app	u5,zero,a7,zero
  2a:	3500028b          	ss.end	u5,zero,a6,t1
  2e:	4006560b          	ss.sta.ld.h.v.1	u12,a2
  32:	82f0060b          	ss.app	u12,zero,a5,a6
  36:	0310060b          	ss.app	u12,zero,a7,zero
  3a:	3500060b          	ss.end	u12,zero,a6,t1
  3e:	4007558b          	ss.sta.ld.h.v.1	u11,a4
  42:	02f0058b          	ss.app	u11,zero,a5,zero
  46:	8510058b          	ss.end	u11,zero,a7,a6
  4a:	3300058b          	ss.app	u11,zero,a6,t1
  4e:	4006d48b          	ss.sta.ld.h.v.1	u9,a3
  52:	8af0048b          	ss.app	u9,zero,a5,a7
  56:	3310048b          	ss.app	u9,zero,a7,t1
  5a:	0500048b          	ss.end	u9,zero,a6,zero
  5e:	ac05922b          	so.v.dp.h	u4,a1,p0
  62:	ac05152b          	so.v.dp.h	u10,a0,p0

0000000000000066 <.SLOOP_114>:
  66:	1041a0ab          	so.a.mul.sg	u1,u3,u4,p0
  6a:	ffd08eab          	so.b.ndc.1	u1,66 <.SLOOP_114>

000000000000006e <.SLOOP_1_114>:
  6e:	10a4a42b          	so.a.mul.sg	u8,u9,u10,p0
  72:	10b423ab          	so.a.mul.sg	u7,u8,u11,p0
  76:	00c3a2ab          	so.a.add.sg	u5,u7,u12,p0
  7a:	ffd29aab          	so.b.ndc.2	u5,6e <.SLOOP_1_114>
  7e:	ffd0f4ab          	so.b.nc	u1,66 <.SLOOP_114>
  82:	c0202ef3          	rdinstret	t4
  86:	00000537          	lui	a0,0x0
  8a:	000006b7          	lui	a3,0x0
  8e:	00000737          	lui	a4,0x0
  92:	8676                	mv	a2,t4
  94:	85f2                	mv	a1,t3
  96:	00050513          	mv	a0,a0
  9a:	01c6b023          	sd	t3,0(a3) # 0 <core>
  9e:	01d73023          	sd	t4,0(a4) # 0 <core>
  a2:	00000317          	auipc	t1,0x0
  a6:	00030067          	jr	t1 # a2 <.SLOOP_1_114+0x34>
