
kernel.o:     file format elf64-littleriscv


Disassembly of section .text:

0000000000000000 <core>:
   0:	87ae                	mv	a5,a1
   2:	c02025f3          	rdinstret	a1
   6:	391c                	fld	fa5,48(a0)
   8:	3510                	fld	fa2,40(a0)
   a:	3d0c                	fld	fa1,56(a0)
   c:	2d34                	fld	fa3,88(a0)
   e:	02c7f653          	fadd.d	fa2,fa5,fa2
  12:	2518                	fld	fa4,8(a0)
  14:	00000737          	lui	a4,0x0
  18:	00073787          	fld	fa5,0(a4) # 0 <core>
  1c:	00000737          	lui	a4,0x0
  20:	00b73023          	sd	a1,0(a4) # 0 <core>
  24:	02b67653          	fadd.d	fa2,fa2,fa1
  28:	02d67653          	fadd.d	fa2,fa2,fa3
  2c:	02e67653          	fadd.d	fa2,fa2,fa4
  30:	12f67653          	fmul.d	fa2,fa2,fa5
  34:	bb90                	fsd	fa2,48(a5)
  36:	390c                	fld	fa1,48(a0)
  38:	3d18                	fld	fa4,56(a0)
  3a:	2134                	fld	fa3,64(a0)
  3c:	3128                	fld	fa0,96(a0)
  3e:	02b77753          	fadd.d	fa4,fa4,fa1
  42:	290c                	fld	fa1,16(a0)
  44:	02d776d3          	fadd.d	fa3,fa4,fa3
  48:	02a6f6d3          	fadd.d	fa3,fa3,fa0
  4c:	02b6f6d3          	fadd.d	fa3,fa3,fa1
  50:	12f6f6d3          	fmul.d	fa3,fa3,fa5
  54:	bf94                	fsd	fa3,56(a5)
  56:	3d0c                	fld	fa1,56(a0)
  58:	2138                	fld	fa4,64(a0)
  5a:	04853007          	fld	ft0,72(a0)
  5e:	3528                	fld	fa0,104(a0)
  60:	02b77753          	fadd.d	fa4,fa4,fa1
  64:	2d0c                	fld	fa1,24(a0)
  66:	02077753          	fadd.d	fa4,fa4,ft0
  6a:	02a77753          	fadd.d	fa4,fa4,fa0
  6e:	02b77753          	fadd.d	fa4,fa4,fa1
  72:	12f77753          	fmul.d	fa4,fa4,fa5
  76:	a3b8                	fsd	fa4,64(a5)
  78:	292c                	fld	fa1,80(a0)
  7a:	2d38                	fld	fa4,88(a0)
  7c:	06053007          	fld	ft0,96(a0)
  80:	2148                	fld	fa0,128(a0)
  82:	02b77753          	fadd.d	fa4,fa4,fa1
  86:	390c                	fld	fa1,48(a0)
  88:	02077753          	fadd.d	fa4,fa4,ft0
  8c:	02a77753          	fadd.d	fa4,fa4,fa0
  90:	02b77753          	fadd.d	fa4,fa4,fa1
  94:	12f77753          	fmul.d	fa4,fa4,fa5
  98:	afb8                	fsd	fa4,88(a5)
  9a:	2d28                	fld	fa0,88(a0)
  9c:	312c                	fld	fa1,96(a0)
  9e:	06853087          	fld	ft1,104(a0)
  a2:	08853007          	fld	ft0,136(a0)
  a6:	02a5f5d3          	fadd.d	fa1,fa1,fa0
  aa:	3d08                	fld	fa0,56(a0)
  ac:	0215f5d3          	fadd.d	fa1,fa1,ft1
  b0:	0205f5d3          	fadd.d	fa1,fa1,ft0
  b4:	02a5f5d3          	fadd.d	fa1,fa1,fa0
  b8:	12f5f5d3          	fmul.d	fa1,fa1,fa5
  bc:	b3ac                	fsd	fa1,96(a5)
  be:	352c                	fld	fa1,104(a0)
  c0:	3128                	fld	fa0,96(a0)
  c2:	07053187          	fld	ft3,112(a0)
  c6:	09053107          	fld	ft2,144(a0)
  ca:	02a5f5d3          	fadd.d	fa1,fa1,fa0
  ce:	3788                	fld	fa0,40(a5)
  d0:	04053087          	fld	ft1,64(a0)
  d4:	0087b007          	fld	ft0,8(a5)
  d8:	02c57653          	fadd.d	fa2,fa0,fa2
  dc:	0235f5d3          	fadd.d	fa1,fa1,ft3
  e0:	02d676d3          	fadd.d	fa3,fa2,fa3
  e4:	0225f5d3          	fadd.d	fa1,fa1,ft2
  e8:	02e6f753          	fadd.d	fa4,fa3,fa4
  ec:	0215f6d3          	fadd.d	fa3,fa1,ft1
  f0:	02077753          	fadd.d	fa4,fa4,ft0
  f4:	12f6f6d3          	fmul.d	fa3,fa3,fa5
  f8:	12f77753          	fmul.d	fa4,fa4,fa5
  fc:	b7b4                	fsd	fa3,104(a5)
  fe:	3d30                	fld	fa2,120(a0)
 100:	2154                	fld	fa3,128(a0)
 102:	2548                	fld	fa0,136(a0)
 104:	354c                	fld	fa1,168(a0)
 106:	02c6f6d3          	fadd.d	fa3,fa3,fa2
 10a:	2d30                	fld	fa2,88(a0)
 10c:	02a6f6d3          	fadd.d	fa3,fa3,fa0
 110:	02b6f6d3          	fadd.d	fa3,fa3,fa1
 114:	02c6f6d3          	fadd.d	fa3,fa3,fa2
 118:	12f6f6d3          	fmul.d	fa3,fa3,fa5
 11c:	a3d4                	fsd	fa3,128(a5)
 11e:	2150                	fld	fa2,128(a0)
 120:	2554                	fld	fa3,136(a0)
 122:	2948                	fld	fa0,144(a0)
 124:	394c                	fld	fa1,176(a0)
 126:	02c6f6d3          	fadd.d	fa3,fa3,fa2
 12a:	3130                	fld	fa2,96(a0)
 12c:	02a6f6d3          	fadd.d	fa3,fa3,fa0
 130:	02b6f6d3          	fadd.d	fa3,fa3,fa1
 134:	02c6f6d3          	fadd.d	fa3,fa3,fa2
 138:	12f6f6d3          	fmul.d	fa3,fa3,fa5
 13c:	a7d4                	fsd	fa3,136(a5)
 13e:	2550                	fld	fa2,136(a0)
 140:	2954                	fld	fa3,144(a0)
 142:	2d48                	fld	fa0,152(a0)
 144:	3d4c                	fld	fa1,184(a0)
 146:	02c6f6d3          	fadd.d	fa3,fa3,fa2
 14a:	3530                	fld	fa2,104(a0)
 14c:	02a6f6d3          	fadd.d	fa3,fa3,fa0
 150:	02b6f6d3          	fadd.d	fa3,fa3,fa1
 154:	02c6f6d3          	fadd.d	fa3,fa3,fa2
 158:	12f6f6d3          	fmul.d	fa3,fa3,fa5
 15c:	abd4                	fsd	fa3,144(a5)
 15e:	b918                	fsd	fa4,48(a0)
 160:	3f94                	fld	fa3,56(a5)
 162:	3b98                	fld	fa4,48(a5)
 164:	23ac                	fld	fa1,64(a5)
 166:	33b0                	fld	fa2,96(a5)
 168:	02d77753          	fadd.d	fa4,fa4,fa3
 16c:	2b94                	fld	fa3,16(a5)
 16e:	02b77753          	fadd.d	fa4,fa4,fa1
 172:	02c77753          	fadd.d	fa4,fa4,fa2
 176:	02d77753          	fadd.d	fa4,fa4,fa3
 17a:	12f77753          	fmul.d	fa4,fa4,fa5
 17e:	bd18                	fsd	fa4,56(a0)
 180:	23b4                	fld	fa3,64(a5)
 182:	3f98                	fld	fa4,56(a5)
 184:	27ac                	fld	fa1,72(a5)
 186:	37b0                	fld	fa2,104(a5)
 188:	02d77753          	fadd.d	fa4,fa4,fa3
 18c:	2f94                	fld	fa3,24(a5)
 18e:	02b77753          	fadd.d	fa4,fa4,fa1
 192:	02c77753          	fadd.d	fa4,fa4,fa2
 196:	02d77753          	fadd.d	fa4,fa4,fa3
 19a:	12f77753          	fmul.d	fa4,fa4,fa5
 19e:	a138                	fsd	fa4,64(a0)
 1a0:	2fb4                	fld	fa3,88(a5)
 1a2:	2bb8                	fld	fa4,80(a5)
 1a4:	33ac                	fld	fa1,96(a5)
 1a6:	23d0                	fld	fa2,128(a5)
 1a8:	02d77753          	fadd.d	fa4,fa4,fa3
 1ac:	3b94                	fld	fa3,48(a5)
 1ae:	02b77753          	fadd.d	fa4,fa4,fa1
 1b2:	02c77753          	fadd.d	fa4,fa4,fa2
 1b6:	02d77753          	fadd.d	fa4,fa4,fa3
 1ba:	12f77753          	fmul.d	fa4,fa4,fa5
 1be:	ad38                	fsd	fa4,88(a0)
 1c0:	33b4                	fld	fa3,96(a5)
 1c2:	2fb8                	fld	fa4,88(a5)
 1c4:	37ac                	fld	fa1,104(a5)
 1c6:	27d0                	fld	fa2,136(a5)
 1c8:	02d77753          	fadd.d	fa4,fa4,fa3
 1cc:	3f94                	fld	fa3,56(a5)
 1ce:	02b77753          	fadd.d	fa4,fa4,fa1
 1d2:	02c77753          	fadd.d	fa4,fa4,fa2
 1d6:	02d77753          	fadd.d	fa4,fa4,fa3
 1da:	12f77753          	fmul.d	fa4,fa4,fa5
 1de:	b138                	fsd	fa4,96(a0)
 1e0:	33b4                	fld	fa3,96(a5)
 1e2:	37b8                	fld	fa4,104(a5)
 1e4:	3bac                	fld	fa1,112(a5)
 1e6:	2bd0                	fld	fa2,144(a5)
 1e8:	02d77753          	fadd.d	fa4,fa4,fa3
 1ec:	23b4                	fld	fa3,64(a5)
 1ee:	02b77753          	fadd.d	fa4,fa4,fa1
 1f2:	02c77753          	fadd.d	fa4,fa4,fa2
 1f6:	02d77753          	fadd.d	fa4,fa4,fa3
 1fa:	12f77753          	fmul.d	fa4,fa4,fa5
 1fe:	b538                	fsd	fa4,104(a0)
 200:	3fb4                	fld	fa3,120(a5)
 202:	23d8                	fld	fa4,128(a5)
 204:	27cc                	fld	fa1,136(a5)
 206:	37d0                	fld	fa2,168(a5)
 208:	02d77753          	fadd.d	fa4,fa4,fa3
 20c:	2fb4                	fld	fa3,88(a5)
 20e:	02b77753          	fadd.d	fa4,fa4,fa1
 212:	02c77753          	fadd.d	fa4,fa4,fa2
 216:	02d77753          	fadd.d	fa4,fa4,fa3
 21a:	12f77753          	fmul.d	fa4,fa4,fa5
 21e:	a158                	fsd	fa4,128(a0)
 220:	23d4                	fld	fa3,128(a5)
 222:	27d8                	fld	fa4,136(a5)
 224:	2bcc                	fld	fa1,144(a5)
 226:	3bd0                	fld	fa2,176(a5)
 228:	02d77753          	fadd.d	fa4,fa4,fa3
 22c:	33b4                	fld	fa3,96(a5)
 22e:	02b77753          	fadd.d	fa4,fa4,fa1
 232:	02c77753          	fadd.d	fa4,fa4,fa2
 236:	02d77753          	fadd.d	fa4,fa4,fa3
 23a:	12f77753          	fmul.d	fa4,fa4,fa5
 23e:	a558                	fsd	fa4,136(a0)
 240:	27d4                	fld	fa3,136(a5)
 242:	2bd8                	fld	fa4,144(a5)
 244:	2fcc                	fld	fa1,152(a5)
 246:	3fd0                	fld	fa2,184(a5)
 248:	02d77753          	fadd.d	fa4,fa4,fa3
 24c:	37b4                	fld	fa3,104(a5)
 24e:	02b77753          	fadd.d	fa4,fa4,fa1
 252:	02c77753          	fadd.d	fa4,fa4,fa2
 256:	02d77753          	fadd.d	fa4,fa4,fa3
 25a:	12f777d3          	fmul.d	fa5,fa4,fa5
 25e:	a95c                	fsd	fa5,144(a0)
 260:	c02027f3          	rdinstret	a5
 264:	00000537          	lui	a0,0x0
 268:	00000737          	lui	a4,0x0
 26c:	863e                	mv	a2,a5
 26e:	00050513          	mv	a0,a0
 272:	00f73023          	sd	a5,0(a4) # 0 <core>
 276:	00000317          	auipc	t1,0x0
 27a:	00030067          	jr	t1 # 276 <core+0x276>
