
kernel.o:	file format elf64-littleriscv

Disassembly of section .text:

0000000000000000 <.text>:
       0: 01 00        	nop

0000000000000002 <core_kernel>:
       2: 75 71        	addi	sp, sp, -144
       4: 06 e5        	sd	ra, 136(sp)
       6: 22 e1        	sd	s0, 128(sp)
       8: a6 fc        	sd	s1, 120(sp)
       a: ca f8        	sd	s2, 112(sp)
       c: ce f4        	sd	s3, 104(sp)
       e: d2 f0        	sd	s4, 96(sp)
      10: d6 ec        	sd	s5, 88(sp)
      12: da e8        	sd	s6, 80(sp)
      14: de e4        	sd	s7, 72(sp)
      16: e2 e0        	sd	s8, 64(sp)
      18: 66 fc        	sd	s9, 56(sp)
      1a: 6a f8        	sd	s10, 48(sp)
      1c: 6e f4        	sd	s11, 40(sp)
      1e: 2e 89        	mv	s2, a1
      20: f3 25 20 c0  	rdinstret	a1
      24: 2e e4        	sd	a1, 8(sp)
      26: 36 e8        	sd	a3, 16(sp)
      28: 63 80 06 00  	beqz	a3, 0x28 <core_kernel+0x26>
      2c: 81 48        	li	a7, 0
      2e: 02 ec        	sd	zero, 24(sp)
      30: 13 13 27 00  	slli	t1, a4, 2
      34: 13 9e 27 00  	slli	t3, a5, 2
      38: 93 15 47 00  	slli	a1, a4, 4
      3c: 2e f0        	sd	a1, 32(sp)
      3e: 53 00 00 f0  	fmv.w.x	ft0, zero
      42: d7 75 00 0d  	vsetvli	a1, zero, e32, m1, ta, ma
      46: 57 34 00 5e  	vmv.v.i	v8, 0
      4a: d7 64 00 42  	vmv.s.x	v9, zero
      4e: aa 83        	mv	t2, a0
      50: f3 20 20 c2  	csrr	ra, vlenb
      54: 01 a0        	j	0x54 <core_kernel+0x52>

0000000000000056 <.LBB0_2>:
      56: e2 66        	ld	a3, 24(sp)
      58: 85 06        	addi	a3, a3, 1
      5a: f2 93        	add	t2, t2, t3
      5c: be 98        	add	a7, a7, a5
      5e: c2 65        	ld	a1, 16(sp)
      60: 36 ec        	sd	a3, 24(sp)
      62: 63 80 b6 00  	beq	a3, a1, 0x62 <.LBB0_2+0xc>

0000000000000066 <.LBB0_3>:
      66: 01 c3        	beqz	a4, 0x66 <.LBB0_3>
      68: 01 4f        	li	t5, 0
      6a: e2 66        	ld	a3, 24(sp)
      6c: b3 02 d3 02  	mul	t0, t1, a3
      70: 93 8c 42 00  	addi	s9, t0, 4
      74: b3 05 de 02  	mul	a1, t3, a3
      78: b3 09 b5 00  	add	s3, a0, a1
      7c: f2 95        	add	a1, a1, t3
      7e: 33 0a b5 00  	add	s4, a0, a1
      82: b3 8a e6 02  	mul	s5, a3, a4
      86: 4a 88        	mv	a6, s2
      88: 01 a0        	j	0x88 <.LBB0_3+0x22>

000000000000008a <.LBB0_5>:
      8a: 05 0f        	addi	t5, t5, 1
      8c: 11 08        	addi	a6, a6, 4
      8e: 63 00 ef 00  	beq	t5, a4, 0x8e <.LBB0_5+0x4>

0000000000000092 <.LBB0_6>:
      92: b3 05 5f 01  	add	a1, t5, s5
      96: 8a 05        	slli	a1, a1, 2
      98: b3 04 b6 00  	add	s1, a2, a1
      9c: 23 a0 04 00  	sw	zero, 0(s1)
      a0: 81 c3        	beqz	a5, 0xa0 <.LBB0_6+0xe>
      a2: 93 d5 10 00  	srli	a1, ra, 1
      a6: a1 46        	li	a3, 8
      a8: 63 e0 b6 00  	bltu	a3, a1, 0xa8 <.LBB0_6+0x16>
      ac: a1 45        	li	a1, 8

00000000000000ae <.LBB0_9>:
      ae: 93 06 f7 ff  	addi	a3, a4, -1
      b2: b3 36 d0 00  	snez	a3, a3
      b6: b3 b5 b7 00  	sltu	a1, a5, a1
      ba: d5 8d        	or	a1, a1, a3
      bc: 81 e1        	bnez	a1, 0xbc <.LBB0_9+0xe>
      be: 13 14 2f 00  	slli	s0, t5, 2
      c2: b3 86 82 00  	add	a3, t0, s0
      c6: b2 96        	add	a3, a3, a2
      c8: b3 85 8c 00  	add	a1, s9, s0
      cc: b2 95        	add	a1, a1, a2
      ce: b3 0e 89 00  	add	t4, s2, s0
      d2: 72 94        	add	s0, s0, t3
      d4: 33 0b 89 00  	add	s6, s2, s0
      d8: b3 bb 46 01  	sltu	s7, a3, s4
      dc: 33 b4 b9 00  	sltu	s0, s3, a1
      e0: 33 f4 8b 00  	and	s0, s7, s0
      e4: b3 b6 66 01  	sltu	a3, a3, s6
      e8: b3 b5 be 00  	sltu	a1, t4, a1
      ec: f5 8d        	and	a1, a1, a3
      ee: c1 8d        	or	a1, a1, s0
      f0: 81 c1        	beqz	a1, 0xf0 <.LBB0_9+0x42>

00000000000000f2 <.LBB0_11>:
      f2: 81 4b        	li	s7, 0
      f4: d3 00 00 20  	fmv.s	ft1, ft0

00000000000000f8 <.LBB0_12>:
      f8: b3 05 77 03  	mul	a1, a4, s7
      fc: fa 95        	add	a1, a1, t5
      fe: 8a 05        	slli	a1, a1, 2
     100: 33 04 b9 00  	add	s0, s2, a1
     104: b3 85 78 01  	add	a1, a7, s7
     108: 8a 05        	slli	a1, a1, 2
     10a: b3 06 b5 00  	add	a3, a0, a1
     10e: b3 85 77 41  	sub	a1, a5, s7

0000000000000112 <.LBB0_13>:
     112: 07 a1 06 00  	flw	ft2, 0(a3)
     116: 87 21 04 00  	flw	ft3, 0(s0)
     11a: c3 f0 21 08  	fmadd.s	ft1, ft3, ft2, ft1
     11e: 27 a0 14 00  	fsw	ft1, 0(s1)
     122: 1a 94        	add	s0, s0, t1
     124: fd 15        	addi	a1, a1, -1
     126: 91 06        	addi	a3, a3, 4
     128: 81 e1        	bnez	a1, 0x128 <.LBB0_13+0x16>
     12a: 01 a0        	j	0x12a <.LBB0_13+0x18>

000000000000012c <.LBB0_14>:
     12c: f2 8f        	mv	t6, t3
     12e: 52 8e        	mv	t3, s4
     130: 4e 8a        	mv	s4, s3
     132: e6 89        	mv	s3, s9
     134: 93 d5 30 00  	srli	a1, ra, 3
     138: 93 dc 10 00  	srli	s9, ra, 1
     13c: 93 86 fc ff  	addi	a3, s9, -1
     140: 33 fc d7 00  	and	s8, a5, a3
     144: b3 8b 87 41  	sub	s7, a5, s8
     148: 13 9d 10 00  	slli	s10, ra, 1
     14c: 82 76        	ld	a3, 32(sp)
     14e: b3 8d b6 02  	mul	s11, a3, a1
     152: d7 75 00 0d  	vsetvli	a1, zero, e32, m1, ta, ma
     156: 5e 84        	mv	s0, s7
     158: 42 8b        	mv	s6, a6
     15a: 9e 8e        	mv	t4, t2
     15c: 57 35 80 9e  	vmv1r.v	v10, v8
     160: d7 35 80 9e  	vmv1r.v	v11, v8

0000000000000164 <.LBB0_15>:
     164: 07 e6 8e 02  	vl1re32.v	v12, (t4)
     168: b3 85 1e 00  	add	a1, t4, ra
     16c: 87 e6 85 02  	vl1re32.v	v13, (a1)
     170: 07 67 8b 02  	vl1re32.v	v14, (s6)
     174: b3 05 1b 00  	add	a1, s6, ra
     178: 87 e7 85 02  	vl1re32.v	v15, (a1)
     17c: 57 15 c7 b2  	vfmacc.vv	v10, v14, v12
     180: d7 95 d7 b2  	vfmacc.vv	v11, v15, v13
     184: ea 9e        	add	t4, t4, s10
     186: 33 04 94 41  	sub	s0, s0, s9
     18a: 6e 9b        	add	s6, s6, s11
     18c: 01 e0        	bnez	s0, 0x18c <.LBB0_15+0x28>
     18e: 57 15 b5 02  	vfadd.vv	v10, v11, v10
     192: 57 95 a4 06  	vfredusum.vs	v10, v10, v9
     196: 57 f0 00 cd  	vsetivli	zero, 1, e32, m1, ta, ma
     19a: 27 e5 04 02  	vse32.v	v10, (s1)
     19e: ce 8c        	mv	s9, s3
     1a0: d2 89        	mv	s3, s4
     1a2: 72 8a        	mv	s4, t3
     1a4: 7e 8e        	mv	t3, t6
     1a6: 63 00 0c 00  	beqz	s8, 0x1a6 <.LBB0_15+0x42>
     1aa: d7 10 a0 42  	vfmv.f.s	ft1, v10
     1ae: 01 a0        	j	0x1ae <.LBB0_15+0x4a>

00000000000001b0 <.LBB0_18>:
     1b0: 73 25 20 c0  	rdinstret	a0
     1b4: a2 65        	ld	a1, 8(sp)
     1b6: 0d 8d        	sub	a0, a0, a1
     1b8: aa 60        	ld	ra, 136(sp)
     1ba: 0a 64        	ld	s0, 128(sp)
     1bc: e6 74        	ld	s1, 120(sp)
     1be: 46 79        	ld	s2, 112(sp)
     1c0: a6 79        	ld	s3, 104(sp)
     1c2: 06 7a        	ld	s4, 96(sp)
     1c4: e6 6a        	ld	s5, 88(sp)
     1c6: 46 6b        	ld	s6, 80(sp)
     1c8: a6 6b        	ld	s7, 72(sp)
     1ca: 06 6c        	ld	s8, 64(sp)
     1cc: e2 7c        	ld	s9, 56(sp)
     1ce: 42 7d        	ld	s10, 48(sp)
     1d0: a2 7d        	ld	s11, 40(sp)
     1d2: 49 61        	addi	sp, sp, 144
     1d4: 82 80        	ret

00000000000001d6 <core>:
     1d6: 55 71        	addi	sp, sp, -208
     1d8: 86 e5        	sd	ra, 200(sp)
     1da: a2 e1        	sd	s0, 192(sp)
     1dc: 26 fd        	sd	s1, 184(sp)
     1de: 4a f9        	sd	s2, 176(sp)
     1e0: 4e f5        	sd	s3, 168(sp)
     1e2: 52 f1        	sd	s4, 160(sp)
     1e4: 56 ed        	sd	s5, 152(sp)
     1e6: 5a e9        	sd	s6, 144(sp)
     1e8: 5e e5        	sd	s7, 136(sp)
     1ea: 62 e1        	sd	s8, 128(sp)
     1ec: e6 fc        	sd	s9, 120(sp)
     1ee: ea f8        	sd	s10, 112(sp)
     1f0: ee f4        	sd	s11, 104(sp)
     1f2: 42 fc        	sd	a6, 56(sp)
     1f4: 3e 8b        	mv	s6, a5
     1f6: 36 88        	mv	a6, a3
     1f8: 32 f8        	sd	a2, 48(sp)
     1fa: ae 8f        	mv	t6, a1
     1fc: 2e 7f        	ld	t5, 232(sp)
     1fe: 4e 63        	ld	t1, 208(sp)
     200: 8e 73        	ld	t2, 224(sp)
     202: f3 25 20 c0  	rdinstret	a1
     206: 2e e8        	sd	a1, 16(sp)
     208: 73 2c 20 c2  	csrr	s8, vlenb
     20c: 93 1e 23 00  	slli	t4, t1, 2
     210: 46 ec        	sd	a7, 24(sp)
     212: ba f0        	sd	a4, 96(sp)
     214: 63 80 08 00  	beqz	a7, 0x214 <core+0x3e>
     218: ee 6d        	ld	s11, 216(sp)
     21a: 01 4a        	li	s4, 0
     21c: 02 f0        	sd	zero, 32(sp)
     21e: d7 75 00 0d  	vsetvli	a1, zero, e32, m1, ta, ma
     222: 57 34 00 5e  	vmv.v.i	v8, 0
     226: 93 96 2d 00  	slli	a3, s11, 2
     22a: 93 15 43 00  	slli	a1, t1, 4
     22e: 2e f4        	sd	a1, 40(sp)
     230: 53 00 00 f0  	fmv.w.x	ft0, zero
     234: d7 64 00 42  	vmv.s.x	v9, zero
     238: aa ec        	sd	a0, 88(sp)
     23a: 01 a0        	j	0x23a <core+0x64>

000000000000023c <.LBB1_2>:
     23c: 02 76        	ld	a2, 32(sp)
     23e: 05 06        	addi	a2, a2, 1
     240: e6 65        	ld	a1, 88(sp)
     242: b6 95        	add	a1, a1, a3
     244: ae ec        	sd	a1, 88(sp)
     246: 6e 9a        	add	s4, s4, s11
     248: e2 65        	ld	a1, 24(sp)
     24a: 32 f0        	sd	a2, 32(sp)
     24c: 63 00 b6 00  	beq	a2, a1, 0x24c <.LBB1_2+0x10>

0000000000000250 <.LBB1_3>:
     250: 63 00 03 00  	beqz	t1, 0x250 <.LBB1_3>
     254: 01 44        	li	s0, 0
     256: 02 76        	ld	a2, 32(sp)
     258: 33 89 ce 02  	mul	s2, t4, a2
     25c: 93 02 49 00  	addi	t0, s2, 4
     260: b3 85 c6 02  	mul	a1, a3, a2
     264: b3 0a b5 00  	add	s5, a0, a1
     268: b6 95        	add	a1, a1, a3
     26a: b3 00 b5 00  	add	ra, a0, a1
     26e: 33 0d 66 02  	mul	s10, a2, t1
     272: fe 8c        	mv	s9, t6
     274: d2 e8        	sd	s4, 80(sp)
     276: d6 e4        	sd	s5, 72(sp)
     278: 86 e0        	sd	ra, 64(sp)
     27a: 01 a0        	j	0x27a <.LBB1_3+0x2a>

000000000000027c <.LBB1_5>:
     27c: 05 04        	addi	s0, s0, 1
     27e: 91 0c        	addi	s9, s9, 4
     280: 63 00 64 00  	beq	s0, t1, 0x280 <.LBB1_5+0x4>

0000000000000284 <.LBB1_6>:
     284: b3 05 a4 01  	add	a1, s0, s10
     288: 8a 05        	slli	a1, a1, 2
     28a: ba 95        	add	a1, a1, a4
     28c: 23 a0 05 00  	sw	zero, 0(a1)
     290: 63 80 0d 00  	beqz	s11, 0x290 <.LBB1_6+0xc>
     294: 13 56 1c 00  	srli	a2, s8, 1
     298: a1 47        	li	a5, 8
     29a: 63 e0 c7 00  	bltu	a5, a2, 0x29a <.LBB1_6+0x16>
     29e: 21 46        	li	a2, 8

00000000000002a0 <.LBB1_9>:
     2a0: 93 07 f3 ff  	addi	a5, t1, -1
     2a4: b3 37 f0 00  	snez	a5, a5
     2a8: 33 b6 cd 00  	sltu	a2, s11, a2
     2ac: 5d 8e        	or	a2, a2, a5
     2ae: 01 e2        	bnez	a2, 0x2ae <.LBB1_9+0xe>
     2b0: 93 14 24 00  	slli	s1, s0, 2
     2b4: b3 07 99 00  	add	a5, s2, s1
     2b8: ba 97        	add	a5, a5, a4
     2ba: 33 86 92 00  	add	a2, t0, s1
     2be: 3a 96        	add	a2, a2, a4
     2c0: b3 88 9f 00  	add	a7, t6, s1
     2c4: b6 94        	add	s1, s1, a3
     2c6: 33 8e 9f 00  	add	t3, t6, s1
     2ca: b3 b9 17 00  	sltu	s3, a5, ra
     2ce: b3 b4 ca 00  	sltu	s1, s5, a2
     2d2: b3 f4 99 00  	and	s1, s3, s1
     2d6: b3 b7 c7 01  	sltu	a5, a5, t3
     2da: 33 b6 c8 00  	sltu	a2, a7, a2
     2de: 7d 8e        	and	a2, a2, a5
     2e0: 45 8e        	or	a2, a2, s1
     2e2: 01 c2        	beqz	a2, 0x2e2 <.LBB1_9+0x42>

00000000000002e4 <.LBB1_11>:
     2e4: 81 4b        	li	s7, 0
     2e6: d3 00 00 20  	fmv.s	ft1, ft0

00000000000002ea <.LBB1_12>:
     2ea: 33 86 7d 41  	sub	a2, s11, s7
     2ee: b3 07 73 03  	mul	a5, t1, s7
     2f2: a2 97        	add	a5, a5, s0
     2f4: 8a 07        	slli	a5, a5, 2
     2f6: fe 97        	add	a5, a5, t6
     2f8: d2 9b        	add	s7, s7, s4
     2fa: 93 94 2b 00  	slli	s1, s7, 2
     2fe: aa 94        	add	s1, s1, a0

0000000000000300 <.LBB1_13>:
     300: 07 a1 04 00  	flw	ft2, 0(s1)
     304: 87 a1 07 00  	flw	ft3, 0(a5)
     308: c3 f0 21 08  	fmadd.s	ft1, ft3, ft2, ft1
     30c: 27 a0 15 00  	fsw	ft1, 0(a1)
     310: 7d 16        	addi	a2, a2, -1
     312: f6 97        	add	a5, a5, t4
     314: 91 04        	addi	s1, s1, 4
     316: 01 e2        	bnez	a2, 0x316 <.LBB1_13+0x16>
     318: 01 a0        	j	0x318 <.LBB1_13+0x18>

000000000000031a <.LBB1_14>:
     31a: c2 8a        	mv	s5, a6
     31c: 16 88        	mv	a6, t0
     31e: ca 82        	mv	t0, s2
     320: 13 56 3c 00  	srli	a2, s8, 3
     324: 93 58 1c 00  	srli	a7, s8, 1
     328: 93 87 f8 ff  	addi	a5, a7, -1
     32c: b3 f9 fd 00  	and	s3, s11, a5
     330: b3 8b 3d 41  	sub	s7, s11, s3
     334: 13 1e 1c 00  	slli	t3, s8, 1
     338: a2 77        	ld	a5, 40(sp)
     33a: 33 86 c7 02  	mul	a2, a5, a2
     33e: d7 77 00 0d  	vsetvli	a5, zero, e32, m1, ta, ma
     342: de 87        	mv	a5, s7
     344: 66 89        	mv	s2, s9
     346: e6 60        	ld	ra, 88(sp)
     348: 57 35 80 9e  	vmv1r.v	v10, v8
     34c: d7 35 80 9e  	vmv1r.v	v11, v8

0000000000000350 <.LBB1_15>:
     350: 07 e6 80 02  	vl1re32.v	v12, (ra)
     354: 33 8a 80 01  	add	s4, ra, s8
     358: 87 66 8a 02  	vl1re32.v	v13, (s4)
     35c: 07 67 89 02  	vl1re32.v	v14, (s2)
     360: b3 04 89 01  	add	s1, s2, s8
     364: 87 e7 84 02  	vl1re32.v	v15, (s1)
     368: 57 15 c7 b2  	vfmacc.vv	v10, v14, v12
     36c: d7 95 d7 b2  	vfmacc.vv	v11, v15, v13
     370: f2 90        	add	ra, ra, t3
     372: b3 87 17 41  	sub	a5, a5, a7
     376: 32 99        	add	s2, s2, a2
     378: 81 e3        	bnez	a5, 0x378 <.LBB1_15+0x28>
     37a: 57 15 b5 02  	vfadd.vv	v10, v11, v10
     37e: 57 95 a4 06  	vfredusum.vs	v10, v10, v9
     382: 57 f0 00 cd  	vsetivli	zero, 1, e32, m1, ta, ma
     386: 27 e5 05 02  	vse32.v	v10, (a1)
     38a: 16 89        	mv	s2, t0
     38c: c2 82        	mv	t0, a6
     38e: 56 88        	mv	a6, s5
     390: 06 77        	ld	a4, 96(sp)
     392: 46 6a        	ld	s4, 80(sp)
     394: a6 6a        	ld	s5, 72(sp)
     396: 86 60        	ld	ra, 64(sp)
     398: 63 80 09 00  	beqz	s3, 0x398 <.LBB1_15+0x48>
     39c: d7 10 a0 42  	vfmv.f.s	ft1, v10
     3a0: 01 a0        	j	0x3a0 <.LBB1_15+0x50>

00000000000003a2 <.LBB1_18>:
     3a2: 73 25 20 c0  	rdinstret	a0
     3a6: 2a e4        	sd	a0, 8(sp)
     3a8: 73 25 20 c0  	rdinstret	a0
     3ac: 2a e0        	sd	a0, 0(sp)
     3ae: 13 95 23 00  	slli	a0, t2, 2
     3b2: 93 95 43 00  	slli	a1, t2, 4
     3b6: ae ec        	sd	a1, 88(sp)
     3b8: 93 85 f3 ff  	addi	a1, t2, -1
     3bc: 2e f0        	sd	a1, 32(sp)
     3be: c2 72        	ld	t0, 48(sp)
     3c0: 63 00 03 00  	beqz	t1, 0x3c0 <.LBB1_18+0x1e>
     3c4: 81 48        	li	a7, 0
     3c6: 02 f4        	sd	zero, 40(sp)
     3c8: 93 1a 2f 00  	slli	s5, t5, 2
     3cc: 82 75        	ld	a1, 32(sp)
     3ce: b3 3d b0 00  	snez	s11, a1
     3d2: 53 00 00 f0  	fmv.w.x	ft0, zero
     3d6: d7 75 00 0d  	vsetvli	a1, zero, e32, m1, ta, ma
     3da: 57 34 00 5e  	vmv.v.i	v8, 0
     3de: d7 64 00 42  	vmv.s.x	v9, zero
     3e2: 96 e8        	sd	t0, 80(sp)
     3e4: 01 a0        	j	0x3e4 <.LBB1_18+0x42>

00000000000003e6 <.LBB1_20>:
     3e6: a2 75        	ld	a1, 40(sp)
     3e8: 85 05        	addi	a1, a1, 1
     3ea: 46 66        	ld	a2, 80(sp)
     3ec: 56 96        	add	a2, a2, s5
     3ee: b2 e8        	sd	a2, 80(sp)
     3f0: fa 98        	add	a7, a7, t5
     3f2: 2e f4        	sd	a1, 40(sp)
     3f4: 63 80 65 00  	beq	a1, t1, 0x3f4 <.LBB1_20+0xe>

00000000000003f8 <.LBB1_21>:
     3f8: 63 80 03 00  	beqz	t2, 0x3f8 <.LBB1_21>
     3fc: 81 44        	li	s1, 0
     3fe: 22 76        	ld	a2, 40(sp)
     400: b3 0b c5 02  	mul	s7, a0, a2
     404: 13 87 4b 00  	addi	a4, s7, 4
     408: b3 85 ca 02  	mul	a1, s5, a2
     40c: 33 8d b2 00  	add	s10, t0, a1
     410: d6 95        	add	a1, a1, s5
     412: b3 80 b2 00  	add	ra, t0, a1
     416: 33 09 76 02  	mul	s2, a2, t2
     41a: c2 86        	mv	a3, a6
     41c: c6 e4        	sd	a7, 72(sp)
     41e: 86 e0        	sd	ra, 64(sp)
     420: 01 a0        	j	0x420 <.LBB1_21+0x28>

0000000000000422 <.LBB1_23>:
     422: 85 04        	addi	s1, s1, 1
     424: 91 06        	addi	a3, a3, 4
     426: 63 80 74 00  	beq	s1, t2, 0x426 <.LBB1_23+0x4>

000000000000042a <.LBB1_24>:
     42a: b3 85 24 01  	add	a1, s1, s2
     42e: 8a 05        	slli	a1, a1, 2
     430: b3 07 bb 00  	add	a5, s6, a1
     434: 23 a0 07 00  	sw	zero, 0(a5)
     438: 63 00 0f 00  	beqz	t5, 0x438 <.LBB1_24+0xe>
     43c: 93 55 1c 00  	srli	a1, s8, 1
     440: 21 46        	li	a2, 8
     442: 63 60 b6 00  	bltu	a2, a1, 0x442 <.LBB1_24+0x18>
     446: a1 45        	li	a1, 8

0000000000000448 <.LBB1_27>:
     448: b3 35 bf 00  	sltu	a1, t5, a1
     44c: b3 e5 b5 01  	or	a1, a1, s11
     450: 81 e1        	bnez	a1, 0x450 <.LBB1_27+0x8>
     452: 13 94 24 00  	slli	s0, s1, 2
     456: 33 86 8b 00  	add	a2, s7, s0
     45a: 5a 96        	add	a2, a2, s6
     45c: b3 05 87 00  	add	a1, a4, s0
     460: da 95        	add	a1, a1, s6
     462: b3 0f 88 00  	add	t6, a6, s0
     466: 56 94        	add	s0, s0, s5
     468: b3 09 88 00  	add	s3, a6, s0
     46c: 33 3a 16 00  	sltu	s4, a2, ra
     470: 33 34 bd 00  	sltu	s0, s10, a1
     474: 33 74 8a 00  	and	s0, s4, s0
     478: 33 36 36 01  	sltu	a2, a2, s3
     47c: b3 b5 bf 00  	sltu	a1, t6, a1
     480: f1 8d        	and	a1, a1, a2
     482: c1 8d        	or	a1, a1, s0
     484: 81 c1        	beqz	a1, 0x484 <.LBB1_27+0x3c>

0000000000000486 <.LBB1_29>:
     486: 81 4c        	li	s9, 0
     488: d3 00 00 20  	fmv.s	ft1, ft0

000000000000048c <.LBB1_30>:
     48c: b3 05 9f 41  	sub	a1, t5, s9
     490: 33 86 93 03  	mul	a2, t2, s9
     494: 26 96        	add	a2, a2, s1
     496: 0a 06        	slli	a2, a2, 2
     498: 42 96        	add	a2, a2, a6
     49a: c6 9c        	add	s9, s9, a7
     49c: 13 94 2c 00  	slli	s0, s9, 2
     4a0: 16 94        	add	s0, s0, t0

00000000000004a2 <.LBB1_31>:
     4a2: 07 21 04 00  	flw	ft2, 0(s0)
     4a6: 87 21 06 00  	flw	ft3, 0(a2)
     4aa: c3 f0 21 08  	fmadd.s	ft1, ft3, ft2, ft1
     4ae: 27 a0 17 00  	fsw	ft1, 0(a5)
     4b2: fd 15        	addi	a1, a1, -1
     4b4: 2a 96        	add	a2, a2, a0
     4b6: 11 04        	addi	s0, s0, 4
     4b8: 81 e1        	bnez	a1, 0x4b8 <.LBB1_31+0x16>
     4ba: 01 a0        	j	0x4ba <.LBB1_31+0x18>

00000000000004bc <.LBB1_32>:
     4bc: c2 88        	mv	a7, a6
     4be: 6e 88        	mv	a6, s11
     4c0: ea 80        	mv	ra, s10
     4c2: de 8d        	mv	s11, s7
     4c4: 56 8d        	mv	s10, s5
     4c6: 13 54 3c 00  	srli	s0, s8, 3
     4ca: 93 59 1c 00  	srli	s3, s8, 1
     4ce: 93 85 f9 ff  	addi	a1, s3, -1
     4d2: 33 7e bf 00  	and	t3, t5, a1
     4d6: b3 0c cf 41  	sub	s9, t5, t3
     4da: 13 16 1c 00  	slli	a2, s8, 1
     4de: e6 65        	ld	a1, 88(sp)
     4e0: 33 8a 85 02  	mul	s4, a1, s0
     4e4: 57 74 00 0d  	vsetvli	s0, zero, e32, m1, ta, ma
     4e8: e6 8f        	mv	t6, s9
     4ea: b6 82        	mv	t0, a3
     4ec: c6 6a        	ld	s5, 80(sp)
     4ee: 57 35 80 9e  	vmv1r.v	v10, v8
     4f2: d7 35 80 9e  	vmv1r.v	v11, v8

00000000000004f6 <.LBB1_33>:
     4f6: 07 e6 8a 02  	vl1re32.v	v12, (s5)
     4fa: b3 8b 8a 01  	add	s7, s5, s8
     4fe: 87 e6 8b 02  	vl1re32.v	v13, (s7)
     502: 07 e7 82 02  	vl1re32.v	v14, (t0)
     506: 33 84 82 01  	add	s0, t0, s8
     50a: 87 67 84 02  	vl1re32.v	v15, (s0)
     50e: 57 15 c7 b2  	vfmacc.vv	v10, v14, v12
     512: d7 95 d7 b2  	vfmacc.vv	v11, v15, v13
     516: b2 9a        	add	s5, s5, a2
     518: b3 8f 3f 41  	sub	t6, t6, s3
     51c: d2 92        	add	t0, t0, s4
     51e: 63 90 0f 00  	bnez	t6, 0x51e <.LBB1_33+0x28>
     522: 57 15 b5 02  	vfadd.vv	v10, v11, v10
     526: 57 95 a4 06  	vfredusum.vs	v10, v10, v9
     52a: 57 f0 00 cd  	vsetivli	zero, 1, e32, m1, ta, ma
     52e: 27 e5 07 02  	vse32.v	v10, (a5)
     532: c2 72        	ld	t0, 48(sp)
     534: ea 8a        	mv	s5, s10
     536: ee 8b        	mv	s7, s11
     538: 06 8d        	mv	s10, ra
     53a: c2 8d        	mv	s11, a6
     53c: 46 88        	mv	a6, a7
     53e: a6 68        	ld	a7, 72(sp)
     540: 86 60        	ld	ra, 64(sp)
     542: 63 00 0e 00  	beqz	t3, 0x542 <.LBB1_33+0x4c>
     546: d7 10 a0 42  	vfmv.f.s	ft1, v10
     54a: 01 a0        	j	0x54a <.LBB1_33+0x54>

000000000000054c <.LBB1_36>:
     54c: f3 25 20 c0  	rdinstret	a1
     550: ae e8        	sd	a1, 80(sp)
     552: f3 25 20 c0  	rdinstret	a1
     556: ae e4        	sd	a1, 72(sp)
     558: e2 65        	ld	a1, 24(sp)
     55a: e2 76        	ld	a3, 56(sp)
     55c: 86 70        	ld	ra, 96(sp)
     55e: 63 80 05 00  	beqz	a1, 0x55e <.LBB1_36+0x12>
     562: 81 48        	li	a7, 0
     564: 81 4c        	li	s9, 0
     566: 82 75        	ld	a1, 32(sp)
     568: b3 3f b0 00  	snez	t6, a1
     56c: 53 00 00 f0  	fmv.w.x	ft0, zero
     570: d7 75 00 0d  	vsetvli	a1, zero, e32, m1, ta, ma
     574: 57 34 00 5e  	vmv.v.i	v8, 0
     578: d7 64 00 42  	vmv.s.x	v9, zero
     57c: 86 8a        	mv	s5, ra
     57e: 01 a0        	j	0x57e <.LBB1_36+0x32>

0000000000000580 <.LBB1_38>:
     580: 85 0c        	addi	s9, s9, 1
     582: f6 9a        	add	s5, s5, t4
     584: 9a 98        	add	a7, a7, t1
     586: e2 65        	ld	a1, 24(sp)
     588: 63 80 bc 00  	beq	s9, a1, 0x588 <.LBB1_38+0x8>

000000000000058c <.LBB1_39>:
     58c: 63 80 03 00  	beqz	t2, 0x58c <.LBB1_39>
     590: 01 4f        	li	t5, 0
     592: b3 09 95 03  	mul	s3, a0, s9
     596: 13 87 49 00  	addi	a4, s3, 4
     59a: b3 85 9e 03  	mul	a1, t4, s9
     59e: b3 8b b0 00  	add	s7, ra, a1
     5a2: f6 95        	add	a1, a1, t4
     5a4: 33 8e b0 00  	add	t3, ra, a1
     5a8: 33 8d 7c 02  	mul	s10, s9, t2
     5ac: 5a 89        	mv	s2, s6
     5ae: 01 a0        	j	0x5ae <.LBB1_39+0x22>

00000000000005b0 <.LBB1_41>:
     5b0: 05 0f        	addi	t5, t5, 1
     5b2: 11 09        	addi	s2, s2, 4
     5b4: 63 00 7f 00  	beq	t5, t2, 0x5b4 <.LBB1_41+0x4>

00000000000005b8 <.LBB1_42>:
     5b8: b3 05 af 01  	add	a1, t5, s10
     5bc: 8a 05        	slli	a1, a1, 2
     5be: b3 87 b6 00  	add	a5, a3, a1
     5c2: 23 a0 07 00  	sw	zero, 0(a5)
     5c6: 63 00 03 00  	beqz	t1, 0x5c6 <.LBB1_42+0xe>
     5ca: 93 55 1c 00  	srli	a1, s8, 1
     5ce: 21 46        	li	a2, 8
     5d0: 63 60 b6 00  	bltu	a2, a1, 0x5d0 <.LBB1_42+0x18>
     5d4: a1 45        	li	a1, 8

00000000000005d6 <.LBB1_45>:
     5d6: b3 35 b3 00  	sltu	a1, t1, a1
     5da: b3 e5 f5 01  	or	a1, a1, t6
     5de: 81 e1        	bnez	a1, 0x5de <.LBB1_45+0x8>
     5e0: 93 14 2f 00  	slli	s1, t5, 2
     5e4: 33 86 99 00  	add	a2, s3, s1
     5e8: 36 96        	add	a2, a2, a3
     5ea: b3 05 97 00  	add	a1, a4, s1
     5ee: b6 95        	add	a1, a1, a3
     5f0: 33 08 9b 00  	add	a6, s6, s1
     5f4: f6 94        	add	s1, s1, t4
     5f6: b3 02 9b 00  	add	t0, s6, s1
     5fa: 33 34 c6 01  	sltu	s0, a2, t3
     5fe: b3 b4 bb 00  	sltu	s1, s7, a1
     602: 65 8c        	and	s0, s0, s1
     604: 33 36 56 00  	sltu	a2, a2, t0
     608: b3 35 b8 00  	sltu	a1, a6, a1
     60c: f1 8d        	and	a1, a1, a2
     60e: c1 8d        	or	a1, a1, s0
     610: 81 c1        	beqz	a1, 0x610 <.LBB1_45+0x3a>

0000000000000612 <.LBB1_47>:
     612: 01 4a        	li	s4, 0
     614: d3 00 00 20  	fmv.s	ft1, ft0

0000000000000618 <.LBB1_48>:
     618: b3 05 43 41  	sub	a1, t1, s4
     61c: 33 86 43 03  	mul	a2, t2, s4
     620: 7a 96        	add	a2, a2, t5
     622: 0a 06        	slli	a2, a2, 2
     624: 5a 96        	add	a2, a2, s6
     626: 46 9a        	add	s4, s4, a7
     628: 93 14 2a 00  	slli	s1, s4, 2
     62c: 86 94        	add	s1, s1, ra

000000000000062e <.LBB1_49>:
     62e: 07 a1 04 00  	flw	ft2, 0(s1)
     632: 87 21 06 00  	flw	ft3, 0(a2)
     636: c3 f0 21 08  	fmadd.s	ft1, ft3, ft2, ft1
     63a: 27 a0 17 00  	fsw	ft1, 0(a5)
     63e: fd 15        	addi	a1, a1, -1
     640: 2a 96        	add	a2, a2, a0
     642: 91 04        	addi	s1, s1, 4
     644: 81 e1        	bnez	a1, 0x644 <.LBB1_49+0x16>
     646: 01 a0        	j	0x646 <.LBB1_49+0x18>

0000000000000648 <.LBB1_50>:
     648: 13 56 3c 00  	srli	a2, s8, 3
     64c: 93 54 1c 00  	srli	s1, s8, 1
     650: 93 85 f4 ff  	addi	a1, s1, -1
     654: b3 7d b3 00  	and	s11, t1, a1
     658: 33 0a b3 41  	sub	s4, t1, s11
     65c: 93 15 1c 00  	slli	a1, s8, 1
     660: e6 66        	ld	a3, 88(sp)
     662: 33 86 c6 02  	mul	a2, a3, a2
     666: 57 74 00 0d  	vsetvli	s0, zero, e32, m1, ta, ma
     66a: 52 84        	mv	s0, s4
     66c: ca 80        	mv	ra, s2
     66e: d6 82        	mv	t0, s5
     670: 57 35 80 9e  	vmv1r.v	v10, v8
     674: d7 35 80 9e  	vmv1r.v	v11, v8

0000000000000678 <.LBB1_51>:
     678: 07 e6 82 02  	vl1re32.v	v12, (t0)
     67c: b3 86 82 01  	add	a3, t0, s8
     680: 87 e6 86 02  	vl1re32.v	v13, (a3)
     684: 07 e7 80 02  	vl1re32.v	v14, (ra)
     688: b3 86 80 01  	add	a3, ra, s8
     68c: 87 e7 86 02  	vl1re32.v	v15, (a3)
     690: 57 15 c7 b2  	vfmacc.vv	v10, v14, v12
     694: d7 95 d7 b2  	vfmacc.vv	v11, v15, v13
     698: ae 92        	add	t0, t0, a1
     69a: 05 8c        	sub	s0, s0, s1
     69c: b2 90        	add	ra, ra, a2
     69e: 01 e0        	bnez	s0, 0x69e <.LBB1_51+0x26>
     6a0: 57 15 b5 02  	vfadd.vv	v10, v11, v10
     6a4: 57 95 a4 06  	vfredusum.vs	v10, v10, v9
     6a8: 57 f0 00 cd  	vsetivli	zero, 1, e32, m1, ta, ma
     6ac: 27 e5 07 02  	vse32.v	v10, (a5)
     6b0: e2 76        	ld	a3, 56(sp)
     6b2: 86 70        	ld	ra, 96(sp)
     6b4: 63 80 0d 00  	beqz	s11, 0x6b4 <.LBB1_51+0x3c>
     6b8: d7 10 a0 42  	vfmv.f.s	ft1, v10
     6bc: 01 a0        	j	0x6bc <.LBB1_51+0x44>

00000000000006be <.LBB1_54>:
     6be: 73 25 20 c0  	rdinstret	a0
     6c2: c2 65        	ld	a1, 16(sp)
     6c4: 02 66        	ld	a2, 0(sp)
     6c6: b2 95        	add	a1, a1, a2
     6c8: 22 66        	ld	a2, 8(sp)
     6ca: c6 66        	ld	a3, 80(sp)
     6cc: 36 96        	add	a2, a2, a3
     6ce: a6 66        	ld	a3, 72(sp)
     6d0: b6 95        	add	a1, a1, a3
     6d2: 32 95        	add	a0, a0, a2
     6d4: 33 06 b5 40  	sub	a2, a0, a1
     6d8: 37 05 00 00  	lui	a0, 0
     6dc: 13 05 05 00  	mv	a0, a0
     6e0: 81 45        	li	a1, 0
     6e2: ae 60        	ld	ra, 200(sp)
     6e4: 0e 64        	ld	s0, 192(sp)
     6e6: ea 74        	ld	s1, 184(sp)
     6e8: 4a 79        	ld	s2, 176(sp)
     6ea: aa 79        	ld	s3, 168(sp)
     6ec: 0a 7a        	ld	s4, 160(sp)
     6ee: ea 6a        	ld	s5, 152(sp)
     6f0: 4a 6b        	ld	s6, 144(sp)
     6f2: aa 6b        	ld	s7, 136(sp)
     6f4: 0a 6c        	ld	s8, 128(sp)
     6f6: e6 7c        	ld	s9, 120(sp)
     6f8: 46 7d        	ld	s10, 112(sp)
     6fa: a6 7d        	ld	s11, 104(sp)
     6fc: 69 61        	addi	sp, sp, 208
     6fe: 17 03 00 00  	auipc	t1, 0
     702: 67 00 03 00  	jr	t1
