
kernel.o:	file format elf64-littleriscv

Disassembly of section .text:

0000000000000000 <.text>:
       0: 01 00        	nop

0000000000000002 <core>:
       2: 79 71        	addi	sp, sp, -48
       4: 22 f4        	sd	s0, 40(sp)
       6: 26 f0        	sd	s1, 32(sp)
       8: 4a ec        	sd	s2, 24(sp)
       a: 4e e8        	sd	s3, 16(sp)
       c: 52 e4        	sd	s4, 8(sp)
       e: 56 e0        	sd	s5, 0(sp)
      10: f3 28 20 c0  	rdinstret	a7
      14: 13 24 17 00  	slti	s0, a4, 1
      18: 93 a4 17 00  	slti	s1, a5, 1
      1c: 45 8c        	or	s0, s0, s1
      1e: 37 08 00 00  	lui	a6, 0
      22: 23 30 18 01  	sd	a7, 0(a6)
      26: 01 e0        	bnez	s0, 0x26 <core+0x24>
      28: 81 48        	li	a7, 0
      2a: 81 42        	li	t0, 0
      2c: 73 23 20 c2  	csrr	t1, vlenb
      30: 93 53 33 00  	srli	t2, t1, 3
      34: 13 9e 27 00  	slli	t3, a5, 2
      38: 93 9e 37 00  	slli	t4, a5, 3
      3c: 53 00 00 f2  	fmv.d.x	ft0, zero
      40: 93 84 f3 ff  	addi	s1, t2, -1
      44: 33 ff 97 00  	and	t5, a5, s1
      48: b3 8f e7 41  	sub	t6, a5, t5
      4c: 57 74 80 0d  	vsetvli	s0, zero, e64, m1, ta, ma
      50: 57 34 00 5e  	vmv.v.i	v8, 0
      54: d7 64 00 42  	vmv.s.x	v9, zero
      58: 2a 89        	mv	s2, a0
      5a: ae 89        	mv	s3, a1
      5c: 01 a0        	j	0x5c <core+0x5a>

000000000000005e <.LBB0_2>:
      5e: 13 94 32 00  	slli	s0, t0, 3
      62: 36 94        	add	s0, s0, a3
      64: 07 31 04 00  	fld	ft2, 0(s0)
      68: d3 70 11 02  	fadd.d	ft1, ft2, ft1
      6c: 27 30 14 00  	fsd	ft1, 0(s0)
      70: 85 02        	addi	t0, t0, 1
      72: f2 99        	add	s3, s3, t3
      74: 76 99        	add	s2, s2, t4
      76: be 98        	add	a7, a7, a5
      78: 63 80 e2 00  	beq	t0, a4, 0x78 <.LBB0_2+0x1a>

000000000000007c <.LBB0_3>:
      7c: 63 f0 77 00  	bgeu	a5, t2, 0x7c <.LBB0_3>
      80: 01 44        	li	s0, 0
      82: d3 00 00 22  	fmv.d	ft1, ft0
      86: 01 a0        	j	0x86 <.LBB0_3+0xa>

0000000000000088 <.LBB0_5>:
      88: 13 5a 13 00  	srli	s4, t1, 1
      8c: fe 8a        	mv	s5, t6
      8e: 4a 84        	mv	s0, s2
      90: ce 84        	mv	s1, s3
      92: 57 35 80 9e  	vmv1r.v	v10, v8

0000000000000096 <.LBB0_6>:
      96: 87 e5 04 02  	vle32.v	v11, (s1)
      9a: 07 76 84 02  	vl1re64.v	v12, (s0)
      9e: d7 a6 b3 4a  	vsext.vf2	v13, v11
      a2: d7 b5 d1 96  	vsll.vi	v11, v13, 3
      a6: 87 75 b6 06  	vluxei64.v	v11, (a2), v11
      aa: 57 95 c5 b2  	vfmacc.vv	v10, v11, v12
      ae: d2 94        	add	s1, s1, s4
      b0: b3 8a 7a 40  	sub	s5, s5, t2
      b4: 1a 94        	add	s0, s0, t1
      b6: 63 90 0a 00  	bnez	s5, 0xb6 <.LBB0_6+0x20>
      ba: 57 95 a4 06  	vfredusum.vs	v10, v10, v9
      be: d7 10 a0 42  	vfmv.f.s	ft1, v10
      c2: 7e 84        	mv	s0, t6
      c4: 63 00 0f 00  	beqz	t5, 0xc4 <.LBB0_6+0x2e>

00000000000000c8 <.LBB0_8>:
      c8: b3 04 14 01  	add	s1, s0, a7
      cc: 13 9a 34 00  	slli	s4, s1, 3
      d0: 2a 9a        	add	s4, s4, a0
      d2: 8a 04        	slli	s1, s1, 2
      d4: ae 94        	add	s1, s1, a1
      d6: 33 84 87 40  	sub	s0, a5, s0

00000000000000da <.LBB0_9>:
      da: 83 aa 04 00  	lw	s5, 0(s1)
      de: 07 31 0a 00  	fld	ft2, 0(s4)
      e2: 8e 0a        	slli	s5, s5, 3
      e4: b2 9a        	add	s5, s5, a2
      e6: 87 b1 0a 00  	fld	ft3, 0(s5)
      ea: c3 f0 21 0a  	fmadd.d	ft1, ft3, ft2, ft1
      ee: 21 0a        	addi	s4, s4, 8
      f0: 7d 14        	addi	s0, s0, -1
      f2: 91 04        	addi	s1, s1, 4
      f4: 01 e0        	bnez	s0, 0xf4 <.LBB0_9+0x1a>
      f6: 01 a0        	j	0xf6 <.LBB0_9+0x1c>

00000000000000f8 <.LBB0_10>:
      f8: 73 26 20 c0  	rdinstret	a2
      fc: 83 35 08 00  	ld	a1, 0(a6)
     100: b7 06 00 00  	lui	a3, 0
     104: 37 05 00 00  	lui	a0, 0
     108: 13 05 05 00  	mv	a0, a0
     10c: 23 b0 c6 00  	sd	a2, 0(a3)
     110: 22 74        	ld	s0, 40(sp)
     112: 82 74        	ld	s1, 32(sp)
     114: 62 69        	ld	s2, 24(sp)
     116: c2 69        	ld	s3, 16(sp)
     118: 22 6a        	ld	s4, 8(sp)
     11a: 82 6a        	ld	s5, 0(sp)
     11c: 45 61        	addi	sp, sp, 48
     11e: 17 03 00 00  	auipc	t1, 0
     122: 67 00 03 00  	jr	t1
