
kernel.o:     file format elf64-littleriscv


Disassembly of section .text:

0000000000000000 <core>:
   0:	4805                	li	a6,1
   2:	c02028f3          	rdinstret	a7
   6:	7ce5e08b          	ss.sta.ld.w	u1,a1,a4,a5
   a:	82f0008b          	ss.end	u1,zero,a5,a6
   e:	7ce5710b          	ss.sta.ld.d	u2,a0,a4,a5
  12:	82f0010b          	ss.end	u2,zero,a5,a6
  16:	0000110b          	ss.cfg.vec	u2
  1a:	04e6718b          	ss.sta.ld.d	u3,a2,a4,zero
  1e:	00f0018b          	ss.app	u3,zero,a5,zero
  22:	0820e18b          	ss.app.indl.ofs.add	u3,u1
  26:	0000118b          	ss.cfg.vec	u3
  2a:	0300018b          	ss.end	u3,zero,a6,zero
  2e:	86e6b20b          	ss.st.d	u4,a3,a4,a6

0000000000000032 <.iLoop112>:
  32:	ac0032ab          	so.v.dp.d	u5,zero,p0

0000000000000036 <.kloop112>:
  36:	1031132b          	so.a.mul.fp	u6,u2,u3,p0
  3a:	006292ab          	so.a.add.fp	u5,u5,u6,p0
  3e:	ffe10cab          	so.b.ndc.1	u2,36 <.kloop112>
  42:	2002922b          	so.a.adde.fp	u4,u5,p0
  46:	fff166ab          	so.b.nc	u2,32 <.iLoop112>
  4a:	c0202373          	rdinstret	t1
  4e:	00000537          	lui	a0,0x0
  52:	000006b7          	lui	a3,0x0
  56:	00000737          	lui	a4,0x0
  5a:	861a                	mv	a2,t1
  5c:	85c6                	mv	a1,a7
  5e:	00050513          	mv	a0,a0
  62:	0116b023          	sd	a7,0(a3) # 0 <core>
  66:	00673023          	sd	t1,0(a4) # 0 <core>
  6a:	00000317          	auipc	t1,0x0
  6e:	00030067          	jr	t1 # 6a <.kloop112+0x34>
