
kernel.o:	file format elf64-littleriscv

Disassembly of section .text:

0000000000000000 <core>:
       0: 83ae         	mv	t2, a1
       2: c02025f3     	rdinstret	a1
       6: 00000737     	lui	a4, 0x0
       a: 00b73023     	sd	a1, 0x0(a4)
       e: 00705063     	blez	t2, 0xe <core+0xe>
      12: 7135         	addi	sp, sp, -0xa0
      14: ed06         	sd	ra, 0x98(sp)
      16: e922         	sd	s0, 0x90(sp)
      18: e526         	sd	s1, 0x88(sp)
      1a: e14a         	sd	s2, 0x80(sp)
      1c: fcce         	sd	s3, 0x78(sp)
      1e: f8d2         	sd	s4, 0x70(sp)
      20: f4d6         	sd	s5, 0x68(sp)
      22: f0da         	sd	s6, 0x60(sp)
      24: ecde         	sd	s7, 0x58(sp)
      26: e8e2         	sd	s8, 0x50(sp)
      28: e4e6         	sd	s9, 0x48(sp)
      2a: e0ea         	sd	s10, 0x40(sp)
      2c: fc6e         	sd	s11, 0x38(sp)
      2e: 4b81         	li	s7, 0x0
      30: 02051593     	slli	a1, a0, 0x20
      34: 0205d893     	srli	a7, a1, 0x20
      38: 01d5de13     	srli	t3, a1, 0x1d
      3c: 00339593     	slli	a1, t2, 0x3
      40: ff858713     	addi	a4, a1, -0x8
      44: 02770733     	mul	a4, a4, t2
      48: 00858793     	addi	a5, a1, 0x8
      4c: 01c684b3     	add	s1, a3, t3
      50: e426         	sd	s1, 0x8(sp)
      52: 9732         	add	a4, a4, a2
      54: ec3a         	sd	a4, 0x18(sp)
      56: 00b609b3     	add	s3, a2, a1
      5a: 00868713     	addi	a4, a3, 0x8
      5e: f43a         	sd	a4, 0x28(sp)
      60: c2202773     	csrr	a4, vlenb
      64: 00375493     	srli	s1, a4, 0x3
      68: 00171f93     	slli	t6, a4, 0x1
      6c: f83a         	sd	a4, 0x30(sp)
      6e: 00275c93     	srli	s9, a4, 0x2
      72: 02938ab3     	mul	s5, t2, s1
      76: 0a92         	slli	s5, s5, 0x4
      78: 4805         	li	a6, 0x1
      7a: 0d807757     	vsetvli	a4, zero, e64, m1, ta, ma
      7e: 5e003457     	vmv.v.i	v8, 0x0
      82: 0d907757     	vsetvli	a4, zero, e64, m2, ta, ma
      86: 5e003557     	vmv.v.i	v10, 0x0
      8a: 420064d7     	vmv.s.x	v9, zero
      8e: e84e         	sd	s3, 0x10(sp)
      90: f03e         	sd	a5, 0x20(sp)
      92: a001         	j	0x92 <core+0x92>
      94: 0805         	addi	a6, a6, 0x1
      96: 7722         	ld	a4, 0x28(sp)
      98: 0721         	addi	a4, a4, 0x8
      9a: f43a         	sd	a4, 0x28(sp)
      9c: 7782         	ld	a5, 0x20(sp)
      9e: 99be         	add	s3, s3, a5
      a0: 0621         	addi	a2, a2, 0x8
      a2: 8bd2         	mv	s7, s4
      a4: 007a0063     	beq	s4, t2, 0xa4 <core+0xa4>
      a8: 003b9413     	slli	s0, s7, 0x3
      ac: 6762         	ld	a4, 0x18(sp)
      ae: 943a         	add	s0, s0, a4
      b0: 03778733     	mul	a4, a5, s7
      b4: 64c2         	ld	s1, 0x10(sp)
      b6: 9726         	add	a4, a4, s1
      b8: 8922         	mv	s2, s0
      ba: 00e47063     	bgeu	s0, a4, 0xba <core+0xba>
      be: 00877063     	bgeu	a4, s0, 0xbe <core+0xbe>
      c2: 001b8a13     	addi	s4, s7, 0x1
      c6: 00a04063     	bgtz	a0, 0xc6 <core+0xc6>
      ca: a001         	j	0xca <core+0xca>
      cc: 893a         	mv	s2, a4
      ce: 00876063     	bltu	a4, s0, 0xce <core+0xce>
      d2: 843a         	mv	s0, a4
      d4: 001b8a13     	addi	s4, s7, 0x1
      d8: 00a05063     	blez	a0, 0xd8 <core+0xd8>
      dc: 4281         	li	t0, 0x0
      de: fffbcb13     	not	s6, s7
      e2: 9b1e         	add	s6, s6, t2
      e4: 037e07b3     	mul	a5, t3, s7
      e8: 00f684b3     	add	s1, a3, a5
      ec: 6722         	ld	a4, 0x8(sp)
      ee: 973e         	add	a4, a4, a5
      f0: 0421         	addi	s0, s0, 0x8
      f2: 031b8bb3     	mul	s7, s7, a7
      f6: 0084b7b3     	sltu	a5, s1, s0
      fa: 00e93733     	sltu	a4, s2, a4
      fe: 00e7fc33     	and	s8, a5, a4
     102: 80b6         	mv	ra, a3
     104: 7ea2         	ld	t4, 0x28(sp)
     106: a001         	j	0x106 <core+0x106>
     108: 9db6         	add	s11, s11, a3
     10a: 000db787     	fld	fa5, 0x0(s11)
     10e: 12a7f7d3     	fmul.d	fa5, fa5, fa0
     112: 00fdb027     	fsd	fa5, 0x0(s11)
     116: 0285         	addi	t0, t0, 0x1
     118: 0ea1         	addi	t4, t4, 0x8
     11a: 00a1         	addi	ra, ra, 0x8
     11c: 01128063     	beq	t0, a7, 0x11c <core+0x11c>
     120: 01728db3     	add	s11, t0, s7
     124: 0d8e         	slli	s11, s11, 0x3
     126: 007a7063     	bgeu	s4, t2, 0x126 <core+0x126>
     12a: 4791         	li	a5, 0x4
     12c: 8766         	mv	a4, s9
     12e: 0197e063     	bltu	a5, s9, 0x12e <core+0x12e>
     132: 4711         	li	a4, 0x4
     134: fff50793     	addi	a5, a0, -0x1
     138: 00f037b3     	snez	a5, a5
     13c: 01b68433     	add	s0, a3, s11
     140: 201c         	fld	fa5, 0x0(s0)
     142: 00eb3733     	sltu	a4, s6, a4
     146: 01876733     	or	a4, a4, s8
     14a: 8f5d         	or	a4, a4, a5
     14c: 8b05         	andi	a4, a4, 0x1
     14e: c301         	beqz	a4, 0x14e <core+0x14e>
     150: 8942         	mv	s2, a6
     152: a001         	j	0x152 <core+0x152>
     154: 7742         	ld	a4, 0x30(sp)
     156: 8309         	srli	a4, a4, 0x2
     158: 40e00733     	neg	a4, a4
     15c: 00eb7333     	and	t1, s6, a4
     160: 9e803757     	vmv1r.v	v14, v8
     164: 09807757     	vsetvli	a4, zero, e64, m1, tu, ma
     168: 4207d757     	vfmv.s.f	v14, fa5
     16c: 9ea0b657     	vmv2r.v	v12, v10
     170: 00680933     	add	s2, a6, t1
     174: 9ee03657     	vmv1r.v	v12, v14
     178: 00339713     	slli	a4, t2, 0x3
     17c: 87ce         	mv	a5, s3
     17e: 849a         	mv	s1, t1
     180: 8d76         	mv	s10, t4
     182: 0d907f57     	vsetvli	t5, zero, e64, m2, ta, ma
     186: 0ae7f707     	vlse64.v	v14, (a5), a4
     18a: 228d7807     	vl2re64.v	v16, (s10)
     18e: b2e81657     	vfmacc.vv	v12, v16, v14
     192: 9d7e         	add	s10, s10, t6
     194: 419484b3     	sub	s1, s1, s9
     198: 97d6         	add	a5, a5, s5
     19a: e081         	bnez	s1, 0x19a <core+0x19a>
     19c: 06c49657     	vfredusum.vs	v12, v12, v9
     1a0: cd80f057     	vsetivli	zero, 0x1, e64, m1, ta, ma
     1a4: 02047627     	vse64.v	v12, (s0)
     1a8: 006b0063     	beq	s6, t1, 0x1a8 <core+0x1a8>
     1ac: 42c017d7     	vfmv.f.s	fa5, v12
     1b0: 032587b3     	mul	a5, a1, s2
     1b4: 97b2         	add	a5, a5, a2
     1b6: 032e0733     	mul	a4, t3, s2
     1ba: 9706         	add	a4, a4, ra
     1bc: 412384b3     	sub	s1, t2, s2
     1c0: 2398         	fld	fa4, 0x0(a5)
     1c2: 2314         	fld	fa3, 0x0(a4)
     1c4: 7ae6f7c3     	fmadd.d	fa5, fa3, fa4, fa5
     1c8: a01c         	fsd	fa5, 0x0(s0)
     1ca: 97ae         	add	a5, a5, a1
     1cc: 14fd         	addi	s1, s1, -0x1
     1ce: 9772         	add	a4, a4, t3
     1d0: e081         	bnez	s1, 0x1d0 <core+0x1d0>
     1d2: a001         	j	0x1d2 <core+0x1d2>
     1d4: 60ea         	ld	ra, 0x98(sp)
     1d6: 644a         	ld	s0, 0x90(sp)
     1d8: 64aa         	ld	s1, 0x88(sp)
     1da: 690a         	ld	s2, 0x80(sp)
     1dc: 79e6         	ld	s3, 0x78(sp)
     1de: 7a46         	ld	s4, 0x70(sp)
     1e0: 7aa6         	ld	s5, 0x68(sp)
     1e2: 7b06         	ld	s6, 0x60(sp)
     1e4: 6be6         	ld	s7, 0x58(sp)
     1e6: 6c46         	ld	s8, 0x50(sp)
     1e8: 6ca6         	ld	s9, 0x48(sp)
     1ea: 6d06         	ld	s10, 0x40(sp)
     1ec: 7de2         	ld	s11, 0x38(sp)
     1ee: 610d         	addi	sp, sp, 0xa0
     1f0: c0202673     	rdinstret	a2
     1f4: 00000537     	lui	a0, 0x0
     1f8: 00053583     	ld	a1, 0x0(a0)
     1fc: 000006b7     	lui	a3, 0x0
     200: 00000537     	lui	a0, 0x0
     204: 00050513     	mv	a0, a0
     208: 00c6b023     	sd	a2, 0x0(a3)
     20c: 00000317     	auipc	t1, 0x0
     210: 00030067     	jr	t1 <core+0x20c>
