
kernel.o:     file format elf64-littleriscv


Disassembly of section .text:

0000000000000000 <core>:
   0:	4e22                	lw	t3,8(sp)
   2:	4ec2                	lw	t4,16(sp)
   4:	6302                	ld	t1,0(sp)
   6:	6f62                	ld	t5,24(sp)
   8:	4f85                	li	t6,1
   a:	c02022f3          	rdinstret	t0
   e:	4005208b          	ss.sta.st.w.v.1	u1,a0
  12:	f3e0008b          	ss.app	u1,zero,t5,t5
  16:	fde0008b          	ss.end	u1,zero,t5,t6
  1a:	4007650b          	ss.sta.ld.w.v.1	u10,a4
  1e:	03e0050b          	ss.app	u10,zero,t5,zero
  22:	fde0050b          	ss.end	u10,zero,t5,t6
  26:	4006e48b          	ss.sta.ld.w.v.1	u9,a3
  2a:	fbe0048b          	ss.app	u9,zero,t5,t6
  2e:	05e0048b          	ss.end	u9,zero,t5,zero
  32:	4006638b          	ss.sta.ld.w.v.1	u7,a2
  36:	03e0038b          	ss.app	u7,zero,t5,zero
  3a:	fde0038b          	ss.end	u7,zero,t5,t6
  3e:	4005e30b          	ss.sta.ld.w.v.1	u6,a1
  42:	fbe0030b          	ss.app	u6,zero,t5,t6
  46:	05e0030b          	ss.end	u6,zero,t5,zero
  4a:	4005620b          	ss.sta.ld.w.v.1	u4,a0
  4e:	f3e0020b          	ss.app	u4,zero,t5,t5
  52:	fde0020b          	ss.end	u4,zero,t5,t6

0000000000000056 <.SLOOP_118>:
  56:	107322ab          	so.a.mul.sg	u5,u6,u7,p0
  5a:	005221ab          	so.a.add.sg	u3,u4,u5,p0
  5e:	10a4a42b          	so.a.mul.sg	u8,u9,u10,p0
  62:	0081a0ab          	so.a.add.sg	u1,u3,u8,p0
  66:	ffd0f8ab          	so.b.nc	u1,56 <.SLOOP_118>
  6a:	4008e38b          	ss.sta.ld.w.v.1	u7,a7
  6e:	03e0038b          	ss.app	u7,zero,t5,zero
  72:	fde0038b          	ss.end	u7,zero,t5,t6
  76:	4005628b          	ss.sta.ld.w.v.1	u5,a0
  7a:	fbe0028b          	ss.app	u5,zero,t5,t6
  7e:	f5e0028b          	ss.end	u5,zero,t5,t5
  82:	0008208b          	ss.sta.st.w	u1,a6
  86:	fde0008b          	ss.end	u1,zero,t5,t6
  8a:	0008648b          	ss.sta.ld.w	u9,a6
  8e:	fde0048b          	ss.end	u9,zero,t5,t6
  92:	ac0ea32b          	so.v.dp.w	u6,t4,p0

0000000000000096 <.SLOOP_218>:
  96:	ac0025ab          	so.v.dp.w	u11,zero,p0

000000000000009a <.SLOOP_2_018>:
  9a:	1062a82b          	so.a.mul.sg	u16,u5,u6,p0
  9e:	10782eab          	so.a.mul.sg	u29,u16,u7,p0
  a2:	201ea5ab          	so.a.adde.acc.sg	u11,u29,p0
  a6:	ffd28aab          	so.b.ndc.1	u5,9a <.SLOOP_2_018>
  aa:	00b4a0ab          	so.a.add.sg	u1,u9,u11,p0
  ae:	ffd0f4ab          	so.b.nc	u1,96 <.SLOOP_218>
  b2:	0008208b          	ss.sta.st.w	u1,a6
  b6:	fde0008b          	ss.end	u1,zero,t5,t6
  ba:	7803620b          	ss.sta.ld.w.v	u4,t1
  be:	fde0020b          	ss.end	u4,zero,t5,t6
  c2:	7808618b          	ss.sta.ld.w.v	u3,a6
  c6:	fde0018b          	ss.end	u3,zero,t5,t6

00000000000000ca <.SLOOP_318>:
  ca:	0041a0ab          	so.a.add.sg	u1,u3,u4,p0
  ce:	ffd0feab          	so.b.nc	u1,ca <.SLOOP_318>
  d2:	4008638b          	ss.sta.ld.w.v.1	u7,a6
  d6:	03e0038b          	ss.app	u7,zero,t5,zero
  da:	fde0038b          	ss.end	u7,zero,t5,t6
  de:	4005628b          	ss.sta.ld.w.v.1	u5,a0
  e2:	f3e0028b          	ss.app	u5,zero,t5,t5
  e6:	fde0028b          	ss.end	u5,zero,t5,t6
  ea:	0007a08b          	ss.sta.st.w	u1,a5
  ee:	fde0008b          	ss.end	u1,zero,t5,t6
  f2:	0007e48b          	ss.sta.ld.w	u9,a5
  f6:	fde0048b          	ss.end	u9,zero,t5,t6
  fa:	ac0e262b          	so.v.dp.w	u12,t3,p0

00000000000000fe <.SLOOP_418>:
  fe:	ac0026ab          	so.v.dp.w	u13,zero,p0

0000000000000102 <.SLOOP_4_018>:
 102:	10c2a72b          	so.a.mul.sg	u14,u5,u12,p0
 106:	107727ab          	so.a.mul.sg	u15,u14,u7,p0
 10a:	2017a6ab          	so.a.adde.acc.sg	u13,u15,p0
 10e:	ffd28aab          	so.b.ndc.1	u5,102 <.SLOOP_4_018>
 112:	00d4a0ab          	so.a.add.sg	u1,u9,u13,p0
 116:	ffd0f4ab          	so.b.nc	u1,fe <.SLOOP_418>
 11a:	c02023f3          	rdinstret	t2
 11e:	00000537          	lui	a0,0x0
 122:	000006b7          	lui	a3,0x0
 126:	00000737          	lui	a4,0x0
 12a:	861e                	mv	a2,t2
 12c:	8596                	mv	a1,t0
 12e:	00050513          	mv	a0,a0
 132:	0056b023          	sd	t0,0(a3) # 0 <core>
 136:	00773023          	sd	t2,0(a4) # 0 <core>
 13a:	00000317          	auipc	t1,0x0
 13e:	00030067          	jr	t1 # 13a <.SLOOP_4_018+0x38>
