
kernel.o:     file format elf64-littleriscv


Disassembly of section .text:

0000000000000000 <core>:
   0:	87ae                	mv	a5,a1
   2:	c02025f3          	rdinstret	a1
   6:	01452787          	flw	fa5,20(a0)
   a:	01852607          	flw	fa2,24(a0)
   e:	01c52587          	flw	fa1,28(a0)
  12:	02c52687          	flw	fa3,44(a0)
  16:	00c7f653          	fadd.s	fa2,fa5,fa2
  1a:	00452707          	flw	fa4,4(a0)
  1e:	00000737          	lui	a4,0x0
  22:	00073787          	fld	fa5,0(a4) # 0 <core>
  26:	00000737          	lui	a4,0x0
  2a:	00b67653          	fadd.s	fa2,fa2,fa1
  2e:	00b73023          	sd	a1,0(a4) # 0 <core>
  32:	00d67653          	fadd.s	fa2,fa2,fa3
  36:	00e67653          	fadd.s	fa2,fa2,fa4
  3a:	42060653          	fcvt.d.s	fa2,fa2
  3e:	12f67653          	fmul.d	fa2,fa2,fa5
  42:	40167653          	fcvt.s.d	fa2,fa2
  46:	00c7ac27          	fsw	fa2,24(a5)
  4a:	01852587          	flw	fa1,24(a0)
  4e:	01c52707          	flw	fa4,28(a0)
  52:	02052687          	flw	fa3,32(a0)
  56:	03052507          	flw	fa0,48(a0)
  5a:	00b77753          	fadd.s	fa4,fa4,fa1
  5e:	00852587          	flw	fa1,8(a0)
  62:	00d776d3          	fadd.s	fa3,fa4,fa3
  66:	00a6f6d3          	fadd.s	fa3,fa3,fa0
  6a:	00b6f6d3          	fadd.s	fa3,fa3,fa1
  6e:	420686d3          	fcvt.d.s	fa3,fa3
  72:	12f6f6d3          	fmul.d	fa3,fa3,fa5
  76:	4016f6d3          	fcvt.s.d	fa3,fa3
  7a:	00d7ae27          	fsw	fa3,28(a5)
  7e:	01c52587          	flw	fa1,28(a0)
  82:	02052707          	flw	fa4,32(a0)
  86:	02452007          	flw	ft0,36(a0)
  8a:	03452507          	flw	fa0,52(a0)
  8e:	00b77753          	fadd.s	fa4,fa4,fa1
  92:	00c52587          	flw	fa1,12(a0)
  96:	00077753          	fadd.s	fa4,fa4,ft0
  9a:	00a77753          	fadd.s	fa4,fa4,fa0
  9e:	00b77753          	fadd.s	fa4,fa4,fa1
  a2:	42070753          	fcvt.d.s	fa4,fa4
  a6:	12f77753          	fmul.d	fa4,fa4,fa5
  aa:	40177753          	fcvt.s.d	fa4,fa4
  ae:	02e7a027          	fsw	fa4,32(a5)
  b2:	02852587          	flw	fa1,40(a0)
  b6:	02c52707          	flw	fa4,44(a0)
  ba:	03052007          	flw	ft0,48(a0)
  be:	04052507          	flw	fa0,64(a0)
  c2:	00b77753          	fadd.s	fa4,fa4,fa1
  c6:	01852587          	flw	fa1,24(a0)
  ca:	00077753          	fadd.s	fa4,fa4,ft0
  ce:	00a77753          	fadd.s	fa4,fa4,fa0
  d2:	00b77753          	fadd.s	fa4,fa4,fa1
  d6:	42070753          	fcvt.d.s	fa4,fa4
  da:	12f77753          	fmul.d	fa4,fa4,fa5
  de:	40177753          	fcvt.s.d	fa4,fa4
  e2:	02e7a627          	fsw	fa4,44(a5)
  e6:	02c52507          	flw	fa0,44(a0)
  ea:	03052587          	flw	fa1,48(a0)
  ee:	03452087          	flw	ft1,52(a0)
  f2:	04452007          	flw	ft0,68(a0)
  f6:	00a5f5d3          	fadd.s	fa1,fa1,fa0
  fa:	01c52507          	flw	fa0,28(a0)
  fe:	0015f5d3          	fadd.s	fa1,fa1,ft1
 102:	0005f5d3          	fadd.s	fa1,fa1,ft0
 106:	00a5f5d3          	fadd.s	fa1,fa1,fa0
 10a:	420585d3          	fcvt.d.s	fa1,fa1
 10e:	12f5f5d3          	fmul.d	fa1,fa1,fa5
 112:	4015f5d3          	fcvt.s.d	fa1,fa1
 116:	02b7a827          	fsw	fa1,48(a5)
 11a:	03452587          	flw	fa1,52(a0)
 11e:	03052507          	flw	fa0,48(a0)
 122:	03852187          	flw	ft3,56(a0)
 126:	04852107          	flw	ft2,72(a0)
 12a:	00a5f553          	fadd.s	fa0,fa1,fa0
 12e:	0147a587          	flw	fa1,20(a5)
 132:	02052087          	flw	ft1,32(a0)
 136:	0047a007          	flw	ft0,4(a5)
 13a:	00c5f653          	fadd.s	fa2,fa1,fa2
 13e:	00357553          	fadd.s	fa0,fa0,ft3
 142:	00d676d3          	fadd.s	fa3,fa2,fa3
 146:	002575d3          	fadd.s	fa1,fa0,ft2
 14a:	00e6f753          	fadd.s	fa4,fa3,fa4
 14e:	0015f5d3          	fadd.s	fa1,fa1,ft1
 152:	00077753          	fadd.s	fa4,fa4,ft0
 156:	420586d3          	fcvt.d.s	fa3,fa1
 15a:	12f6f6d3          	fmul.d	fa3,fa3,fa5
 15e:	42070753          	fcvt.d.s	fa4,fa4
 162:	12f77753          	fmul.d	fa4,fa4,fa5
 166:	4016f6d3          	fcvt.s.d	fa3,fa3
 16a:	02d7aa27          	fsw	fa3,52(a5)
 16e:	03c52607          	flw	fa2,60(a0)
 172:	04052687          	flw	fa3,64(a0)
 176:	04452507          	flw	fa0,68(a0)
 17a:	05452587          	flw	fa1,84(a0)
 17e:	00c6f6d3          	fadd.s	fa3,fa3,fa2
 182:	02c52607          	flw	fa2,44(a0)
 186:	40177753          	fcvt.s.d	fa4,fa4
 18a:	00a6f6d3          	fadd.s	fa3,fa3,fa0
 18e:	00b6f6d3          	fadd.s	fa3,fa3,fa1
 192:	00c6f6d3          	fadd.s	fa3,fa3,fa2
 196:	420686d3          	fcvt.d.s	fa3,fa3
 19a:	12f6f6d3          	fmul.d	fa3,fa3,fa5
 19e:	4016f6d3          	fcvt.s.d	fa3,fa3
 1a2:	04d7a027          	fsw	fa3,64(a5)
 1a6:	04052607          	flw	fa2,64(a0)
 1aa:	04452687          	flw	fa3,68(a0)
 1ae:	04852507          	flw	fa0,72(a0)
 1b2:	05852587          	flw	fa1,88(a0)
 1b6:	00c6f6d3          	fadd.s	fa3,fa3,fa2
 1ba:	03052607          	flw	fa2,48(a0)
 1be:	00a6f6d3          	fadd.s	fa3,fa3,fa0
 1c2:	00b6f6d3          	fadd.s	fa3,fa3,fa1
 1c6:	00c6f6d3          	fadd.s	fa3,fa3,fa2
 1ca:	420686d3          	fcvt.d.s	fa3,fa3
 1ce:	12f6f6d3          	fmul.d	fa3,fa3,fa5
 1d2:	4016f6d3          	fcvt.s.d	fa3,fa3
 1d6:	04d7a227          	fsw	fa3,68(a5)
 1da:	04452607          	flw	fa2,68(a0)
 1de:	04852687          	flw	fa3,72(a0)
 1e2:	04c52507          	flw	fa0,76(a0)
 1e6:	05c52587          	flw	fa1,92(a0)
 1ea:	00c6f6d3          	fadd.s	fa3,fa3,fa2
 1ee:	03452607          	flw	fa2,52(a0)
 1f2:	00a6f6d3          	fadd.s	fa3,fa3,fa0
 1f6:	00b6f6d3          	fadd.s	fa3,fa3,fa1
 1fa:	00c6f6d3          	fadd.s	fa3,fa3,fa2
 1fe:	420686d3          	fcvt.d.s	fa3,fa3
 202:	12f6f6d3          	fmul.d	fa3,fa3,fa5
 206:	4016f6d3          	fcvt.s.d	fa3,fa3
 20a:	04d7a427          	fsw	fa3,72(a5)
 20e:	00e52c27          	fsw	fa4,24(a0)
 212:	01c7a687          	flw	fa3,28(a5)
 216:	0187a707          	flw	fa4,24(a5)
 21a:	0207a587          	flw	fa1,32(a5)
 21e:	0307a607          	flw	fa2,48(a5)
 222:	00d77753          	fadd.s	fa4,fa4,fa3
 226:	0087a687          	flw	fa3,8(a5)
 22a:	00b77753          	fadd.s	fa4,fa4,fa1
 22e:	00c77753          	fadd.s	fa4,fa4,fa2
 232:	00d77753          	fadd.s	fa4,fa4,fa3
 236:	42070753          	fcvt.d.s	fa4,fa4
 23a:	12f77753          	fmul.d	fa4,fa4,fa5
 23e:	40177753          	fcvt.s.d	fa4,fa4
 242:	00e52e27          	fsw	fa4,28(a0)
 246:	0207a687          	flw	fa3,32(a5)
 24a:	01c7a707          	flw	fa4,28(a5)
 24e:	0247a587          	flw	fa1,36(a5)
 252:	0347a607          	flw	fa2,52(a5)
 256:	00d77753          	fadd.s	fa4,fa4,fa3
 25a:	00c7a687          	flw	fa3,12(a5)
 25e:	00b77753          	fadd.s	fa4,fa4,fa1
 262:	00c77753          	fadd.s	fa4,fa4,fa2
 266:	00d77753          	fadd.s	fa4,fa4,fa3
 26a:	42070753          	fcvt.d.s	fa4,fa4
 26e:	12f77753          	fmul.d	fa4,fa4,fa5
 272:	40177753          	fcvt.s.d	fa4,fa4
 276:	02e52027          	fsw	fa4,32(a0)
 27a:	02c7a687          	flw	fa3,44(a5)
 27e:	0287a707          	flw	fa4,40(a5)
 282:	0307a587          	flw	fa1,48(a5)
 286:	0407a607          	flw	fa2,64(a5)
 28a:	00d77753          	fadd.s	fa4,fa4,fa3
 28e:	0187a687          	flw	fa3,24(a5)
 292:	00b77753          	fadd.s	fa4,fa4,fa1
 296:	00c77753          	fadd.s	fa4,fa4,fa2
 29a:	00d77753          	fadd.s	fa4,fa4,fa3
 29e:	42070753          	fcvt.d.s	fa4,fa4
 2a2:	12f77753          	fmul.d	fa4,fa4,fa5
 2a6:	40177753          	fcvt.s.d	fa4,fa4
 2aa:	02e52627          	fsw	fa4,44(a0)
 2ae:	0307a687          	flw	fa3,48(a5)
 2b2:	02c7a707          	flw	fa4,44(a5)
 2b6:	0347a587          	flw	fa1,52(a5)
 2ba:	0447a607          	flw	fa2,68(a5)
 2be:	00d77753          	fadd.s	fa4,fa4,fa3
 2c2:	01c7a687          	flw	fa3,28(a5)
 2c6:	00b77753          	fadd.s	fa4,fa4,fa1
 2ca:	00c77753          	fadd.s	fa4,fa4,fa2
 2ce:	00d77753          	fadd.s	fa4,fa4,fa3
 2d2:	42070753          	fcvt.d.s	fa4,fa4
 2d6:	12f77753          	fmul.d	fa4,fa4,fa5
 2da:	40177753          	fcvt.s.d	fa4,fa4
 2de:	02e52827          	fsw	fa4,48(a0)
 2e2:	0307a687          	flw	fa3,48(a5)
 2e6:	0347a707          	flw	fa4,52(a5)
 2ea:	0387a587          	flw	fa1,56(a5)
 2ee:	0487a607          	flw	fa2,72(a5)
 2f2:	00d77753          	fadd.s	fa4,fa4,fa3
 2f6:	0207a687          	flw	fa3,32(a5)
 2fa:	00b77753          	fadd.s	fa4,fa4,fa1
 2fe:	00c77753          	fadd.s	fa4,fa4,fa2
 302:	00d77753          	fadd.s	fa4,fa4,fa3
 306:	42070753          	fcvt.d.s	fa4,fa4
 30a:	12f77753          	fmul.d	fa4,fa4,fa5
 30e:	40177753          	fcvt.s.d	fa4,fa4
 312:	02e52a27          	fsw	fa4,52(a0)
 316:	03c7a687          	flw	fa3,60(a5)
 31a:	0407a707          	flw	fa4,64(a5)
 31e:	0447a587          	flw	fa1,68(a5)
 322:	0547a607          	flw	fa2,84(a5)
 326:	00d77753          	fadd.s	fa4,fa4,fa3
 32a:	02c7a687          	flw	fa3,44(a5)
 32e:	00b77753          	fadd.s	fa4,fa4,fa1
 332:	00c77753          	fadd.s	fa4,fa4,fa2
 336:	00d77753          	fadd.s	fa4,fa4,fa3
 33a:	42070753          	fcvt.d.s	fa4,fa4
 33e:	12f77753          	fmul.d	fa4,fa4,fa5
 342:	40177753          	fcvt.s.d	fa4,fa4
 346:	04e52027          	fsw	fa4,64(a0)
 34a:	0407a687          	flw	fa3,64(a5)
 34e:	0447a707          	flw	fa4,68(a5)
 352:	0487a587          	flw	fa1,72(a5)
 356:	0587a607          	flw	fa2,88(a5)
 35a:	00d77753          	fadd.s	fa4,fa4,fa3
 35e:	0307a687          	flw	fa3,48(a5)
 362:	00b77753          	fadd.s	fa4,fa4,fa1
 366:	00c77753          	fadd.s	fa4,fa4,fa2
 36a:	00d77753          	fadd.s	fa4,fa4,fa3
 36e:	42070753          	fcvt.d.s	fa4,fa4
 372:	12f77753          	fmul.d	fa4,fa4,fa5
 376:	40177753          	fcvt.s.d	fa4,fa4
 37a:	04e52227          	fsw	fa4,68(a0)
 37e:	0447a687          	flw	fa3,68(a5)
 382:	0487a707          	flw	fa4,72(a5)
 386:	04c7a587          	flw	fa1,76(a5)
 38a:	05c7a607          	flw	fa2,92(a5)
 38e:	00d77753          	fadd.s	fa4,fa4,fa3
 392:	0347a687          	flw	fa3,52(a5)
 396:	00b77753          	fadd.s	fa4,fa4,fa1
 39a:	00c77753          	fadd.s	fa4,fa4,fa2
 39e:	00d77753          	fadd.s	fa4,fa4,fa3
 3a2:	42070753          	fcvt.d.s	fa4,fa4
 3a6:	12f777d3          	fmul.d	fa5,fa4,fa5
 3aa:	4017f7d3          	fcvt.s.d	fa5,fa5
 3ae:	04f52427          	fsw	fa5,72(a0)
 3b2:	c02027f3          	rdinstret	a5
 3b6:	00000537          	lui	a0,0x0
 3ba:	00000737          	lui	a4,0x0
 3be:	863e                	mv	a2,a5
 3c0:	00050513          	mv	a0,a0
 3c4:	00f73023          	sd	a5,0(a4) # 0 <core>
 3c8:	00000317          	auipc	t1,0x0
 3cc:	00030067          	jr	t1 # 3c8 <core+0x3c8>
