
kernel.o:     file format elf64-littleriscv


Disassembly of section .text:

0000000000000000 <core>:
   0:	711d                	addi	sp,sp,-96
   2:	eca2                	sd	s0,88(sp)
   4:	e8a6                	sd	s1,80(sp)
   6:	e4ca                	sd	s2,72(sp)
   8:	e0ce                	sd	s3,64(sp)
   a:	fc52                	sd	s4,56(sp)
   c:	f856                	sd	s5,48(sp)
   e:	f45a                	sd	s6,40(sp)
  10:	f05e                	sd	s7,32(sp)
  12:	ec62                	sd	s8,24(sp)
  14:	e866                	sd	s9,16(sp)
  16:	e46a                	sd	s10,8(sp)
  18:	e06e                	sd	s11,0(sp)
  1a:	c0202ef3          	rdinstret	t4
  1e:	00369813          	slli	a6,a3,0x3
  22:	00469793          	slli	a5,a3,0x4
  26:	01050f33          	add	t5,a0,a6
  2a:	00880893          	addi	a7,a6,8
  2e:	01080313          	addi	t1,a6,16
  32:	00878e13          	addi	t3,a5,8
  36:	00000fb7          	lui	t6,0x0
  3a:	07c1                	addi	a5,a5,16
  3c:	01dfb023          	sd	t4,0(t6) # 0 <core>
  40:	010f03b3          	add	t2,t5,a6
  44:	00850f93          	addi	t6,a0,8
  48:	982e                	add	a6,a6,a1
  4a:	01050293          	addi	t0,a0,16
  4e:	98aa                	add	a7,a7,a0
  50:	932a                	add	t1,t1,a0
  52:	9e2a                	add	t3,t3,a0
  54:	97aa                	add	a5,a5,a0
  56:	ffe6859b          	addiw	a1,a3,-2
  5a:	ffe7041b          	addiw	s0,a4,-2
  5e:	448d                	li	s1,3
  60:	4905                	li	s2,1
  62:	00063983          	ld	s3,0(a2)
  66:	00863a03          	ld	s4,8(a2)
  6a:	01063a83          	ld	s5,16(a2)
  6e:	01863b03          	ld	s6,24(a2)
  72:	02063b83          	ld	s7,32(a2)
  76:	02863c03          	ld	s8,40(a2)
  7a:	03063c83          	ld	s9,48(a2)
  7e:	03863d03          	ld	s10,56(a2)
  82:	04063d83          	ld	s11,64(a2)
  86:	7805708b          	ss.sta.ld.d.v	u1,a0
  8a:	6a80008b          	ss.app	u1,zero,s0,a3
  8e:	94b0008b          	ss.end	u1,zero,a1,s2
  92:	780ff10b          	ss.sta.ld.d.v	u2,t6
  96:	6a80010b          	ss.app	u2,zero,s0,a3
  9a:	94b0010b          	ss.end	u2,zero,a1,s2
  9e:	7802f18b          	ss.sta.ld.d.v	u3,t0
  a2:	6a80018b          	ss.app	u3,zero,s0,a3
  a6:	94b0018b          	ss.end	u3,zero,a1,s2
  aa:	780f720b          	ss.sta.ld.d.v	u4,t5
  ae:	6a80020b          	ss.app	u4,zero,s0,a3
  b2:	94b0020b          	ss.end	u4,zero,a1,s2
  b6:	7808f28b          	ss.sta.ld.d.v	u5,a7
  ba:	6a80028b          	ss.app	u5,zero,s0,a3
  be:	94b0028b          	ss.end	u5,zero,a1,s2
  c2:	7803730b          	ss.sta.ld.d.v	u6,t1
  c6:	6a80030b          	ss.app	u6,zero,s0,a3
  ca:	94b0030b          	ss.end	u6,zero,a1,s2
  ce:	7803f38b          	ss.sta.ld.d.v	u7,t2
  d2:	6a80038b          	ss.app	u7,zero,s0,a3
  d6:	94b0038b          	ss.end	u7,zero,a1,s2
  da:	780e740b          	ss.sta.ld.d.v	u8,t3
  de:	6a80040b          	ss.app	u8,zero,s0,a3
  e2:	94b0040b          	ss.end	u8,zero,a1,s2
  e6:	7807f48b          	ss.sta.ld.d.v	u9,a5
  ea:	6a80048b          	ss.app	u9,zero,s0,a3
  ee:	94b0048b          	ss.end	u9,zero,a1,s2
  f2:	ac09b52b          	so.v.dp.d	u10,s3,p0
  f6:	ac0a35ab          	so.v.dp.d	u11,s4,p0
  fa:	ac0ab62b          	so.v.dp.d	u12,s5,p0
  fe:	ac0b36ab          	so.v.dp.d	u13,s6,p0
 102:	ac0bb72b          	so.v.dp.d	u14,s7,p0
 106:	ac0c37ab          	so.v.dp.d	u15,s8,p0
 10a:	ac0cb82b          	so.v.dp.d	u16,s9,p0
 10e:	ac0d38ab          	so.v.dp.d	u17,s10,p0
 112:	ac0db92b          	so.v.dp.d	u18,s11,p0
 116:	7808300b          	ss.sta.st.d.v	u0,a6
 11a:	6a80000b          	ss.app	u0,zero,s0,a3
 11e:	94b9000b          	ss.end	u0,s2,a1,s2

0000000000000122 <.loop_y58>:
 122:	109519ab          	so.a.mul.fp	u19,u10,u9,p0
 126:	10859a2b          	so.a.mul.fp	u20,u11,u8,p0
 12a:	10761aab          	so.a.mul.fp	u21,u12,u7,p0
 12e:	10669b2b          	so.a.mul.fp	u22,u13,u6,p0
 132:	10571bab          	so.a.mul.fp	u23,u14,u5,p0
 136:	10479c2b          	so.a.mul.fp	u24,u15,u4,p0
 13a:	10381cab          	so.a.mul.fp	u25,u16,u3,p0
 13e:	10289d2b          	so.a.mul.fp	u26,u17,u2,p0
 142:	10191dab          	so.a.mul.fp	u27,u18,u1,p0
 146:	01499e2b          	so.a.add.fp	u28,u19,u20,p0
 14a:	016a9eab          	so.a.add.fp	u29,u21,u22,p0
 14e:	018b9f2b          	so.a.add.fp	u30,u23,u24,p0
 152:	01ac9fab          	so.a.add.fp	u31,u25,u26,p0
 156:	01ce9eab          	so.a.add.fp	u29,u29,u28,p0
 15a:	01ef9fab          	so.a.add.fp	u31,u31,u30,p0
 15e:	01df9fab          	so.a.add.fp	u31,u31,u29,p0
 162:	01bf902b          	so.a.add.fp	u0,u31,u27,p0
 166:	ff507eab          	so.b.nc	u0,122 <.loop_y58>
 16a:	c02027f3          	rdinstret	a5
 16e:	6466                	ld	s0,88(sp)
 170:	64c6                	ld	s1,80(sp)
 172:	6926                	ld	s2,72(sp)
 174:	6986                	ld	s3,64(sp)
 176:	7a62                	ld	s4,56(sp)
 178:	7ac2                	ld	s5,48(sp)
 17a:	7b22                	ld	s6,40(sp)
 17c:	7b82                	ld	s7,32(sp)
 17e:	6c62                	ld	s8,24(sp)
 180:	6cc2                	ld	s9,16(sp)
 182:	6d22                	ld	s10,8(sp)
 184:	6d82                	ld	s11,0(sp)
 186:	00000737          	lui	a4,0x0
 18a:	00000537          	lui	a0,0x0
 18e:	00f73023          	sd	a5,0(a4) # 0 <core>
 192:	863e                	mv	a2,a5
 194:	85f6                	mv	a1,t4
 196:	00050513          	mv	a0,a0
 19a:	6125                	addi	sp,sp,96
 19c:	00000317          	auipc	t1,0x0
 1a0:	00030067          	jr	t1 # 19c <.loop_y58+0x7a>
