
kernel.o:	file format elf64-littleriscv

Disassembly of section .text:

0000000000000000 <.text>:
       0: 01 00        	nop

0000000000000002 <core_kernel>:
       2: 1d 71        	addi	sp, sp, -96
       4: a2 ec        	sd	s0, 88(sp)
       6: a6 e8        	sd	s1, 80(sp)
       8: ca e4        	sd	s2, 72(sp)
       a: ce e0        	sd	s3, 64(sp)
       c: 52 fc        	sd	s4, 56(sp)
       e: 56 f8        	sd	s5, 48(sp)
      10: 5a f4        	sd	s6, 40(sp)
      12: 5e f0        	sd	s7, 32(sp)
      14: 62 ec        	sd	s8, 24(sp)
      16: 66 e8        	sd	s9, 16(sp)
      18: 6a e4        	sd	s10, 8(sp)
      1a: 73 28 20 c0  	rdinstret	a6
      1e: 63 80 06 00  	beqz	a3, 0x1e <core_kernel+0x1c>
      22: 81 48        	li	a7, 0
      24: 93 12 37 00  	slli	t0, a4, 3
      28: 93 04 f7 ff  	addi	s1, a4, -1
      2c: 33 33 90 00  	snez	t1, s1
      30: f3 23 20 c2  	csrr	t2, vlenb
      34: d7 74 00 0c  	vsetvli	s1, zero, e8, m1, ta, ma
      38: 57 34 00 5e  	vmv.v.i	v8, 0
      3c: 2a 8e        	mv	t3, a0
      3e: 01 a0        	j	0x3e <core_kernel+0x3c>

0000000000000040 <.LBB0_2>:
      40: 85 08        	addi	a7, a7, 1
      42: 3e 9e        	add	t3, t3, a5
      44: 63 80 d8 00  	beq	a7, a3, 0x44 <.LBB0_2+0x4>

0000000000000048 <.LBB0_3>:
      48: 01 c3        	beqz	a4, 0x48 <.LBB0_3>
      4a: 81 4e        	li	t4, 0
      4c: 33 8f e8 02  	mul	t5, a7, a4
      50: 93 0f 1f 00  	addi	t6, t5, 1
      54: b3 89 f8 02  	mul	s3, a7, a5
      58: 33 09 35 01  	add	s2, a0, s3
      5c: 33 04 f5 00  	add	s0, a0, a5
      60: a2 99        	add	s3, s3, s0
      62: ae 8a        	mv	s5, a1
      64: 01 a0        	j	0x64 <.LBB0_3+0x1c>

0000000000000066 <.LBB0_5>:
      66: 85 0e        	addi	t4, t4, 1
      68: 85 0a        	addi	s5, s5, 1
      6a: 63 80 ee 00  	beq	t4, a4, 0x6a <.LBB0_5+0x4>

000000000000006e <.LBB0_6>:
      6e: b3 0b df 01  	add	s7, t5, t4
      72: b2 9b        	add	s7, s7, a2
      74: 23 80 0b 00  	sb	zero, 0(s7)
      78: 81 c3        	beqz	a5, 0x78 <.LBB0_6+0xa>
      7a: c1 44        	li	s1, 16
      7c: 1e 84        	mv	s0, t2
      7e: 63 e0 74 00  	bltu	s1, t2, 0x7e <.LBB0_6+0x10>
      82: 41 44        	li	s0, 16

0000000000000084 <.LBB0_9>:
      84: 33 b4 87 00  	sltu	s0, a5, s0
      88: 33 64 64 00  	or	s0, s0, t1
      8c: 01 e0        	bnez	s0, 0x8c <.LBB0_9+0x8>
      8e: 33 84 df 01  	add	s0, t6, t4
      92: 32 94        	add	s0, s0, a2
      94: 33 8a d5 01  	add	s4, a1, t4
      98: b3 84 fe 00  	add	s1, t4, a5
      9c: 33 8b 95 00  	add	s6, a1, s1
      a0: 33 bc 3b 01  	sltu	s8, s7, s3
      a4: b3 34 89 00  	sltu	s1, s2, s0
      a8: 33 7c 9c 00  	and	s8, s8, s1
      ac: b3 b4 6b 01  	sltu	s1, s7, s6
      b0: 33 34 8a 00  	sltu	s0, s4, s0
      b4: 65 8c        	and	s0, s0, s1
      b6: 33 64 8c 00  	or	s0, s8, s0
      ba: 01 c0        	beqz	s0, 0xba <.LBB0_9+0x36>

00000000000000bc <.LBB0_11>:
      bc: 01 4a        	li	s4, 0
      be: 01 4b        	li	s6, 0

00000000000000c0 <.LBB0_12>:
      c0: 33 0c 47 03  	mul	s8, a4, s4
      c4: 56 9c        	add	s8, s8, s5
      c6: b3 0c 4e 01  	add	s9, t3, s4
      ca: b3 84 47 41  	sub	s1, a5, s4

00000000000000ce <.LBB0_13>:
      ce: 03 8a 0c 00  	lb	s4, 0(s9)
      d2: 03 04 0c 00  	lb	s0, 0(s8)
      d6: 33 04 44 03  	mul	s0, s0, s4
      da: 22 9b        	add	s6, s6, s0
      dc: 23 80 6b 01  	sb	s6, 0(s7)
      e0: 3a 9c        	add	s8, s8, a4
      e2: fd 14        	addi	s1, s1, -1
      e4: 85 0c        	addi	s9, s9, 1
      e6: 81 e0        	bnez	s1, 0xe6 <.LBB0_13+0x18>
      e8: 01 a0        	j	0xe8 <.LBB0_13+0x1a>

00000000000000ea <.LBB0_14>:
      ea: f3 2c 20 c2  	csrr	s9, vlenb
      ee: 13 d4 3c 00  	srli	s0, s9, 3
      f2: 93 84 fc ff  	addi	s1, s9, -1
      f6: 33 fb 97 00  	and	s6, a5, s1
      fa: 33 8a 67 41  	sub	s4, a5, s6
      fe: 33 8c 82 02  	mul	s8, t0, s0
     102: 57 74 00 0c  	vsetvli	s0, zero, e8, m1, ta, ma
     106: 52 8d        	mv	s10, s4
     108: 56 84        	mv	s0, s5
     10a: f2 84        	mv	s1, t3
     10c: d7 34 80 9e  	vmv1r.v	v9, v8

0000000000000110 <.LBB0_15>:
     110: 07 85 84 02  	vl1r.v	v10, (s1)
     114: 87 05 84 02  	vl1r.v	v11, (s0)
     118: d7 a4 a5 b6  	vmacc.vv	v9, v11, v10
     11c: e6 94        	add	s1, s1, s9
     11e: 33 0d 9d 41  	sub	s10, s10, s9
     122: 62 94        	add	s0, s0, s8
     124: 63 10 0d 00  	bnez	s10, 0x124 <.LBB0_15+0x14>
     128: 57 65 00 42  	vmv.s.x	v10, zero
     12c: d7 24 95 02  	vredsum.vs	v9, v9, v10
     130: 57 f0 00 cc  	vsetivli	zero, 1, e8, m1, ta, ma
     134: a7 84 0b 02  	vse8.v	v9, (s7)
     138: 63 00 0b 00  	beqz	s6, 0x138 <.LBB0_15+0x28>
     13c: 57 2b 90 42  	vmv.x.s	s6, v9
     140: 01 a0        	j	0x140 <.LBB0_15+0x30>

0000000000000142 <.LBB0_18>:
     142: 73 25 20 c0  	rdinstret	a0
     146: 33 05 05 41  	sub	a0, a0, a6
     14a: 66 64        	ld	s0, 88(sp)
     14c: c6 64        	ld	s1, 80(sp)
     14e: 26 69        	ld	s2, 72(sp)
     150: 86 69        	ld	s3, 64(sp)
     152: 62 7a        	ld	s4, 56(sp)
     154: c2 7a        	ld	s5, 48(sp)
     156: 22 7b        	ld	s6, 40(sp)
     158: 82 7b        	ld	s7, 32(sp)
     15a: 62 6c        	ld	s8, 24(sp)
     15c: c2 6c        	ld	s9, 16(sp)
     15e: 22 6d        	ld	s10, 8(sp)
     160: 25 61        	addi	sp, sp, 96
     162: 82 80        	ret

0000000000000164 <core>:
     164: 71 71        	addi	sp, sp, -176
     166: 06 f5        	sd	ra, 168(sp)
     168: 22 f1        	sd	s0, 160(sp)
     16a: 26 ed        	sd	s1, 152(sp)
     16c: 4a e9        	sd	s2, 144(sp)
     16e: 4e e5        	sd	s3, 136(sp)
     170: 52 e1        	sd	s4, 128(sp)
     172: d6 fc        	sd	s5, 120(sp)
     174: da f8        	sd	s6, 112(sp)
     176: de f4        	sd	s7, 104(sp)
     178: e2 f0        	sd	s8, 96(sp)
     17a: e6 ec        	sd	s9, 88(sp)
     17c: ea e8        	sd	s10, 80(sp)
     17e: ee e4        	sd	s11, 72(sp)
     180: 2e 6e        	ld	t3, 200(sp)
     182: 8e 6f        	ld	t6, 192(sp)
     184: 4a 73        	ld	t1, 176(sp)
     186: 36 89        	mv	s2, a3
     188: 32 f8        	sd	a2, 48(sp)
     18a: 2a f4        	sd	a0, 40(sp)
     18c: 73 25 20 c0  	rdinstret	a0
     190: 2a ec        	sd	a0, 24(sp)
     192: 46 fc        	sd	a7, 56(sp)
     194: 63 80 08 00  	beqz	a7, 0x194 <core+0x30>
     198: 81 4e        	li	t4, 0
     19a: 6a 7f        	ld	t5, 184(sp)
     19c: f3 22 20 c2  	csrr	t0, vlenb
     1a0: 57 75 00 0c  	vsetvli	a0, zero, e8, m1, ta, ma
     1a4: 57 34 00 5e  	vmv.v.i	v8, 0
     1a8: 13 15 33 00  	slli	a0, t1, 3
     1ac: aa e0        	sd	a0, 64(sp)
     1ae: a2 78        	ld	a7, 40(sp)
     1b0: 01 a0        	j	0x1b0 <core+0x4c>

00000000000001b2 <.LBB1_2>:
     1b2: 85 0e        	addi	t4, t4, 1
     1b4: fa 98        	add	a7, a7, t5
     1b6: 62 75        	ld	a0, 56(sp)
     1b8: 63 80 ae 00  	beq	t4, a0, 0x1b8 <.LBB1_2+0x6>

00000000000001bc <.LBB1_3>:
     1bc: 63 00 03 00  	beqz	t1, 0x1bc <.LBB1_3>
     1c0: 01 4d        	li	s10, 0
     1c2: b3 8b 6e 02  	mul	s7, t4, t1
     1c6: 13 8a 1b 00  	addi	s4, s7, 1
     1ca: 33 86 ee 03  	mul	a2, t4, t5
     1ce: 22 7b        	ld	s6, 40(sp)
     1d0: b3 0a cb 00  	add	s5, s6, a2
     1d4: 7a 96        	add	a2, a2, t5
     1d6: 32 9b        	add	s6, s6, a2
     1d8: 2e 8c        	mv	s8, a1
     1da: 01 a0        	j	0x1da <.LBB1_3+0x1e>

00000000000001dc <.LBB1_5>:
     1dc: 05 0d        	addi	s10, s10, 1
     1de: 05 0c        	addi	s8, s8, 1
     1e0: 63 00 6d 00  	beq	s10, t1, 0x1e0 <.LBB1_5+0x4>

00000000000001e4 <.LBB1_6>:
     1e4: b3 8d ab 01  	add	s11, s7, s10
     1e8: ba 9d        	add	s11, s11, a4
     1ea: 23 80 0d 00  	sb	zero, 0(s11)
     1ee: 63 00 0f 00  	beqz	t5, 0x1ee <.LBB1_6+0xa>
     1f2: c1 44        	li	s1, 16
     1f4: 16 86        	mv	a2, t0
     1f6: 63 e0 54 00  	bltu	s1, t0, 0x1f6 <.LBB1_6+0x12>
     1fa: 41 46        	li	a2, 16

00000000000001fc <.LBB1_9>:
     1fc: 93 04 f3 ff  	addi	s1, t1, -1
     200: b3 34 90 00  	snez	s1, s1
     204: 33 36 cf 00  	sltu	a2, t5, a2
     208: 45 8e        	or	a2, a2, s1
     20a: 01 e2        	bnez	a2, 0x20a <.LBB1_9+0xe>
     20c: 33 06 aa 01  	add	a2, s4, s10
     210: 3a 96        	add	a2, a2, a4
     212: b3 84 a5 01  	add	s1, a1, s10
     216: 33 04 ed 01  	add	s0, s10, t5
     21a: 2e 94        	add	s0, s0, a1
     21c: b3 b6 6d 01  	sltu	a3, s11, s6
     220: 33 b5 ca 00  	sltu	a0, s5, a2
     224: 75 8d        	and	a0, a0, a3
     226: b3 b6 8d 00  	sltu	a3, s11, s0
     22a: 33 b6 c4 00  	sltu	a2, s1, a2
     22e: 75 8e        	and	a2, a2, a3
     230: 51 8d        	or	a0, a0, a2
     232: 01 c1        	beqz	a0, 0x232 <.LBB1_9+0x36>

0000000000000234 <.LBB1_11>:
     234: 81 4c        	li	s9, 0
     236: 81 43        	li	t2, 0

0000000000000238 <.LBB1_12>:
     238: b3 04 9f 41  	sub	s1, t5, s9
     23c: 33 04 93 03  	mul	s0, t1, s9
     240: 62 94        	add	s0, s0, s8
     242: c6 9c        	add	s9, s9, a7

0000000000000244 <.LBB1_13>:
     244: 03 85 0c 00  	lb	a0, 0(s9)
     248: 03 06 04 00  	lb	a2, 0(s0)
     24c: 33 05 a6 02  	mul	a0, a2, a0
     250: aa 93        	add	t2, t2, a0
     252: 23 80 7d 00  	sb	t2, 0(s11)
     256: fd 14        	addi	s1, s1, -1
     258: 1a 94        	add	s0, s0, t1
     25a: 85 0c        	addi	s9, s9, 1
     25c: 81 e0        	bnez	s1, 0x25c <.LBB1_13+0x18>
     25e: 01 a0        	j	0x25e <.LBB1_13+0x1a>

0000000000000260 <.LBB1_14>:
     260: 73 24 20 c2  	csrr	s0, vlenb
     264: 13 55 34 00  	srli	a0, s0, 3
     268: 13 06 f4 ff  	addi	a2, s0, -1
     26c: b3 73 cf 00  	and	t2, t5, a2
     270: b3 0c 7f 40  	sub	s9, t5, t2
     274: 06 66        	ld	a2, 64(sp)
     276: b3 00 a6 02  	mul	ra, a2, a0
     27a: 57 75 00 0c  	vsetvli	a0, zero, e8, m1, ta, ma
     27e: 66 86        	mv	a2, s9
     280: e2 84        	mv	s1, s8
     282: c6 89        	mv	s3, a7
     284: d7 34 80 9e  	vmv1r.v	v9, v8

0000000000000288 <.LBB1_15>:
     288: 07 85 89 02  	vl1r.v	v10, (s3)
     28c: 87 85 84 02  	vl1r.v	v11, (s1)
     290: d7 a4 a5 b6  	vmacc.vv	v9, v11, v10
     294: a2 99        	add	s3, s3, s0
     296: 01 8e        	sub	a2, a2, s0
     298: 86 94        	add	s1, s1, ra
     29a: 01 e2        	bnez	a2, 0x29a <.LBB1_15+0x12>
     29c: 57 65 00 42  	vmv.s.x	v10, zero
     2a0: d7 24 95 02  	vredsum.vs	v9, v9, v10
     2a4: 57 f0 00 cc  	vsetivli	zero, 1, e8, m1, ta, ma
     2a8: a7 84 0d 02  	vse8.v	v9, (s11)
     2ac: 63 80 03 00  	beqz	t2, 0x2ac <.LBB1_15+0x24>
     2b0: d7 23 90 42  	vmv.x.s	t2, v9
     2b4: 01 a0        	j	0x2b4 <.LBB1_15+0x2c>

00000000000002b6 <.LBB1_18>:
     2b6: 73 25 20 c0  	rdinstret	a0
     2ba: 2a e8        	sd	a0, 16(sp)
     2bc: 73 25 20 c0  	rdinstret	a0
     2c0: 2a e4        	sd	a0, 8(sp)
     2c2: 13 95 3f 00  	slli	a0, t6, 3
     2c6: 2a f4        	sd	a0, 40(sp)
     2c8: 13 85 ff ff  	addi	a0, t6, -1
     2cc: 2a f0        	sd	a0, 32(sp)
     2ce: 63 00 03 00  	beqz	t1, 0x2ce <.LBB1_18+0x18>
     2d2: 81 4a        	li	s5, 0
     2d4: 02 75        	ld	a0, 32(sp)
     2d6: 33 3b a0 00  	snez	s6, a0
     2da: f3 26 20 c2  	csrr	a3, vlenb
     2de: 13 d5 36 00  	srli	a0, a3, 3
     2e2: 93 85 f6 ff  	addi	a1, a3, -1
     2e6: b3 75 be 00  	and	a1, t3, a1
     2ea: ae e0        	sd	a1, 64(sp)
     2ec: 33 0a be 40  	sub	s4, t3, a1
     2f0: a2 75        	ld	a1, 40(sp)
     2f2: b3 80 a5 02  	mul	ra, a1, a0
     2f6: 57 75 00 0c  	vsetvli	a0, zero, e8, m1, ta, ma
     2fa: 57 34 00 5e  	vmv.v.i	v8, 0
     2fe: 42 7f        	ld	t5, 48(sp)
     300: 01 a0        	j	0x300 <.LBB1_18+0x4a>

0000000000000302 <.LBB1_20>:
     302: 85 0a        	addi	s5, s5, 1
     304: 72 9f        	add	t5, t5, t3
     306: 63 80 6a 00  	beq	s5, t1, 0x306 <.LBB1_20+0x4>

000000000000030a <.LBB1_21>:
     30a: 63 80 0f 00  	beqz	t6, 0x30a <.LBB1_21>
     30e: 81 49        	li	s3, 0
     310: b3 8d fa 03  	mul	s11, s5, t6
     314: 13 8c 1d 00  	addi	s8, s11, 1
     318: 33 85 ca 03  	mul	a0, s5, t3
     31c: 42 7d        	ld	s10, 48(sp)
     31e: b3 0c ad 00  	add	s9, s10, a0
     322: 72 95        	add	a0, a0, t3
     324: 2a 9d        	add	s10, s10, a0
     326: ca 88        	mv	a7, s2
     328: 01 a0        	j	0x328 <.LBB1_21+0x1e>

000000000000032a <.LBB1_23>:
     32a: 85 09        	addi	s3, s3, 1
     32c: 85 08        	addi	a7, a7, 1
     32e: 63 80 f9 01  	beq	s3, t6, 0x32e <.LBB1_23+0x4>

0000000000000332 <.LBB1_24>:
     332: b3 85 3d 01  	add	a1, s11, s3
     336: be 95        	add	a1, a1, a5
     338: 23 80 05 00  	sb	zero, 0(a1)
     33c: 63 00 0e 00  	beqz	t3, 0x33c <.LBB1_24+0xa>
     340: 41 46        	li	a2, 16
     342: 36 85        	mv	a0, a3
     344: 63 60 d6 00  	bltu	a2, a3, 0x344 <.LBB1_24+0x12>
     348: 41 45        	li	a0, 16

000000000000034a <.LBB1_27>:
     34a: 33 35 ae 00  	sltu	a0, t3, a0
     34e: 33 65 65 01  	or	a0, a0, s6
     352: 01 e1        	bnez	a0, 0x352 <.LBB1_27+0x8>
     354: 33 05 3c 01  	add	a0, s8, s3
     358: 3e 95        	add	a0, a0, a5
     35a: b3 02 39 01  	add	t0, s2, s3
     35e: 33 84 c9 01  	add	s0, s3, t3
     362: 4a 94        	add	s0, s0, s2
     364: b3 b4 a5 01  	sltu	s1, a1, s10
     368: 33 b6 ac 00  	sltu	a2, s9, a0
     36c: 65 8e        	and	a2, a2, s1
     36e: b3 b4 85 00  	sltu	s1, a1, s0
     372: 33 b5 a2 00  	sltu	a0, t0, a0
     376: 65 8d        	and	a0, a0, s1
     378: 51 8d        	or	a0, a0, a2
     37a: 01 c1        	beqz	a0, 0x37a <.LBB1_27+0x30>

000000000000037c <.LBB1_29>:
     37c: 81 4b        	li	s7, 0
     37e: 81 43        	li	t2, 0

0000000000000380 <.LBB1_30>:
     380: b3 0e 7e 41  	sub	t4, t3, s7
     384: b3 82 7f 03  	mul	t0, t6, s7
     388: c6 92        	add	t0, t0, a7
     38a: fa 9b        	add	s7, s7, t5

000000000000038c <.LBB1_31>:
     38c: 03 85 0b 00  	lb	a0, 0(s7)
     390: 03 86 02 00  	lb	a2, 0(t0)
     394: 33 05 a6 02  	mul	a0, a2, a0
     398: aa 93        	add	t2, t2, a0
     39a: 23 80 75 00  	sb	t2, 0(a1)
     39e: fd 1e        	addi	t4, t4, -1
     3a0: fe 92        	add	t0, t0, t6
     3a2: 85 0b        	addi	s7, s7, 1
     3a4: 63 90 0e 00  	bnez	t4, 0x3a4 <.LBB1_31+0x18>
     3a8: 01 a0        	j	0x3a8 <.LBB1_31+0x1c>

00000000000003aa <.LBB1_32>:
     3aa: 57 75 00 0c  	vsetvli	a0, zero, e8, m1, ta, ma
     3ae: 52 86        	mv	a2, s4
     3b0: c6 84        	mv	s1, a7
     3b2: 7a 85        	mv	a0, t5
     3b4: d7 34 80 9e  	vmv1r.v	v9, v8

00000000000003b8 <.LBB1_33>:
     3b8: 07 05 85 02  	vl1r.v	v10, (a0)
     3bc: 87 85 84 02  	vl1r.v	v11, (s1)
     3c0: d7 a4 a5 b6  	vmacc.vv	v9, v11, v10
     3c4: 36 95        	add	a0, a0, a3
     3c6: 15 8e        	sub	a2, a2, a3
     3c8: 86 94        	add	s1, s1, ra
     3ca: 01 e2        	bnez	a2, 0x3ca <.LBB1_33+0x12>
     3cc: 57 65 00 42  	vmv.s.x	v10, zero
     3d0: d7 24 95 02  	vredsum.vs	v9, v9, v10
     3d4: 57 f0 00 cc  	vsetivli	zero, 1, e8, m1, ta, ma
     3d8: a7 84 05 02  	vse8.v	v9, (a1)
     3dc: 06 65        	ld	a0, 64(sp)
     3de: 01 c1        	beqz	a0, 0x3de <.LBB1_33+0x26>
     3e0: d7 23 90 42  	vmv.x.s	t2, v9
     3e4: d2 8b        	mv	s7, s4
     3e6: 01 a0        	j	0x3e6 <.LBB1_33+0x2e>

00000000000003e8 <.LBB1_36>:
     3e8: 73 2e 20 c0  	rdinstret	t3
     3ec: f3 29 20 c0  	rdinstret	s3
     3f0: 62 75        	ld	a0, 56(sp)
     3f2: 63 00 05 00  	beqz	a0, 0x3f2 <.LBB1_36+0xa>
     3f6: 81 4a        	li	s5, 0
     3f8: 02 75        	ld	a0, 32(sp)
     3fa: 33 3c a0 00  	snez	s8, a0
     3fe: f3 2d 20 c2  	csrr	s11, vlenb
     402: 93 d5 3d 00  	srli	a1, s11, 3
     406: 13 86 fd ff  	addi	a2, s11, -1
     40a: 33 79 c3 00  	and	s2, t1, a2
     40e: 33 0a 23 41  	sub	s4, t1, s2
     412: 22 75        	ld	a0, 40(sp)
     414: b3 0e b5 02  	mul	t4, a0, a1
     418: d7 75 00 0c  	vsetvli	a1, zero, e8, m1, ta, ma
     41c: 57 34 00 5e  	vmv.v.i	v8, 0
     420: ba 8c        	mv	s9, a4
     422: 01 a0        	j	0x422 <.LBB1_36+0x3a>

0000000000000424 <.LBB1_38>:
     424: 85 0a        	addi	s5, s5, 1
     426: 9a 9c        	add	s9, s9, t1
     428: 62 75        	ld	a0, 56(sp)
     42a: 63 80 aa 00  	beq	s5, a0, 0x42a <.LBB1_38+0x6>

000000000000042e <.LBB1_39>:
     42e: 63 80 0f 00  	beqz	t6, 0x42e <.LBB1_39>
     432: 01 4d        	li	s10, 0
     434: b3 83 fa 03  	mul	t2, s5, t6
     438: 93 82 13 00  	addi	t0, t2, 1
     43c: b3 85 6a 02  	mul	a1, s5, t1
     440: 33 0b b7 00  	add	s6, a4, a1
     444: 9a 95        	add	a1, a1, t1
     446: b3 0b b7 00  	add	s7, a4, a1
     44a: 3e 8f        	mv	t5, a5
     44c: 01 a0        	j	0x44c <.LBB1_39+0x1e>

000000000000044e <.LBB1_41>:
     44e: 05 0d        	addi	s10, s10, 1
     450: 05 0f        	addi	t5, t5, 1
     452: 63 00 fd 01  	beq	s10, t6, 0x452 <.LBB1_41+0x4>

0000000000000456 <.LBB1_42>:
     456: 33 84 a3 01  	add	s0, t2, s10
     45a: b3 00 88 00  	add	ra, a6, s0
     45e: 23 80 00 00  	sb	zero, 0(ra)
     462: 63 00 03 00  	beqz	t1, 0x462 <.LBB1_42+0xc>
     466: 41 46        	li	a2, 16
     468: ee 85        	mv	a1, s11
     46a: 63 60 b6 01  	bltu	a2, s11, 0x46a <.LBB1_42+0x14>
     46e: c1 45        	li	a1, 16

0000000000000470 <.LBB1_45>:
     470: b3 35 b3 00  	sltu	a1, t1, a1
     474: b3 e5 85 01  	or	a1, a1, s8
     478: 81 e1        	bnez	a1, 0x478 <.LBB1_45+0x8>
     47a: b3 85 a2 01  	add	a1, t0, s10
     47e: c2 95        	add	a1, a1, a6
     480: b3 88 a7 01  	add	a7, a5, s10
     484: b3 06 6d 00  	add	a3, s10, t1
     488: be 96        	add	a3, a3, a5
     48a: b3 b4 70 01  	sltu	s1, ra, s7
     48e: 33 36 bb 00  	sltu	a2, s6, a1
     492: 65 8e        	and	a2, a2, s1
     494: b3 b6 d0 00  	sltu	a3, ra, a3
     498: b3 b5 b8 00  	sltu	a1, a7, a1
     49c: f5 8d        	and	a1, a1, a3
     49e: d1 8d        	or	a1, a1, a2
     4a0: 81 c1        	beqz	a1, 0x4a0 <.LBB1_45+0x30>

00000000000004a2 <.LBB1_47>:
     4a2: 01 46        	li	a2, 0
     4a4: 81 44        	li	s1, 0

00000000000004a6 <.LBB1_48>:
     4a6: b3 06 c3 40  	sub	a3, t1, a2
     4aa: b3 85 cf 02  	mul	a1, t6, a2
     4ae: fa 95        	add	a1, a1, t5
     4b0: 66 96        	add	a2, a2, s9

00000000000004b2 <.LBB1_49>:
     4b2: 03 05 06 00  	lb	a0, 0(a2)
     4b6: 03 84 05 00  	lb	s0, 0(a1)
     4ba: 33 05 a4 02  	mul	a0, s0, a0
     4be: aa 94        	add	s1, s1, a0
     4c0: 23 80 90 00  	sb	s1, 0(ra)
     4c4: fd 16        	addi	a3, a3, -1
     4c6: fe 95        	add	a1, a1, t6
     4c8: 05 06        	addi	a2, a2, 1
     4ca: 81 e2        	bnez	a3, 0x4ca <.LBB1_49+0x18>
     4cc: 01 a0        	j	0x4cc <.LBB1_49+0x1a>

00000000000004ce <.LBB1_50>:
     4ce: d7 75 00 0c  	vsetvli	a1, zero, e8, m1, ta, ma
     4d2: d2 85        	mv	a1, s4
     4d4: 7a 86        	mv	a2, t5
     4d6: e6 86        	mv	a3, s9
     4d8: d7 34 80 9e  	vmv1r.v	v9, v8

00000000000004dc <.LBB1_51>:
     4dc: 07 85 86 02  	vl1r.v	v10, (a3)
     4e0: 87 05 86 02  	vl1r.v	v11, (a2)
     4e4: d7 a4 a5 b6  	vmacc.vv	v9, v11, v10
     4e8: ee 96        	add	a3, a3, s11
     4ea: b3 85 b5 41  	sub	a1, a1, s11
     4ee: 76 96        	add	a2, a2, t4
     4f0: 81 e1        	bnez	a1, 0x4f0 <.LBB1_51+0x14>
     4f2: 57 65 00 42  	vmv.s.x	v10, zero
     4f6: d7 24 95 02  	vredsum.vs	v9, v9, v10
     4fa: 57 f0 00 cc  	vsetivli	zero, 1, e8, m1, ta, ma
     4fe: a7 84 00 02  	vse8.v	v9, (ra)
     502: 63 00 09 00  	beqz	s2, 0x502 <.LBB1_51+0x26>
     506: d7 24 90 42  	vmv.x.s	s1, v9
     50a: 52 86        	mv	a2, s4
     50c: 01 a0        	j	0x50c <.LBB1_51+0x30>

000000000000050e <.LBB1_54>:
     50e: 73 25 20 c0  	rdinstret	a0
     512: e2 65        	ld	a1, 24(sp)
     514: 22 66        	ld	a2, 8(sp)
     516: b2 95        	add	a1, a1, a2
     518: 42 66        	ld	a2, 16(sp)
     51a: 32 9e        	add	t3, t3, a2
     51c: ce 95        	add	a1, a1, s3
     51e: 72 95        	add	a0, a0, t3
     520: 33 06 b5 40  	sub	a2, a0, a1
     524: 37 05 00 00  	lui	a0, 0
     528: 13 05 05 00  	mv	a0, a0
     52c: 81 45        	li	a1, 0
     52e: aa 70        	ld	ra, 168(sp)
     530: 0a 74        	ld	s0, 160(sp)
     532: ea 64        	ld	s1, 152(sp)
     534: 4a 69        	ld	s2, 144(sp)
     536: aa 69        	ld	s3, 136(sp)
     538: 0a 6a        	ld	s4, 128(sp)
     53a: e6 7a        	ld	s5, 120(sp)
     53c: 46 7b        	ld	s6, 112(sp)
     53e: a6 7b        	ld	s7, 104(sp)
     540: 06 7c        	ld	s8, 96(sp)
     542: e6 6c        	ld	s9, 88(sp)
     544: 46 6d        	ld	s10, 80(sp)
     546: a6 6d        	ld	s11, 72(sp)
     548: 4d 61        	addi	sp, sp, 176
     54a: 17 03 00 00  	auipc	t1, 0
     54e: 67 00 03 00  	jr	t1
