
kernel.o:     file format elf64-littleriscv


Disassembly of section .text:

0000000000000000 <core_kernel>:
   0:	ceb1                	beqz	a3,5c <.L1>
   2:	8faa                	mv	t6,a0
   4:	00e60f33          	add	t5,a2,a4
   8:	00f50e33          	add	t3,a0,a5
   c:	0006839b          	sext.w	t2,a3
  10:	4281                	li	t0,0

0000000000000012 <.L3>:
  12:	40ef0333          	sub	t1,t5,a4
  16:	8eae                	mv	t4,a1
  18:	cf05                	beqz	a4,50 <.L6>

000000000000001a <.L5>:
  1a:	00030023          	sb	zero,0(t1)
  1e:	8876                	mv	a6,t4
  20:	867e                	mv	a2,t6
  22:	4681                	li	a3,0
  24:	c395                	beqz	a5,48 <.L7>

0000000000000026 <.L4>:
  26:	00064503          	lbu	a0,0(a2)
  2a:	00084883          	lbu	a7,0(a6)
  2e:	0605                	addi	a2,a2,1
  30:	983a                	add	a6,a6,a4
  32:	0315053b          	mulw	a0,a0,a7
  36:	9ea9                	addw	a3,a3,a0
  38:	0186969b          	slliw	a3,a3,0x18
  3c:	4186d69b          	sraiw	a3,a3,0x18
  40:	00d30023          	sb	a3,0(t1)
  44:	ffc611e3          	bne	a2,t3,26 <.L4>

0000000000000048 <.L7>:
  48:	0305                	addi	t1,t1,1
  4a:	0e85                	addi	t4,t4,1
  4c:	fc6f17e3          	bne	t5,t1,1a <.L5>

0000000000000050 <.L6>:
  50:	2285                	addiw	t0,t0,1
  52:	9f3a                	add	t5,t5,a4
  54:	9fbe                	add	t6,t6,a5
  56:	9e3e                	add	t3,t3,a5
  58:	fa729de3          	bne	t0,t2,12 <.L3>

000000000000005c <.L1>:
  5c:	8082                	ret

000000000000005e <core>:
  5e:	711d                	addi	sp,sp,-96
  60:	e8a2                	sd	s0,80(sp)
  62:	e0ca                	sd	s2,64(sp)
  64:	fc4e                	sd	s3,56(sp)
  66:	f852                	sd	s4,48(sp)
  68:	f456                	sd	s5,40(sp)
  6a:	f05a                	sd	s6,32(sp)
  6c:	ec5e                	sd	s7,24(sp)
  6e:	e862                	sd	s8,16(sp)
  70:	e466                	sd	s9,8(sp)
  72:	ec86                	sd	ra,88(sp)
  74:	e4a6                	sd	s1,72(sp)
  76:	8bb2                	mv	s7,a2
  78:	8c36                	mv	s8,a3
  7a:	893a                	mv	s2,a4
  7c:	89be                	mv	s3,a5
  7e:	8b42                	mv	s6,a6
  80:	8a46                	mv	s4,a7
  82:	7406                	ld	s0,96(sp)
  84:	7ac6                	ld	s5,112(sp)
  86:	7ce6                	ld	s9,120(sp)
  88:	c0202873          	rdinstret	a6
  8c:	77a6                	ld	a5,104(sp)
  8e:	86c6                	mv	a3,a7
  90:	8722                	mv	a4,s0
  92:	864a                	mv	a2,s2
  94:	000004b7          	lui	s1,0x0
  98:	0104b023          	sd	a6,0(s1) # 0 <core_kernel>
  9c:	00000097          	auipc	ra,0x0
  a0:	000080e7          	jalr	ra # 9c <core+0x3e>
  a4:	87e6                	mv	a5,s9
  a6:	8756                	mv	a4,s5
  a8:	86a2                	mv	a3,s0
  aa:	864e                	mv	a2,s3
  ac:	85e2                	mv	a1,s8
  ae:	855e                	mv	a0,s7
  b0:	00000097          	auipc	ra,0x0
  b4:	000080e7          	jalr	ra # b0 <core+0x52>
  b8:	87a2                	mv	a5,s0
  ba:	8756                	mv	a4,s5
  bc:	86d2                	mv	a3,s4
  be:	865a                	mv	a2,s6
  c0:	85ce                	mv	a1,s3
  c2:	854a                	mv	a0,s2
  c4:	00000097          	auipc	ra,0x0
  c8:	000080e7          	jalr	ra # c4 <core+0x66>
  cc:	c02027f3          	rdinstret	a5
  d0:	6446                	ld	s0,80(sp)
  d2:	0004b583          	ld	a1,0(s1)
  d6:	60e6                	ld	ra,88(sp)
  d8:	64a6                	ld	s1,72(sp)
  da:	6906                	ld	s2,64(sp)
  dc:	79e2                	ld	s3,56(sp)
  de:	7a42                	ld	s4,48(sp)
  e0:	7aa2                	ld	s5,40(sp)
  e2:	7b02                	ld	s6,32(sp)
  e4:	6be2                	ld	s7,24(sp)
  e6:	6c42                	ld	s8,16(sp)
  e8:	6ca2                	ld	s9,8(sp)
  ea:	00000737          	lui	a4,0x0
  ee:	00000537          	lui	a0,0x0
  f2:	00f73023          	sd	a5,0(a4) # 0 <core_kernel>
  f6:	863e                	mv	a2,a5
  f8:	00050513          	mv	a0,a0
  fc:	6125                	addi	sp,sp,96
  fe:	00000317          	auipc	t1,0x0
 102:	00030067          	jr	t1 # fe <core+0xa0>
