
kernel.o:     file format elf64-littleriscv


Disassembly of section .text:

0000000000000000 <uve_kernel>:
   0:	4805                	li	a6,1
   2:	7cd5408b          	ss.sta.ld.b	u1,a0,a3,a5
   6:	00e0008b          	ss.app	u1,zero,a4,zero
   a:	82f0008b          	ss.end	u1,zero,a5,a6
   e:	0000108b          	ss.cfg.vec	u1
  12:	04d5c10b          	ss.sta.ld.b	u2,a1,a3,zero
  16:	80e0010b          	ss.app	u2,zero,a4,a6
  1a:	72f0010b          	ss.end	u2,zero,a5,a4
  1e:	0000110b          	ss.cfg.vec	u2
  22:	74d6020b          	ss.sta.st.b	u4,a2,a3,a4
  26:	82e0020b          	ss.end	u4,zero,a4,a6

000000000000002a <.iLoop112>:
  2a:	ac000aab          	so.v.dp.b	u21,zero,p0

000000000000002e <.kloop112>:
  2e:	1020ab2b          	so.a.mul.sg	u22,u1,u2,p0
  32:	016aaaab          	so.a.add.sg	u21,u21,u22,p0
  36:	ffe10cab          	so.b.ndc.1	u2,2e <.kloop112>
  3a:	200aa22b          	so.a.adde.sg	u4,u21,p0
  3e:	fff166ab          	so.b.nc	u2,2a <.iLoop112>
  42:	8082                	ret

0000000000000044 <core>:
  44:	8f2e                	mv	t5,a1
  46:	6302                	ld	t1,0(sp)
  48:	6ec2                	ld	t4,16(sp)
  4a:	c02025f3          	rdinstret	a1
  4e:	00000e37          	lui	t3,0x0
  52:	00be3023          	sd	a1,0(t3) # 0 <uve_kernel>
  56:	6fa2                	ld	t6,8(sp)
  58:	4e05                	li	t3,1
  5a:	fd15408b          	ss.sta.ld.b	u1,a0,a7,t6
  5e:	0060008b          	ss.app	u1,zero,t1,zero
  62:	e3f0008b          	ss.end	u1,zero,t6,t3
  66:	0000108b          	ss.cfg.vec	u1
  6a:	051f410b          	ss.sta.ld.b	u2,t5,a7,zero
  6e:	e060010b          	ss.app	u2,zero,t1,t3
  72:	33f0010b          	ss.end	u2,zero,t6,t1
  76:	0000110b          	ss.cfg.vec	u2
  7a:	3517020b          	ss.sta.st.b	u4,a4,a7,t1
  7e:	e260020b          	ss.end	u4,zero,t1,t3

0000000000000082 <.iLoop130>:
  82:	ac000aab          	so.v.dp.b	u21,zero,p0

0000000000000086 <.kloop130>:
  86:	1020ab2b          	so.a.mul.sg	u22,u1,u2,p0
  8a:	016aaaab          	so.a.add.sg	u21,u21,u22,p0
  8e:	ffe10cab          	so.b.ndc.1	u2,86 <.kloop130>
  92:	200aa22b          	so.a.adde.sg	u4,u21,p0
  96:	fff166ab          	so.b.nc	u2,82 <.iLoop130>
  9a:	6562                	ld	a0,24(sp)
  9c:	5466408b          	ss.sta.ld.b	u1,a2,t1,a0
  a0:	01d0008b          	ss.app	u1,zero,t4,zero
  a4:	e2a0008b          	ss.end	u1,zero,a0,t3
  a8:	0000108b          	ss.cfg.vec	u1
  ac:	0466c10b          	ss.sta.ld.b	u2,a3,t1,zero
  b0:	e1d0010b          	ss.app	u2,zero,t4,t3
  b4:	eaa0010b          	ss.end	u2,zero,a0,t4
  b8:	0000110b          	ss.cfg.vec	u2
  bc:	ec67820b          	ss.sta.st.b	u4,a5,t1,t4
  c0:	e3d0020b          	ss.end	u4,zero,t4,t3

00000000000000c4 <.iLoop132>:
  c4:	ac000aab          	so.v.dp.b	u21,zero,p0

00000000000000c8 <.kloop132>:
  c8:	1020ab2b          	so.a.mul.sg	u22,u1,u2,p0
  cc:	016aaaab          	so.a.add.sg	u21,u21,u22,p0
  d0:	ffe10cab          	so.b.ndc.1	u2,c8 <.kloop132>
  d4:	200aa22b          	so.a.adde.sg	u4,u21,p0
  d8:	fff166ab          	so.b.nc	u2,c4 <.iLoop132>
  dc:	3517408b          	ss.sta.ld.b	u1,a4,a7,t1
  e0:	01d0008b          	ss.app	u1,zero,t4,zero
  e4:	e260008b          	ss.end	u1,zero,t1,t3
  e8:	0000108b          	ss.cfg.vec	u1
  ec:	0517c10b          	ss.sta.ld.b	u2,a5,a7,zero
  f0:	e1d0010b          	ss.app	u2,zero,t4,t3
  f4:	ea60010b          	ss.end	u2,zero,t1,t4
  f8:	0000110b          	ss.cfg.vec	u2
  fc:	ed18020b          	ss.sta.st.b	u4,a6,a7,t4
 100:	e3d0020b          	ss.end	u4,zero,t4,t3

0000000000000104 <.iLoop133>:
 104:	ac000aab          	so.v.dp.b	u21,zero,p0

0000000000000108 <.kloop133>:
 108:	1020ab2b          	so.a.mul.sg	u22,u1,u2,p0
 10c:	016aaaab          	so.a.add.sg	u21,u21,u22,p0
 110:	ffe10cab          	so.b.ndc.1	u2,108 <.kloop133>
 114:	200aa22b          	so.a.adde.sg	u4,u21,p0
 118:	fff166ab          	so.b.nc	u2,104 <.iLoop133>
 11c:	c02027f3          	rdinstret	a5
 120:	00000537          	lui	a0,0x0
 124:	00000737          	lui	a4,0x0
 128:	863e                	mv	a2,a5
 12a:	00050513          	mv	a0,a0
 12e:	00f73023          	sd	a5,0(a4) # 0 <uve_kernel>
 132:	00000317          	auipc	t1,0x0
 136:	00030067          	jr	t1 # 132 <.kloop133+0x2a>
