
kernel.o:     file format elf64-littleriscv


Disassembly of section .text:

0000000000000000 <core>:
   0:	4805                	li	a6,1
   2:	c02028f3          	rdinstret	a7
   6:	86d5408b          	ss.ld.b	u1,a0,a3,a6
   a:	0000108b          	ss.cfg.vec	u1
   e:	86d60f0b          	ss.st.b	u30,a2,a3,a6
  12:	00001f0b          	ss.cfg.vec	u30

0000000000000016 <.loop111>:
  16:	a8008f2b          	so.v.mv	u30,u1,p0
  1a:	fff0eeab          	so.b.nc	u1,16 <.loop111>
  1e:	86d6408b          	ss.ld.b	u1,a2,a3,a6
  22:	0000108b          	ss.cfg.vec	u1
  26:	86d58f0b          	ss.st.b	u30,a1,a3,a6
  2a:	00001f0b          	ss.cfg.vec	u30
  2e:	ac07052b          	so.v.dp.b	u10,a4,p0

0000000000000032 <.loop211>:
  32:	10a0af2b          	so.a.mul.sg	u30,u1,u10,p0
  36:	fff0eeab          	so.b.nc	u1,32 <.loop211>
  3a:	86d5408b          	ss.ld.b	u1,a0,a3,a6
  3e:	0000108b          	ss.cfg.vec	u1
  42:	86d5c10b          	ss.ld.b	u2,a1,a3,a6
  46:	0000110b          	ss.cfg.vec	u2
  4a:	86d60f0b          	ss.st.b	u30,a2,a3,a6
  4e:	00001f0b          	ss.cfg.vec	u30

0000000000000052 <.loop311>:
  52:	0020af2b          	so.a.add.sg	u30,u1,u2,p0
  56:	fff0eeab          	so.b.nc	u1,52 <.loop311>
  5a:	86d5c08b          	ss.ld.b	u1,a1,a3,a6
  5e:	0000108b          	ss.cfg.vec	u1
  62:	86d6410b          	ss.ld.b	u2,a2,a3,a6
  66:	0000110b          	ss.cfg.vec	u2
  6a:	86d50f0b          	ss.st.b	u30,a0,a3,a6
  6e:	00001f0b          	ss.cfg.vec	u30
  72:	ac07052b          	so.v.dp.b	u10,a4,p0

0000000000000076 <.loop411>:
  76:	10a12a2b          	so.a.mul.sg	u20,u2,u10,p0
  7a:	0140af2b          	so.a.add.sg	u30,u1,u20,p0
  7e:	fff0ecab          	so.b.nc	u1,76 <.loop411>
  82:	c02027f3          	rdinstret	a5
  86:	00000537          	lui	a0,0x0
  8a:	000006b7          	lui	a3,0x0
  8e:	00000737          	lui	a4,0x0
  92:	863e                	mv	a2,a5
  94:	85c6                	mv	a1,a7
  96:	00050513          	mv	a0,a0
  9a:	0116b023          	sd	a7,0(a3) # 0 <core>
  9e:	00f73023          	sd	a5,0(a4) # 0 <core>
  a2:	00000317          	auipc	t1,0x0
  a6:	00030067          	jr	t1 # a2 <.loop411+0x2c>
