
kernel.o:	file format elf64-littleriscv

Disassembly of section .text:

0000000000000000 <.text>:
       0: 01 00        	nop

0000000000000002 <core>:
       2: 75 71        	addi	sp, sp, -144
       4: 06 e5        	sd	ra, 136(sp)
       6: 22 e1        	sd	s0, 128(sp)
       8: a6 fc        	sd	s1, 120(sp)
       a: ca f8        	sd	s2, 112(sp)
       c: ce f4        	sd	s3, 104(sp)
       e: d2 f0        	sd	s4, 96(sp)
      10: d6 ec        	sd	s5, 88(sp)
      12: da e8        	sd	s6, 80(sp)
      14: de e4        	sd	s7, 72(sp)
      16: e2 e0        	sd	s8, 64(sp)
      18: 66 fc        	sd	s9, 56(sp)
      1a: 6a f8        	sd	s10, 48(sp)
      1c: 6e f4        	sd	s11, 40(sp)
      1e: fd 57        	li	a5, -1
      20: 93 d2 27 00  	srli	t0, a5, 2
      24: f3 27 20 c0  	rdinstret	a5
      28: b7 04 00 00  	lui	s1, 0
      2c: 23 b0 f4 00  	sd	a5, 0(s1)
      30: 13 93 05 02  	slli	t1, a1, 32
      34: 93 17 35 00  	slli	a5, a0, 3
      38: 3e ec        	sd	a5, 24(sp)
      3a: 93 10 25 00  	slli	ra, a0, 2
      3e: f3 28 20 c2  	csrr	a7, vlenb
      42: 63 50 a0 00  	blez	a0, 0x42 <core+0x40>
      46: 01 49        	li	s2, 0
      48: b7 07 00 00  	lui	a5, 0
      4c: 07 a0 07 00  	flw	ft0, 0(a5)
      50: 93 5e 03 02  	srli	t4, t1, 32
      54: b3 87 5e 00  	add	a5, t4, t0
      58: b3 83 a7 02  	mul	t2, a5, a0
      5c: 53 70 a0 18  	fdiv.s	ft0, ft0, fa0
      60: d3 00 00 f0  	fmv.w.x	ft1, zero
      64: 13 de 28 00  	srli	t3, a7, 2
      68: d7 77 00 0d  	vsetvli	a5, zero, e32, m1, ta, ma
      6c: 57 34 00 5e  	vmv.v.i	v8, 0
      70: d7 64 00 42  	vmv.s.x	v9, zero
      74: 32 8f        	mv	t5, a2
      76: 01 a0        	j	0x76 <core+0x74>

0000000000000078 <.LBB0_2>:
      78: 53 71 01 10  	fmul.s	ft2, ft2, ft0
      7c: 27 20 24 00  	fsw	ft2, 0(s0)
      80: 05 09        	addi	s2, s2, 1
      82: 11 0f        	addi	t5, t5, 4
      84: 63 00 a9 00  	beq	s2, a0, 0x84 <.LBB0_2+0xc>

0000000000000088 <.LBB0_3>:
      88: 13 14 29 00  	slli	s0, s2, 2
      8c: b3 04 86 00  	add	s1, a2, s0
      90: b3 87 23 01  	add	a5, t2, s2
      94: 8a 07        	slli	a5, a5, 2
      96: b2 97        	add	a5, a5, a2
      98: a6 8f        	mv	t6, s1
      9a: 63 e0 f4 00  	bltu	s1, a5, 0x9a <.LBB0_3+0x12>
      9e: be 8f        	mv	t6, a5

00000000000000a0 <.LBB0_5>:
      a0: 63 e0 97 00  	bltu	a5, s1, 0xa0 <.LBB0_5>
      a4: be 84        	mv	s1, a5

00000000000000a6 <.LBB0_7>:
      a6: 3a 94        	add	s0, s0, a4
      a8: 23 20 04 00  	sw	zero, 0(s0)
      ac: 53 81 10 20  	fmv.s	ft2, ft1
      b0: 63 50 b0 00  	blez	a1, 0xb0 <.LBB0_7+0xa>
      b4: 11 48        	li	a6, 4
      b6: f2 87        	mv	a5, t3
      b8: 63 60 c8 01  	bltu	a6, t3, 0xb8 <.LBB0_7+0x12>
      bc: 91 47        	li	a5, 4

00000000000000be <.LBB0_10>:
      be: 63 e0 fe 00  	bltu	t4, a5, 0xbe <.LBB0_10>
      c2: 93 07 44 00  	addi	a5, s0, 4
      c6: 91 04        	addi	s1, s1, 4
      c8: b3 34 94 00  	sltu	s1, s0, s1
      cc: b3 b7 ff 00  	sltu	a5, t6, a5
      d0: e5 8f        	and	a5, a5, s1
      d2: 81 c3        	beqz	a5, 0xd2 <.LBB0_10+0x14>

00000000000000d4 <.LBB0_12>:
      d4: 81 4f        	li	t6, 0
      d6: 53 81 10 20  	fmv.s	ft2, ft1

00000000000000da <.LBB0_13>:
      da: b3 07 f5 03  	mul	a5, a0, t6
      de: ca 97        	add	a5, a5, s2
      e0: 8a 07        	slli	a5, a5, 2
      e2: b2 97        	add	a5, a5, a2
      e4: b3 84 fe 41  	sub	s1, t4, t6

00000000000000e8 <.LBB0_14>:
      e8: 87 a1 07 00  	flw	ft3, 0(a5)
      ec: 53 71 31 00  	fadd.s	ft2, ft2, ft3
      f0: 27 20 24 00  	fsw	ft2, 0(s0)
      f4: fd 14        	addi	s1, s1, -1
      f6: 86 97        	add	a5, a5, ra
      f8: 81 e0        	bnez	s1, 0xf8 <.LBB0_14+0x10>
      fa: 01 a0        	j	0xfa <.LBB0_14+0x12>

00000000000000fc <.LBB0_15>:
      fc: 93 d7 38 00  	srli	a5, a7, 3
     100: 93 d9 28 00  	srli	s3, a7, 2
     104: 93 84 f9 ff  	addi	s1, s3, -1
     108: 33 f8 9e 00  	and	a6, t4, s1
     10c: b3 8f 0e 41  	sub	t6, t4, a6
     110: 13 1a 25 00  	slli	s4, a0, 2
     114: e2 64        	ld	s1, 24(sp)
     116: b3 8a f4 02  	mul	s5, s1, a5
     11a: d7 77 00 0d  	vsetvli	a5, zero, e32, m1, ta, ma
     11e: fa 87        	mv	a5, t5
     120: fe 84        	mv	s1, t6
     122: 57 35 80 9e  	vmv1r.v	v10, v8

0000000000000126 <.LBB0_16>:
     126: 87 e5 47 0b  	vlse32.v	v11, (a5), s4
     12a: 57 95 a5 02  	vfadd.vv	v10, v10, v11
     12e: b3 84 34 41  	sub	s1, s1, s3
     132: d6 97        	add	a5, a5, s5
     134: 81 e0        	bnez	s1, 0x134 <.LBB0_16+0xe>
     136: 57 95 a4 06  	vfredusum.vs	v10, v10, v9
     13a: 57 11 a0 42  	vfmv.f.s	ft2, v10
     13e: 57 f0 00 cd  	vsetivli	zero, 1, e32, m1, ta, ma
     142: 27 65 04 02  	vse32.v	v10, (s0)
     146: 63 10 08 00  	bnez	a6, 0x146 <.LBB0_16+0x20>
     14a: 01 a0        	j	0x14a <.LBB0_16+0x24>

000000000000014c <.LBB0_18>:
     14c: 63 50 b0 00  	blez	a1, 0x14c <.LBB0_18>
     150: 01 4f        	li	t5, 0
     152: 01 4a        	li	s4, 0
     154: 93 17 05 02  	slli	a5, a0, 32
     158: 93 d3 07 02  	srli	t2, a5, 32
     15c: 13 de e7 01  	srli	t3, a5, 30
     160: b3 0e c7 01  	add	t4, a4, t3
     164: 13 d8 28 00  	srli	a6, a7, 2
     168: 93 07 f8 ff  	addi	a5, a6, -1
     16c: b3 ff f3 00  	and	t6, t2, a5
     170: 33 89 f3 41  	sub	s2, t2, t6
     174: b2 89        	mv	s3, a2
     176: 01 a0        	j	0x176 <.LBB0_18+0x2a>

0000000000000178 <.LBB0_20>:
     178: 05 0a        	addi	s4, s4, 1
     17a: 86 99        	add	s3, s3, ra
     17c: 2a 9f        	add	t5, t5, a0
     17e: 63 00 ba 00  	beq	s4, a1, 0x17e <.LBB0_20+0x6>

0000000000000182 <.LBB0_21>:
     182: 63 50 a0 00  	blez	a0, 0x182 <.LBB0_21>
     186: 11 44        	li	s0, 4
     188: c2 87        	mv	a5, a6
     18a: 63 60 04 01  	bltu	s0, a6, 0x18a <.LBB0_21+0x8>
     18e: 91 47        	li	a5, 4

0000000000000190 <.LBB0_24>:
     190: 63 e0 f3 00  	bltu	t2, a5, 0x190 <.LBB0_24>
     194: b3 87 40 03  	mul	a5, ra, s4
     198: 33 04 f6 00  	add	s0, a2, a5
     19c: f2 97        	add	a5, a5, t3
     19e: b2 97        	add	a5, a5, a2
     1a0: 33 34 d4 01  	sltu	s0, s0, t4
     1a4: b3 37 f7 00  	sltu	a5, a4, a5
     1a8: e1 8f        	and	a5, a5, s0
     1aa: 81 c3        	beqz	a5, 0x1aa <.LBB0_24+0x1a>

00000000000001ac <.LBB0_26>:
     1ac: 81 44        	li	s1, 0

00000000000001ae <.LBB0_27>:
     1ae: b3 87 e4 01  	add	a5, s1, t5
     1b2: 8a 07        	slli	a5, a5, 2
     1b4: b2 97        	add	a5, a5, a2
     1b6: 13 94 24 00  	slli	s0, s1, 2
     1ba: 3a 94        	add	s0, s0, a4
     1bc: b3 84 93 40  	sub	s1, t2, s1

00000000000001c0 <.LBB0_28>:
     1c0: 07 20 04 00  	flw	ft0, 0(s0)
     1c4: 87 a0 07 00  	flw	ft1, 0(a5)
     1c8: 53 f0 00 08  	fsub.s	ft0, ft1, ft0
     1cc: 27 a0 07 00  	fsw	ft0, 0(a5)
     1d0: 91 07        	addi	a5, a5, 4
     1d2: fd 14        	addi	s1, s1, -1
     1d4: 11 04        	addi	s0, s0, 4
     1d6: 81 e0        	bnez	s1, 0x1d6 <.LBB0_28+0x16>
     1d8: 01 a0        	j	0x1d8 <.LBB0_28+0x18>

00000000000001da <.LBB0_29>:
     1da: d7 77 00 0d  	vsetvli	a5, zero, e32, m1, ta, ma
     1de: ca 87        	mv	a5, s2
     1e0: ce 84        	mv	s1, s3
     1e2: 3a 84        	mv	s0, a4

00000000000001e4 <.LBB0_30>:
     1e4: 07 64 84 02  	vl1re32.v	v8, (s0)
     1e8: 87 e4 84 02  	vl1re32.v	v9, (s1)
     1ec: 57 14 94 0a  	vfsub.vv	v8, v9, v8
     1f0: 27 84 84 02  	vs1r.v	v8, (s1)
     1f4: 46 94        	add	s0, s0, a7
     1f6: b3 87 07 41  	sub	a5, a5, a6
     1fa: c6 94        	add	s1, s1, a7
     1fc: 81 e3        	bnez	a5, 0x1fc <.LBB0_30+0x18>
     1fe: ca 84        	mv	s1, s2
     200: 63 90 0f 00  	bnez	t6, 0x200 <.LBB0_30+0x1c>
     204: 01 a0        	j	0x204 <.LBB0_30+0x20>

0000000000000206 <.LBB0_32>:
     206: 63 50 a0 00  	blez	a0, 0x206 <.LBB0_32>
     20a: 37 07 00 00  	lui	a4, 0
     20e: 07 20 07 00  	flw	ft0, 0(a4)
     212: 01 4b        	li	s6, 0
     214: 57 77 00 0d  	vsetvli	a4, zero, e32, m1, ta, ma
     218: 57 34 00 5e  	vmv.v.i	v8, 0
     21c: 53 70 05 00  	fadd.s	ft0, fa0, ft0
     220: 13 53 03 02  	srli	t1, t1, 32
     224: 37 07 00 00  	lui	a4, 0
     228: 87 20 07 00  	flw	ft1, 0(a4)
     22c: 13 87 40 00  	addi	a4, ra, 4
     230: 3a e8        	sd	a4, 16(sp)
     232: 9a 92        	add	t0, t0, t1
     234: 33 87 a2 02  	mul	a4, t0, a0
     238: 3a e4        	sd	a4, 8(sp)
     23a: 53 f0 00 18  	fdiv.s	ft0, ft1, ft0
     23e: d3 00 00 f0  	fmv.w.x	ft1, zero
     242: d7 64 00 42  	vmv.s.x	v9, zero
     246: 32 f0        	sd	a2, 32(sp)
     248: 01 a0        	j	0x248 <.LBB0_32+0x42>

000000000000024a <.LBB0_34>:
     24a: 05 0b        	addi	s6, s6, 1
     24c: 02 77        	ld	a4, 32(sp)
     24e: 11 07        	addi	a4, a4, 4
     250: 3a f0        	sd	a4, 32(sp)
     252: 63 00 ab 00  	beq	s6, a0, 0x252 <.LBB0_34+0x8>

0000000000000256 <.LBB0_35>:
     256: 93 1e 2b 00  	slli	t4, s6, 2
     25a: 22 6f        	ld	t5, 8(sp)
     25c: 5a 9f        	add	t5, t5, s6
     25e: 0a 0f        	slli	t5, t5, 2
     260: b3 09 d6 01  	add	s3, a2, t4
     264: 33 07 e6 01  	add	a4, a2, t5
     268: ce 8f        	mv	t6, s3
     26a: 63 e0 e9 00  	bltu	s3, a4, 0x26a <.LBB0_35+0x14>
     26e: ba 8f        	mv	t6, a4

0000000000000270 <.LBB0_37>:
     270: 63 60 37 01  	bltu	a4, s3, 0x270 <.LBB0_37>
     274: ba 89        	mv	s3, a4

0000000000000276 <.LBB0_39>:
     276: 81 4c        	li	s9, 0
     278: 42 67        	ld	a4, 16(sp)
     27a: 33 0a 67 03  	mul	s4, a4, s6
     27e: 13 09 4a 00  	addi	s2, s4, 4
     282: 91 09        	addi	s3, s3, 4
     284: b3 0a ab 02  	mul	s5, s6, a0
     288: 02 7e        	ld	t3, 32(sp)
     28a: 5a 8d        	mv	s10, s6
     28c: 01 a0        	j	0x28c <.LBB0_39+0x16>

000000000000028e <.LBB0_40>:
     28e: 53 71 01 10  	fmul.s	ft2, ft2, ft0
     292: 27 a0 24 00  	fsw	ft2, 0(s1)
     296: 33 07 ad 02  	mul	a4, s10, a0
     29a: 5a 97        	add	a4, a4, s6
     29c: 0a 07        	slli	a4, a4, 2
     29e: 36 97        	add	a4, a4, a3
     2a0: 27 20 27 00  	fsw	ft2, 0(a4)
     2a4: 05 0d        	addi	s10, s10, 1
     2a6: 85 0c        	addi	s9, s9, 1
     2a8: 11 0e        	addi	t3, t3, 4
     2aa: 63 00 ad 00  	beq	s10, a0, 0x2aa <.LBB0_40+0x1c>

00000000000002ae <.LBB0_41>:
     2ae: 13 98 2c 00  	slli	a6, s9, 2
     2b2: 33 87 0e 01  	add	a4, t4, a6
     2b6: 32 97        	add	a4, a4, a2
     2b8: b3 07 0f 01  	add	a5, t5, a6
     2bc: b2 97        	add	a5, a5, a2
     2be: 3a 8c        	mv	s8, a4
     2c0: 63 60 f7 00  	bltu	a4, a5, 0x2c0 <.LBB0_41+0x12>
     2c4: 3e 8c        	mv	s8, a5

00000000000002c6 <.LBB0_43>:
     2c6: 63 e0 e7 00  	bltu	a5, a4, 0x2c6 <.LBB0_43>
     2ca: 3e 87        	mv	a4, a5

00000000000002cc <.LBB0_45>:
     2cc: b3 07 5d 01  	add	a5, s10, s5
     2d0: 8a 07        	slli	a5, a5, 2
     2d2: b3 84 f6 00  	add	s1, a3, a5
     2d6: 23 a0 04 00  	sw	zero, 0(s1)
     2da: 53 81 10 20  	fmv.s	ft2, ft1
     2de: 63 50 b0 00  	blez	a1, 0x2de <.LBB0_45+0x12>
     2e2: 93 d7 28 00  	srli	a5, a7, 2
     2e6: 21 44        	li	s0, 8
     2e8: 63 60 f4 00  	bltu	s0, a5, 0x2e8 <.LBB0_45+0x1c>
     2ec: a1 47        	li	a5, 8

00000000000002ee <.LBB0_48>:
     2ee: 63 60 f3 00  	bltu	t1, a5, 0x2ee <.LBB0_48>
     2f2: b3 07 0a 01  	add	a5, s4, a6
     2f6: b6 97        	add	a5, a5, a3
     2f8: 4a 98        	add	a6, a6, s2
     2fa: 36 98        	add	a6, a6, a3
     2fc: 11 07        	addi	a4, a4, 4
     2fe: 33 b7 e7 00  	sltu	a4, a5, a4
     302: 33 34 0c 01  	sltu	s0, s8, a6
     306: 61 8f        	and	a4, a4, s0
     308: b3 b7 37 01  	sltu	a5, a5, s3
     30c: 33 b4 0f 01  	sltu	s0, t6, a6
     310: e1 8f        	and	a5, a5, s0
     312: 5d 8f        	or	a4, a4, a5
     314: 01 c3        	beqz	a4, 0x314 <.LBB0_48+0x26>

0000000000000316 <.LBB0_50>:
     316: 01 48        	li	a6, 0
     318: 53 81 10 20  	fmv.s	ft2, ft1

000000000000031c <.LBB0_51>:
     31c: b3 07 05 03  	mul	a5, a0, a6
     320: 33 07 fd 00  	add	a4, s10, a5
     324: 0a 07        	slli	a4, a4, 2
     326: 32 97        	add	a4, a4, a2
     328: da 97        	add	a5, a5, s6
     32a: 8a 07        	slli	a5, a5, 2
     32c: 33 04 f6 00  	add	s0, a2, a5
     330: b3 07 03 41  	sub	a5, t1, a6

0000000000000334 <.LBB0_52>:
     334: 87 21 04 00  	flw	ft3, 0(s0)
     338: 07 22 07 00  	flw	ft4, 0(a4)
     33c: 43 71 32 10  	fmadd.s	ft2, ft4, ft3, ft2
     340: 27 a0 24 00  	fsw	ft2, 0(s1)
     344: 06 97        	add	a4, a4, ra
     346: fd 17        	addi	a5, a5, -1
     348: 06 94        	add	s0, s0, ra
     34a: 81 e3        	bnez	a5, 0x34a <.LBB0_52+0x16>
     34c: 01 a0        	j	0x34c <.LBB0_52+0x18>

000000000000034e <.LBB0_53>:
     34e: 93 d7 38 00  	srli	a5, a7, 3
     352: 93 d2 28 00  	srli	t0, a7, 2
     356: 13 87 f2 ff  	addi	a4, t0, -1
     35a: b3 7d e3 00  	and	s11, t1, a4
     35e: 33 08 b3 41  	sub	a6, t1, s11
     362: 13 17 25 00  	slli	a4, a0, 2
     366: 62 64        	ld	s0, 24(sp)
     368: b3 07 f4 02  	mul	a5, s0, a5
     36c: 57 74 00 0d  	vsetvli	s0, zero, e32, m1, ta, ma
     370: f2 8b        	mv	s7, t3
     372: 82 73        	ld	t2, 32(sp)
     374: 42 8c        	mv	s8, a6
     376: 57 35 80 9e  	vmv1r.v	v10, v8

000000000000037a <.LBB0_54>:
     37a: 87 e5 e3 0a  	vlse32.v	v11, (t2), a4
     37e: 07 e6 eb 0a  	vlse32.v	v12, (s7), a4
     382: 57 15 b6 b2  	vfmacc.vv	v10, v12, v11
     386: 33 0c 5c 40  	sub	s8, s8, t0
     38a: be 93        	add	t2, t2, a5
     38c: be 9b        	add	s7, s7, a5
     38e: 63 10 0c 00  	bnez	s8, 0x38e <.LBB0_54+0x14>
     392: 57 95 a4 06  	vfredusum.vs	v10, v10, v9
     396: 57 11 a0 42  	vfmv.f.s	ft2, v10
     39a: 57 f0 00 cd  	vsetivli	zero, 1, e32, m1, ta, ma
     39e: 27 e5 04 02  	vse32.v	v10, (s1)
     3a2: 63 90 0d 00  	bnez	s11, 0x3a2 <.LBB0_54+0x28>
     3a6: 01 a0        	j	0x3a6 <.LBB0_54+0x2c>

00000000000003a8 <.LBB0_56>:
     3a8: 73 26 20 c0  	rdinstret	a2
     3ac: 37 05 00 00  	lui	a0, 0
     3b0: 83 35 05 00  	ld	a1, 0(a0)
     3b4: b7 06 00 00  	lui	a3, 0
     3b8: 37 05 00 00  	lui	a0, 0
     3bc: 13 05 05 00  	mv	a0, a0
     3c0: 23 b0 c6 00  	sd	a2, 0(a3)
     3c4: aa 60        	ld	ra, 136(sp)
     3c6: 0a 64        	ld	s0, 128(sp)
     3c8: e6 74        	ld	s1, 120(sp)
     3ca: 46 79        	ld	s2, 112(sp)
     3cc: a6 79        	ld	s3, 104(sp)
     3ce: 06 7a        	ld	s4, 96(sp)
     3d0: e6 6a        	ld	s5, 88(sp)
     3d2: 46 6b        	ld	s6, 80(sp)
     3d4: a6 6b        	ld	s7, 72(sp)
     3d6: 06 6c        	ld	s8, 64(sp)
     3d8: e2 7c        	ld	s9, 56(sp)
     3da: 42 7d        	ld	s10, 48(sp)
     3dc: a2 7d        	ld	s11, 40(sp)
     3de: 49 61        	addi	sp, sp, 144
     3e0: 17 03 00 00  	auipc	t1, 0
     3e4: 67 00 03 00  	jr	t1
