
kernel.o:	file format elf64-littleriscv

Disassembly of section .text:

0000000000000000 <.text>:
       0: 01 00        	nop

0000000000000002 <core>:
       2: 73 28 20 c0  	rdinstret	a6
       6: b7 07 00 00  	lui	a5, 0
       a: 23 b0 07 01  	sd	a6, 0(a5)
       e: 13 98 05 02  	slli	a6, a1, 32
      12: 13 1e 25 00  	slli	t3, a0, 2
      16: 63 50 a0 00  	blez	a0, 0x16 <core+0x14>
      1a: b7 07 00 00  	lui	a5, 0
      1e: 07 a0 07 00  	flw	ft0, 0(a5)
      22: 81 48        	li	a7, 0
      24: 93 52 08 02  	srli	t0, a6, 32
      28: 53 70 a0 18  	fdiv.s	ft0, ft0, fa0
      2c: d3 00 00 f0  	fmv.w.x	ft1, zero
      30: 32 83        	mv	t1, a2
      32: 01 a0        	j	0x32 <core+0x30>

0000000000000034 <.LBB0_2>:
      34: 53 71 01 10  	fmul.s	ft2, ft2, ft0
      38: 27 a0 23 00  	fsw	ft2, 0(t2)
      3c: 85 08        	addi	a7, a7, 1
      3e: 11 03        	addi	t1, t1, 4
      40: 63 80 a8 00  	beq	a7, a0, 0x40 <.LBB0_2+0xc>

0000000000000044 <.LBB0_3>:
      44: 93 93 28 00  	slli	t2, a7, 2
      48: ba 93        	add	t2, t2, a4
      4a: 23 a0 03 00  	sw	zero, 0(t2)
      4e: 53 81 10 20  	fmv.s	ft2, ft1
      52: 63 50 b0 00  	blez	a1, 0x52 <.LBB0_3+0xe>
      56: 96 8e        	mv	t4, t0
      58: 9a 87        	mv	a5, t1
      5a: 53 81 10 20  	fmv.s	ft2, ft1

000000000000005e <.LBB0_5>:
      5e: 87 a1 07 00  	flw	ft3, 0(a5)
      62: 53 71 31 00  	fadd.s	ft2, ft2, ft3
      66: 27 a0 23 00  	fsw	ft2, 0(t2)
      6a: fd 1e        	addi	t4, t4, -1
      6c: f2 97        	add	a5, a5, t3
      6e: 63 90 0e 00  	bnez	t4, 0x6e <.LBB0_5+0x10>
      72: 01 a0        	j	0x72 <.LBB0_5+0x14>

0000000000000074 <.LBB0_6>:
      74: 63 50 b0 00  	blez	a1, 0x74 <.LBB0_6>
      78: 81 48        	li	a7, 0
      7a: 93 17 05 02  	slli	a5, a0, 32
      7e: 93 d2 07 02  	srli	t0, a5, 32
      82: 32 83        	mv	t1, a2
      84: 01 a0        	j	0x84 <.LBB0_6+0x10>

0000000000000086 <.LBB0_8>:
      86: 85 08        	addi	a7, a7, 1
      88: 72 93        	add	t1, t1, t3
      8a: 63 80 b8 00  	beq	a7, a1, 0x8a <.LBB0_8+0x4>

000000000000008e <.LBB0_9>:
      8e: 96 83        	mv	t2, t0
      90: ba 8e        	mv	t4, a4
      92: 9a 87        	mv	a5, t1
      94: 63 50 a0 00  	blez	a0, 0x94 <.LBB0_9+0x6>

0000000000000098 <.LBB0_10>:
      98: 07 a0 0e 00  	flw	ft0, 0(t4)
      9c: 87 a0 07 00  	flw	ft1, 0(a5)
      a0: 53 f0 00 08  	fsub.s	ft0, ft1, ft0
      a4: 27 a0 07 00  	fsw	ft0, 0(a5)
      a8: 91 07        	addi	a5, a5, 4
      aa: fd 13        	addi	t2, t2, -1
      ac: 91 0e        	addi	t4, t4, 4
      ae: 63 90 03 00  	bnez	t2, 0xae <.LBB0_10+0x16>
      b2: 01 a0        	j	0xb2 <.LBB0_10+0x1a>

00000000000000b4 <.LBB0_11>:
      b4: 63 50 a0 00  	blez	a0, 0xb4 <.LBB0_11>
      b8: 37 07 00 00  	lui	a4, 0
      bc: 07 20 07 00  	flw	ft0, 0(a4)
      c0: 37 07 00 00  	lui	a4, 0
      c4: 87 20 07 00  	flw	ft1, 0(a4)
      c8: 81 42        	li	t0, 0
      ca: 53 70 05 00  	fadd.s	ft0, fa0, ft0
      ce: 13 58 08 02  	srli	a6, a6, 32
      d2: 53 f0 00 18  	fdiv.s	ft0, ft1, ft0
      d6: d3 00 00 f0  	fmv.w.x	ft1, zero
      da: 01 a0        	j	0xda <.LBB0_11+0x26>

00000000000000dc <.LBB0_13>:
      dc: 85 02        	addi	t0, t0, 1
      de: 11 06        	addi	a2, a2, 4
      e0: 63 80 a2 00  	beq	t0, a0, 0xe0 <.LBB0_13+0x4>

00000000000000e4 <.LBB0_14>:
      e4: b3 88 a2 02  	mul	a7, t0, a0
      e8: 32 83        	mv	t1, a2
      ea: 96 83        	mv	t2, t0
      ec: 01 a0        	j	0xec <.LBB0_14+0x8>

00000000000000ee <.LBB0_15>:
      ee: 53 71 01 10  	fmul.s	ft2, ft2, ft0
      f2: 27 a0 2e 00  	fsw	ft2, 0(t4)
      f6: 33 87 a3 02  	mul	a4, t2, a0
      fa: 16 97        	add	a4, a4, t0
      fc: 0a 07        	slli	a4, a4, 2
      fe: 36 97        	add	a4, a4, a3
     100: 27 20 27 00  	fsw	ft2, 0(a4)
     104: 85 03        	addi	t2, t2, 1
     106: 11 03        	addi	t1, t1, 4
     108: 63 80 a3 00  	beq	t2, a0, 0x108 <.LBB0_15+0x1a>

000000000000010c <.LBB0_16>:
     10c: 33 87 13 01  	add	a4, t2, a7
     110: 0a 07        	slli	a4, a4, 2
     112: b3 8e e6 00  	add	t4, a3, a4
     116: 23 a0 0e 00  	sw	zero, 0(t4)
     11a: 53 81 10 20  	fmv.s	ft2, ft1
     11e: 63 50 b0 00  	blez	a1, 0x11e <.LBB0_16+0x12>
     122: 42 8f        	mv	t5, a6
     124: 32 87        	mv	a4, a2
     126: 9a 87        	mv	a5, t1
     128: 53 81 10 20  	fmv.s	ft2, ft1

000000000000012c <.LBB0_18>:
     12c: 87 21 07 00  	flw	ft3, 0(a4)
     130: 07 a2 07 00  	flw	ft4, 0(a5)
     134: 43 71 32 10  	fmadd.s	ft2, ft4, ft3, ft2
     138: 27 a0 2e 00  	fsw	ft2, 0(t4)
     13c: f2 97        	add	a5, a5, t3
     13e: 7d 1f        	addi	t5, t5, -1
     140: 72 97        	add	a4, a4, t3
     142: 63 10 0f 00  	bnez	t5, 0x142 <.LBB0_18+0x16>
     146: 01 a0        	j	0x146 <.LBB0_18+0x1a>

0000000000000148 <.LBB0_19>:
     148: 73 26 20 c0  	rdinstret	a2
     14c: 37 05 00 00  	lui	a0, 0
     150: 83 35 05 00  	ld	a1, 0(a0)
     154: b7 06 00 00  	lui	a3, 0
     158: 37 05 00 00  	lui	a0, 0
     15c: 13 05 05 00  	mv	a0, a0
     160: 23 b0 c6 00  	sd	a2, 0(a3)
     164: 17 03 00 00  	auipc	t1, 0
     168: 67 00 03 00  	jr	t1
