
kernel.o:     file format elf64-littleriscv


Disassembly of section .text:

0000000000000000 <core>:
   0:	7119                	addi	sp,sp,-128
   2:	f06e                	sd	s11,32(sp)
   4:	fca2                	sd	s0,120(sp)
   6:	f8a6                	sd	s1,112(sp)
   8:	f4ca                	sd	s2,104(sp)
   a:	f0ce                	sd	s3,96(sp)
   c:	ecd2                	sd	s4,88(sp)
   e:	e8d6                	sd	s5,80(sp)
  10:	e4da                	sd	s6,72(sp)
  12:	e0de                	sd	s7,64(sp)
  14:	fc62                	sd	s8,56(sp)
  16:	f866                	sd	s9,48(sp)
  18:	f46a                	sd	s10,40(sp)
  1a:	8dba                	mv	s11,a4
  1c:	c02027f3          	rdinstret	a5
  20:	00000737          	lui	a4,0x0
  24:	00f73023          	sd	a5,0(a4) # 0 <core>
  28:	4789                	li	a5,2
  2a:	0fb7dd63          	ble	s11,a5,124 <.L2>
  2e:	0ed7db63          	ble	a3,a5,124 <.L2>
  32:	ffd68c1b          	addiw	s8,a3,-3
  36:	1c02                	slli	s8,s8,0x20
  38:	020c5c13          	srli	s8,s8,0x20
  3c:	00150713          	addi	a4,a0,1
  40:	001d979b          	slliw	a5,s11,0x1
  44:	9c3a                	add	s8,s8,a4
  46:	9c3e                	add	s8,s8,a5
  48:	fffd879b          	addiw	a5,s11,-1
  4c:	e03e                	sd	a5,0(sp)
  4e:	01b507b3          	add	a5,a0,s11
  52:	e83e                	sd	a5,16(sp)
  54:	41b507b3          	sub	a5,a0,s11
  58:	ec3e                	sd	a5,24(sp)
  5a:	00158793          	addi	a5,a1,1
  5e:	8baa                	mv	s7,a0
  60:	8cee                	mv	s9,s11
  62:	4d05                	li	s10,1
  64:	e43e                	sd	a5,8(sp)

0000000000000066 <.L4>:
  66:	67c2                	ld	a5,16(sp)
  68:	2d05                	addiw	s10,s10,1
  6a:	019b8833          	add	a6,s7,s9
  6e:	019786b3          	add	a3,a5,s9
  72:	67e2                	ld	a5,24(sp)
  74:	019785b3          	add	a1,a5,s9
  78:	67a2                	ld	a5,8(sp)
  7a:	01978733          	add	a4,a5,s9

000000000000007e <.L5>:
  7e:	0026c783          	lbu	a5,2(a3)
  82:	00284b03          	lbu	s6,2(a6)
  86:	00064503          	lbu	a0,0(a2)
  8a:	00364383          	lbu	t2,3(a2)
  8e:	0025ca83          	lbu	s5,2(a1)
  92:	00664283          	lbu	t0,6(a2)
  96:	0016ca03          	lbu	s4,1(a3)
  9a:	00164f83          	lbu	t6,1(a2)
  9e:	00184f03          	lbu	t5,1(a6)
  a2:	00464983          	lbu	s3,4(a2)
  a6:	02f507bb          	mulw	a5,a0,a5
  aa:	0015c903          	lbu	s2,1(a1)
  ae:	00764e83          	lbu	t4,7(a2)
  b2:	0006c483          	lbu	s1,0(a3)
  b6:	00264e03          	lbu	t3,2(a2)
  ba:	00084403          	lbu	s0,0(a6)
  be:	00564303          	lbu	t1,5(a2)
  c2:	0005c503          	lbu	a0,0(a1)
  c6:	00864883          	lbu	a7,8(a2)
  ca:	0705                	addi	a4,a4,1
  cc:	036383bb          	mulw	t2,t2,s6
  d0:	0685                	addi	a3,a3,1
  d2:	0805                	addi	a6,a6,1
  d4:	0585                	addi	a1,a1,1
  d6:	035282bb          	mulw	t0,t0,s5
  da:	007783bb          	addw	t2,a5,t2
  de:	034f8fbb          	mulw	t6,t6,s4
  e2:	005382bb          	addw	t0,t2,t0
  e6:	03e98f3b          	mulw	t5,s3,t5
  ea:	01f28fbb          	addw	t6,t0,t6
  ee:	032e8ebb          	mulw	t4,t4,s2
  f2:	01ef8f3b          	addw	t5,t6,t5
  f6:	029e0e3b          	mulw	t3,t3,s1
  fa:	01df0ebb          	addw	t4,t5,t4
  fe:	0283033b          	mulw	t1,t1,s0
 102:	01ce8e3b          	addw	t3,t4,t3
 106:	02a888bb          	mulw	a7,a7,a0
 10a:	006e033b          	addw	t1,t3,t1
 10e:	011308bb          	addw	a7,t1,a7
 112:	ff170fa3          	sb	a7,-1(a4)
 116:	f78694e3          	bne	a3,s8,7e <.L5>
 11a:	6782                	ld	a5,0(sp)
 11c:	9c6e                	add	s8,s8,s11
 11e:	9cee                	add	s9,s9,s11
 120:	f5a793e3          	bne	a5,s10,66 <.L4>

0000000000000124 <.L2>:
 124:	c02027f3          	rdinstret	a5
 128:	00000737          	lui	a4,0x0
 12c:	7466                	ld	s0,120(sp)
 12e:	00073583          	ld	a1,0(a4) # 0 <core>
 132:	74c6                	ld	s1,112(sp)
 134:	7926                	ld	s2,104(sp)
 136:	7986                	ld	s3,96(sp)
 138:	6a66                	ld	s4,88(sp)
 13a:	6ac6                	ld	s5,80(sp)
 13c:	6b26                	ld	s6,72(sp)
 13e:	6b86                	ld	s7,64(sp)
 140:	7c62                	ld	s8,56(sp)
 142:	7cc2                	ld	s9,48(sp)
 144:	7d22                	ld	s10,40(sp)
 146:	7d82                	ld	s11,32(sp)
 148:	00000737          	lui	a4,0x0
 14c:	00000537          	lui	a0,0x0
 150:	00f73023          	sd	a5,0(a4) # 0 <core>
 154:	863e                	mv	a2,a5
 156:	00050513          	mv	a0,a0
 15a:	6109                	addi	sp,sp,128
 15c:	00000317          	auipc	t1,0x0
 160:	00030067          	jr	t1 # 15c <.L2+0x38>
