
kernel.o:	file format elf64-littleriscv

Disassembly of section .text:

0000000000000000 <.text>:
       0: 01 00        	nop

0000000000000002 <core>:
       2: 59 71        	addi	sp, sp, -112
       4: 86 f4        	sd	ra, 104(sp)
       6: a2 f0        	sd	s0, 96(sp)
       8: a6 ec        	sd	s1, 88(sp)
       a: ca e8        	sd	s2, 80(sp)
       c: ce e4        	sd	s3, 72(sp)
       e: d2 e0        	sd	s4, 64(sp)
      10: 56 fc        	sd	s5, 56(sp)
      12: 5a f8        	sd	s6, 48(sp)
      14: 5e f4        	sd	s7, 40(sp)
      16: 62 f0        	sd	s8, 32(sp)
      18: 66 ec        	sd	s9, 24(sp)
      1a: 6a e8        	sd	s10, 16(sp)
      1c: 6e e4        	sd	s11, 8(sp)
      1e: 3a 89        	mv	s2, a4
      20: aa 8f        	mv	t6, a0
      22: 73 25 20 c0  	rdinstret	a0
      26: 37 07 00 00  	lui	a4, 0
      2a: 23 30 a7 00  	sd	a0, 0(a4)
      2e: 63 50 f0 01  	blez	t6, 0x2e <core+0x2c>
      32: 93 99 0f 02  	slli	s3, t6, 32
      36: 63 50 b0 00  	blez	a1, 0x36 <core+0x34>
      3a: 13 d8 09 02  	srli	a6, s3, 32
      3e: f3 23 20 c2  	csrr	t2, vlenb
      42: c1 44        	li	s1, 16
      44: 13 85 f5 ff  	addi	a0, a1, -1
      48: 1e 8b        	mv	s6, t2
      4a: 63 e0 74 00  	bltu	s1, t2, 0x4a <core+0x48>
      4e: 41 4b        	li	s6, 16

0000000000000050 <.LBB0_4>:
      50: 01 4f        	li	t5, 0
      52: b3 08 05 03  	mul	a7, a0, a6
      56: 13 85 f3 ff  	addi	a0, t2, -1
      5a: b3 f2 a5 00  	and	t0, a1, a0
      5e: 33 83 55 40  	sub	t1, a1, t0
      62: b3 8e f3 03  	mul	t4, t2, t6
      66: 57 75 00 0c  	vsetvli	a0, zero, e8, m1, ta, ma
      6a: 57 34 00 5e  	vmv.v.i	v8, 0
      6e: 36 8e        	mv	t3, a3

0000000000000070 <.LBB0_5>:
      70: b3 8a e7 01  	add	s5, a5, t5
      74: 23 80 0a 00  	sb	zero, 0(s5)
      78: 63 e0 65 01  	bltu	a1, s6, 0x78 <.LBB0_5+0x8>
      7c: 33 85 e6 01  	add	a0, a3, t5
      80: b3 84 e8 01  	add	s1, a7, t5
      84: b6 94        	add	s1, s1, a3
      86: 2a 84        	mv	s0, a0
      88: 63 e0 a4 00  	bltu	s1, a0, 0x88 <.LBB0_5+0x18>
      8c: 26 84        	mv	s0, s1

000000000000008e <.LBB0_8>:
      8e: 63 60 95 00  	bltu	a0, s1, 0x8e <.LBB0_8>
      92: 26 85        	mv	a0, s1

0000000000000094 <.LBB0_10>:
      94: 05 04        	addi	s0, s0, 1
      96: 93 84 1a 00  	addi	s1, s5, 1
      9a: 33 b4 8a 00  	sltu	s0, s5, s0
      9e: 33 35 95 00  	sltu	a0, a0, s1
      a2: 61 8d        	and	a0, a0, s0
      a4: 01 c1        	beqz	a0, 0xa4 <.LBB0_10+0x10>

00000000000000a6 <.LBB0_11>:
      a6: 01 45        	li	a0, 0
      a8: 01 47        	li	a4, 0

00000000000000aa <.LBB0_12>:
      aa: b3 84 af 02  	mul	s1, t6, a0
      ae: f2 94        	add	s1, s1, t3
      b0: 33 85 a5 40  	sub	a0, a1, a0

00000000000000b4 <.LBB0_13>:
      b4: 03 84 04 00  	lb	s0, 0(s1)
      b8: 22 97        	add	a4, a4, s0
      ba: 23 80 ea 00  	sb	a4, 0(s5)
      be: 7d 15        	addi	a0, a0, -1
      c0: fe 94        	add	s1, s1, t6
      c2: 01 e1        	bnez	a0, 0xc2 <.LBB0_13+0xe>

00000000000000c4 <.LBB0_14>:
      c4: 62 17        	slli	a4, a4, 56
      c6: 61 97        	srai	a4, a4, 56
      c8: 3b 45 c7 02  	divw	a0, a4, a2
      cc: 23 80 aa 00  	sb	a0, 0(s5)
      d0: 05 0f        	addi	t5, t5, 1
      d2: 05 0e        	addi	t3, t3, 1
      d4: 63 10 0f 01  	bne	t5, a6, 0xd4 <.LBB0_14+0x10>
      d8: 01 a0        	j	0xd8 <.LBB0_14+0x14>

00000000000000da <.LBB0_15>:
      da: 57 75 00 0c  	vsetvli	a0, zero, e8, m1, ta, ma
      de: 72 85        	mv	a0, t3
      e0: 1a 84        	mv	s0, t1
      e2: d7 34 80 9e  	vmv1r.v	v9, v8

00000000000000e6 <.LBB0_16>:
      e6: 07 05 f5 0b  	vlse8.v	v10, (a0), t6
      ea: d7 04 95 02  	vadd.vv	v9, v9, v10
      ee: 33 04 74 40  	sub	s0, s0, t2
      f2: 76 95        	add	a0, a0, t4
      f4: 01 e0        	bnez	s0, 0xf4 <.LBB0_16+0xe>
      f6: 57 65 00 42  	vmv.s.x	v10, zero
      fa: d7 24 95 02  	vredsum.vs	v9, v9, v10
      fe: 57 27 90 42  	vmv.x.s	a4, v9
     102: 57 f0 00 cc  	vsetivli	zero, 1, e8, m1, ta, ma
     106: a7 84 0a 02  	vse8.v	v9, (s5)
     10a: 1a 85        	mv	a0, t1
     10c: 63 90 02 00  	bnez	t0, 0x10c <.LBB0_16+0x26>
     110: 01 a0        	j	0x110 <.LBB0_16+0x2a>

0000000000000112 <.LBB0_18>:
     112: 63 50 b0 00  	blez	a1, 0x112 <.LBB0_18>
     116: 63 50 f0 01  	blez	t6, 0x116 <.LBB0_18+0x4>
     11a: 73 2f 20 c2  	csrr	t5, vlenb
     11e: c1 44        	li	s1, 16
     120: 13 95 05 02  	slli	a0, a1, 32
     124: fa 8a        	mv	s5, t5
     126: 63 e0 e4 01  	bltu	s1, t5, 0x126 <.LBB0_18+0x14>
     12a: c1 4a        	li	s5, 16

000000000000012c <.LBB0_22>:
     12c: 81 4e        	li	t4, 0
     12e: 93 58 05 02  	srli	a7, a0, 32
     132: b3 82 07 01  	add	t0, a5, a6
     136: 13 05 ff ff  	addi	a0, t5, -1
     13a: 33 73 a8 00  	and	t1, a6, a0
     13e: b3 03 68 40  	sub	t2, a6, t1
     142: 36 8e        	mv	t3, a3
     144: 01 a0        	j	0x144 <.LBB0_22+0x18>

0000000000000146 <.LBB0_23>:
     146: 85 0e        	addi	t4, t4, 1
     148: 7e 9e        	add	t3, t3, t6
     14a: 63 80 1e 01  	beq	t4, a7, 0x14a <.LBB0_23+0x4>

000000000000014e <.LBB0_24>:
     14e: 63 60 58 01  	bltu	a6, s5, 0x14e <.LBB0_24>
     152: 33 85 0e 03  	mul	a0, t4, a6
     156: 33 04 05 01  	add	s0, a0, a6
     15a: 36 94        	add	s0, s0, a3
     15c: 36 95        	add	a0, a0, a3
     15e: 33 35 55 00  	sltu	a0, a0, t0
     162: 33 b4 87 00  	sltu	s0, a5, s0
     166: 61 8d        	and	a0, a0, s0
     168: 01 c1        	beqz	a0, 0x168 <.LBB0_24+0x1a>

000000000000016a <.LBB0_26>:
     16a: 81 44        	li	s1, 0

000000000000016c <.LBB0_27>:
     16c: 33 04 9e 00  	add	s0, t3, s1
     170: 33 85 97 00  	add	a0, a5, s1
     174: b3 84 9f 40  	sub	s1, t6, s1

0000000000000178 <.LBB0_28>:
     178: 03 0b 05 00  	lb	s6, 0(a0)
     17c: 03 07 04 00  	lb	a4, 0(s0)
     180: 3b 07 67 41  	subw	a4, a4, s6
     184: 23 00 e4 00  	sb	a4, 0(s0)
     188: 05 04        	addi	s0, s0, 1
     18a: fd 14        	addi	s1, s1, -1
     18c: 05 05        	addi	a0, a0, 1
     18e: 81 e0        	bnez	s1, 0x18e <.LBB0_28+0x16>
     190: 01 a0        	j	0x190 <.LBB0_28+0x18>

0000000000000192 <.LBB0_29>:
     192: 57 75 00 0c  	vsetvli	a0, zero, e8, m1, ta, ma
     196: 1e 85        	mv	a0, t2
     198: 72 84        	mv	s0, t3
     19a: be 84        	mv	s1, a5

000000000000019c <.LBB0_30>:
     19c: 07 84 84 02  	vl1r.v	v8, (s1)
     1a0: 87 04 84 02  	vl1r.v	v9, (s0)
     1a4: 57 04 94 0a  	vsub.vv	v8, v9, v8
     1a8: 27 04 84 02  	vs1r.v	v8, (s0)
     1ac: fa 94        	add	s1, s1, t5
     1ae: 33 05 e5 41  	sub	a0, a0, t5
     1b2: 7a 94        	add	s0, s0, t5
     1b4: 01 e1        	bnez	a0, 0x1b4 <.LBB0_30+0x18>
     1b6: 9e 84        	mv	s1, t2
     1b8: 63 10 03 00  	bnez	t1, 0x1b8 <.LBB0_30+0x1c>
     1bc: 01 a0        	j	0x1bc <.LBB0_30+0x20>

00000000000001be <.LBB0_32>:
     1be: 63 50 f0 01  	blez	t6, 0x1be <.LBB0_32>
     1c2: 63 50 b0 00  	blez	a1, 0x1c2 <.LBB0_32+0x4>
     1c6: 1b 05 f6 ff  	addiw	a0, a2, -1
     1ca: 62 15        	slli	a0, a0, 56
     1cc: f3 23 20 c2  	csrr	t2, vlenb
     1d0: 41 47        	li	a4, 16
     1d2: 13 86 f5 ff  	addi	a2, a1, -1
     1d6: 63 60 77 00  	bltu	a4, t2, 0x1d6 <.LBB0_32+0x18>
     1da: c1 43        	li	t2, 16

00000000000001dc <.LBB0_36>:
     1dc: 81 4a        	li	s5, 0
     1de: 93 5f 85 43  	srai	t6, a0, 56
     1e2: 13 05 18 00  	addi	a0, a6, 1
     1e6: 2a e0        	sd	a0, 0(sp)
     1e8: b3 08 06 03  	mul	a7, a2, a6
     1ec: 57 75 00 0c  	vsetvli	a0, zero, e8, m1, ta, ma
     1f0: 57 34 00 5e  	vmv.v.i	v8, 0
     1f4: 36 8b        	mv	s6, a3
     1f6: f3 20 20 c2  	csrr	ra, vlenb
     1fa: 01 a0        	j	0x1fa <.LBB0_36+0x1e>

00000000000001fc <.LBB0_37>:
     1fc: 85 0a        	addi	s5, s5, 1
     1fe: 05 0b        	addi	s6, s6, 1
     200: 63 80 0a 01  	beq	s5, a6, 0x200 <.LBB0_37+0x4>

0000000000000204 <.LBB0_38>:
     204: b3 82 58 01  	add	t0, a7, s5
     208: 33 8f 56 01  	add	t5, a3, s5
     20c: 33 85 56 00  	add	a0, a3, t0
     210: 7a 83        	mv	t1, t5
     212: 63 60 af 00  	bltu	t5, a0, 0x212 <.LBB0_38+0xe>
     216: 2a 83        	mv	t1, a0

0000000000000218 <.LBB0_40>:
     218: 63 60 e5 01  	bltu	a0, t5, 0x218 <.LBB0_40>
     21c: 2a 8f        	mv	t5, a0

000000000000021e <.LBB0_42>:
     21e: 01 4d        	li	s10, 0
     220: 02 65        	ld	a0, 0(sp)
     222: 33 0e 55 03  	mul	t3, a0, s5
     226: 93 0e 1e 00  	addi	t4, t3, 1
     22a: 05 0f        	addi	t5, t5, 1
     22c: b3 89 0a 03  	mul	s3, s5, a6
     230: da 8c        	mv	s9, s6
     232: d6 8d        	mv	s11, s5
     234: 01 a0        	j	0x234 <.LBB0_42+0x16>

0000000000000236 <.LBB0_43>:
     236: e2 17        	slli	a5, a5, 56
     238: e1 97        	srai	a5, a5, 56
     23a: 3b c5 f7 03  	divw	a0, a5, t6
     23e: 23 00 aa 00  	sb	a0, 0(s4)
     242: 33 86 0d 03  	mul	a2, s11, a6
     246: 33 07 59 01  	add	a4, s2, s5
     24a: 3a 96        	add	a2, a2, a4
     24c: 23 00 a6 00  	sb	a0, 0(a2)
     250: 85 0d        	addi	s11, s11, 1
     252: 05 0d        	addi	s10, s10, 1
     254: 85 0c        	addi	s9, s9, 1
     256: 63 80 0d 01  	beq	s11, a6, 0x256 <.LBB0_43+0x20>

000000000000025a <.LBB0_44>:
     25a: 33 84 3d 01  	add	s0, s11, s3
     25e: 33 0a 89 00  	add	s4, s2, s0
     262: 23 00 0a 00  	sb	zero, 0(s4)
     266: 63 e0 75 00  	bltu	a1, t2, 0x266 <.LBB0_44+0xc>
     26a: 33 85 b6 01  	add	a0, a3, s11
     26e: b3 87 a2 01  	add	a5, t0, s10
     272: b6 97        	add	a5, a5, a3
     274: 2a 86        	mv	a2, a0
     276: 63 e0 a7 00  	bltu	a5, a0, 0x276 <.LBB0_44+0x1c>
     27a: 3e 86        	mv	a2, a5

000000000000027c <.LBB0_47>:
     27c: 63 60 f5 00  	bltu	a0, a5, 0x27c <.LBB0_47>
     280: 3e 85        	mv	a0, a5

0000000000000282 <.LBB0_49>:
     282: 05 06        	addi	a2, a2, 1
     284: b3 87 ae 01  	add	a5, t4, s10
     288: ca 97        	add	a5, a5, s2
     28a: b3 04 ae 01  	add	s1, t3, s10
     28e: ca 94        	add	s1, s1, s2
     290: 33 b6 c4 00  	sltu	a2, s1, a2
     294: 33 35 f5 00  	sltu	a0, a0, a5
     298: 71 8d        	and	a0, a0, a2
     29a: 33 b6 e4 01  	sltu	a2, s1, t5
     29e: b3 37 f3 00  	sltu	a5, t1, a5
     2a2: 7d 8e        	and	a2, a2, a5
     2a4: 51 8d        	or	a0, a0, a2
     2a6: 01 c1        	beqz	a0, 0x2a6 <.LBB0_49+0x24>

00000000000002a8 <.LBB0_50>:
     2a8: 81 4b        	li	s7, 0
     2aa: 81 47        	li	a5, 0

00000000000002ac <.LBB0_51>:
     2ac: b3 04 78 03  	mul	s1, a6, s7
     2b0: 33 85 9c 00  	add	a0, s9, s1
     2b4: da 94        	add	s1, s1, s6
     2b6: 33 86 75 41  	sub	a2, a1, s7

00000000000002ba <.LBB0_52>:
     2ba: 03 87 04 00  	lb	a4, 0(s1)
     2be: 03 04 05 00  	lb	s0, 0(a0)
     2c2: 33 07 e4 02  	mul	a4, s0, a4
     2c6: ba 97        	add	a5, a5, a4
     2c8: 23 00 fa 00  	sb	a5, 0(s4)
     2cc: 42 95        	add	a0, a0, a6
     2ce: 7d 16        	addi	a2, a2, -1
     2d0: c2 94        	add	s1, s1, a6
     2d2: 01 e2        	bnez	a2, 0x2d2 <.LBB0_52+0x18>
     2d4: 01 a0        	j	0x2d4 <.LBB0_52+0x1a>

00000000000002d6 <.LBB0_53>:
     2d6: 13 85 f0 ff  	addi	a0, ra, -1
     2da: 33 fc a5 00  	and	s8, a1, a0
     2de: b3 8b 85 41  	sub	s7, a1, s8
     2e2: 33 85 00 03  	mul	a0, ra, a6
     2e6: 57 76 00 0c  	vsetvli	a2, zero, e8, m1, ta, ma
     2ea: 66 86        	mv	a2, s9
     2ec: da 84        	mv	s1, s6
     2ee: de 87        	mv	a5, s7
     2f0: d7 34 80 9e  	vmv1r.v	v9, v8

00000000000002f4 <.LBB0_54>:
     2f4: 07 85 04 0b  	vlse8.v	v10, (s1), a6
     2f8: 87 05 06 0b  	vlse8.v	v11, (a2), a6
     2fc: d7 a4 a5 b6  	vmacc.vv	v9, v11, v10
     300: b3 87 17 40  	sub	a5, a5, ra
     304: aa 94        	add	s1, s1, a0
     306: 2a 96        	add	a2, a2, a0
     308: 81 e3        	bnez	a5, 0x308 <.LBB0_54+0x14>
     30a: 57 65 00 42  	vmv.s.x	v10, zero
     30e: d7 24 95 02  	vredsum.vs	v9, v9, v10
     312: d7 27 90 42  	vmv.x.s	a5, v9
     316: 57 f0 00 cc  	vsetivli	zero, 1, e8, m1, ta, ma
     31a: a7 04 0a 02  	vse8.v	v9, (s4)
     31e: 63 10 0c 00  	bnez	s8, 0x31e <.LBB0_54+0x2a>
     322: 01 a0        	j	0x322 <.LBB0_54+0x2e>

0000000000000324 <.LBB0_56>:
     324: 3e 85        	mv	a0, a5
     326: 81 45        	li	a1, 0
     328: 7e 86        	mv	a2, t6
     32a: 97 00 00 00  	auipc	ra, 0
     32e: e7 80 00 00  	jalr	ra

0000000000000332 <.LBB0_57>:
     332: 01 45        	li	a0, 0
     334: 93 d6 09 02  	srli	a3, s3, 32
     338: 13 86 16 00  	addi	a2, a3, 1
     33c: b6 84        	mv	s1, a3

000000000000033e <.LBB0_58>:
     33e: 26 87        	mv	a4, s1
     340: ca 87        	mv	a5, s2
     342: ca 85        	mv	a1, s2

0000000000000344 <.LBB0_59>:
     344: 23 80 07 00  	sb	zero, 0(a5)
     348: 23 80 05 00  	sb	zero, 0(a1)
     34c: b6 95        	add	a1, a1, a3
     34e: 7d 17        	addi	a4, a4, -1
     350: 85 07        	addi	a5, a5, 1
     352: 01 e3        	bnez	a4, 0x352 <.LBB0_59+0xe>
     354: 05 05        	addi	a0, a0, 1
     356: 32 99        	add	s2, s2, a2
     358: fd 14        	addi	s1, s1, -1
     35a: 63 10 d5 00  	bne	a0, a3, 0x35a <.LBB0_59+0x16>

000000000000035e <.LBB0_61>:
     35e: 73 26 20 c0  	rdinstret	a2
     362: 37 05 00 00  	lui	a0, 0
     366: 83 35 05 00  	ld	a1, 0(a0)
     36a: b7 06 00 00  	lui	a3, 0
     36e: 37 05 00 00  	lui	a0, 0
     372: 13 05 05 00  	mv	a0, a0
     376: 23 b0 c6 00  	sd	a2, 0(a3)
     37a: a6 70        	ld	ra, 104(sp)
     37c: 06 74        	ld	s0, 96(sp)
     37e: e6 64        	ld	s1, 88(sp)
     380: 46 69        	ld	s2, 80(sp)
     382: a6 69        	ld	s3, 72(sp)
     384: 06 6a        	ld	s4, 64(sp)
     386: e2 7a        	ld	s5, 56(sp)
     388: 42 7b        	ld	s6, 48(sp)
     38a: a2 7b        	ld	s7, 40(sp)
     38c: 02 7c        	ld	s8, 32(sp)
     38e: e2 6c        	ld	s9, 24(sp)
     390: 42 6d        	ld	s10, 16(sp)
     392: a2 6d        	ld	s11, 8(sp)
     394: 65 61        	addi	sp, sp, 112
     396: 17 03 00 00  	auipc	t1, 0
     39a: 67 00 03 00  	jr	t1
