
kernel.o:     file format elf64-littleriscv


Disassembly of section .text:

0000000000000000 <core>:
   0:	1141                	addi	sp,sp,-16
   2:	e422                	sd	s0,8(sp)
   4:	e026                	sd	s1,0(sp)
   6:	c0202873          	rdinstret	a6
   a:	00000fb7          	lui	t6,0x0
   e:	010fb023          	sd	a6,0(t6) # 0 <core>
  12:	12a05463          	blez	a0,13a <.L2>
  16:	fff5049b          	addiw	s1,a0,-1
  1a:	02049393          	slli	t2,s1,0x20
  1e:	00178f13          	addi	t5,a5,1
  22:	0203d393          	srli	t2,t2,0x20
  26:	0006041b          	sext.w	s0,a2
  2a:	8ebe                	mv	t4,a5
  2c:	82b6                	mv	t0,a3
  2e:	93fa                	add	t2,t2,t5

0000000000000030 <.L5>:
  30:	000e8023          	sb	zero,0(t4)
  34:	12b05963          	blez	a1,166 <.L14>
  38:	8316                	mv	t1,t0
  3a:	4801                	li	a6,0
  3c:	4881                	li	a7,0

000000000000003e <.L4>:
  3e:	00034e03          	lbu	t3,0(t1)
  42:	2885                	addiw	a7,a7,1
  44:	932a                	add	t1,t1,a0
  46:	010e083b          	addw	a6,t3,a6
  4a:	0188181b          	slliw	a6,a6,0x18
  4e:	4188581b          	sraiw	a6,a6,0x18
  52:	010e8023          	sb	a6,0(t4)
  56:	ff1594e3          	bne	a1,a7,3e <.L4>
  5a:	0288483b          	divw	a6,a6,s0
  5e:	0188181b          	slliw	a6,a6,0x18
  62:	4188581b          	sraiw	a6,a6,0x18

0000000000000066 <.L3>:
  66:	010e8023          	sb	a6,0(t4)
  6a:	0e85                	addi	t4,t4,1
  6c:	0285                	addi	t0,t0,1
  6e:	fc7e91e3          	bne	t4,t2,30 <.L5>
  72:	02049e93          	slli	t4,s1,0x20
  76:	020ede93          	srli	t4,t4,0x20
  7a:	83b6                	mv	t2,a3
  7c:	4281                	li	t0,0
  7e:	9efa                	add	t4,t4,t5
  80:	02b05463          	blez	a1,a8 <.L7>

0000000000000084 <.L13>:
  84:	88be                	mv	a7,a5
  86:	881e                	mv	a6,t2

0000000000000088 <.L8>:
  88:	00084303          	lbu	t1,0(a6)
  8c:	0008ce03          	lbu	t3,0(a7)
  90:	0805                	addi	a6,a6,1
  92:	0885                	addi	a7,a7,1
  94:	41c3033b          	subw	t1,t1,t3
  98:	fe680fa3          	sb	t1,-1(a6)
  9c:	ff1e96e3          	bne	t4,a7,88 <.L8>
  a0:	2285                	addiw	t0,t0,1
  a2:	93aa                	add	t2,t2,a0
  a4:	feb2c0e3          	blt	t0,a1,84 <.L13>

00000000000000a8 <.L7>:
  a8:	000007b7          	lui	a5,0x0
  ac:	d2060753          	fcvt.d.w	fa4,a2
  b0:	0007b787          	fld	fa5,0(a5) # 0 <core>
  b4:	00150493          	addi	s1,a0,1
  b8:	843a                	mv	s0,a4
  ba:	0af777d3          	fsub.d	fa5,fa4,fa5
  be:	82b6                	mv	t0,a3
  c0:	4e81                	li	t4,0
  c2:	c20793d3          	fcvt.w.d	t2,fa5,rtz
  c6:	0183939b          	slliw	t2,t2,0x18
  ca:	4183d39b          	sraiw	t2,t2,0x18

00000000000000ce <.L12>:
  ce:	8f22                	mv	t5,s0
  d0:	8322                	mv	t1,s0
  d2:	8e76                	mv	t3,t4

00000000000000d4 <.L11>:
  d4:	00030023          	sb	zero,0(t1)
  d8:	08b05563          	blez	a1,162 <.L15>
  dc:	8716                	mv	a4,t0
  de:	4781                	li	a5,0
  e0:	4801                	li	a6,0

00000000000000e2 <.L10>:
  e2:	41d70633          	sub	a2,a4,t4
  e6:	9672                	add	a2,a2,t3
  e8:	00074883          	lbu	a7,0(a4)
  ec:	00064683          	lbu	a3,0(a2)
  f0:	2805                	addiw	a6,a6,1
  f2:	972a                	add	a4,a4,a0
  f4:	031686bb          	mulw	a3,a3,a7
  f8:	9fb5                	addw	a5,a5,a3
  fa:	0187979b          	slliw	a5,a5,0x18
  fe:	4187d79b          	sraiw	a5,a5,0x18
 102:	00f30023          	sb	a5,0(t1)
 106:	fd059ee3          	bne	a1,a6,e2 <.L10>
 10a:	0277c7bb          	divw	a5,a5,t2
 10e:	0187979b          	slliw	a5,a5,0x18
 112:	4187d79b          	sraiw	a5,a5,0x18

0000000000000116 <.L9>:
 116:	00f30023          	sb	a5,0(t1)
 11a:	0e05                	addi	t3,t3,1
 11c:	00ff0023          	sb	a5,0(t5)
 120:	000e079b          	sext.w	a5,t3
 124:	0305                	addi	t1,t1,1
 126:	9f2a                	add	t5,t5,a0
 128:	faa7c6e3          	blt	a5,a0,d4 <.L11>
 12c:	0e85                	addi	t4,t4,1
 12e:	000e879b          	sext.w	a5,t4
 132:	9426                	add	s0,s0,s1
 134:	0285                	addi	t0,t0,1
 136:	f8a7cce3          	blt	a5,a0,ce <.L12>

000000000000013a <.L2>:
 13a:	c02027f3          	rdinstret	a5
 13e:	6422                	ld	s0,8(sp)
 140:	6482                	ld	s1,0(sp)
 142:	000fb583          	ld	a1,0(t6)
 146:	00000737          	lui	a4,0x0
 14a:	00000537          	lui	a0,0x0
 14e:	00f73023          	sd	a5,0(a4) # 0 <core>
 152:	863e                	mv	a2,a5
 154:	00050513          	mv	a0,a0
 158:	0141                	addi	sp,sp,16
 15a:	00000317          	auipc	t1,0x0
 15e:	00030067          	jr	t1 # 15a <.L2+0x20>

0000000000000162 <.L15>:
 162:	4781                	li	a5,0
 164:	bf4d                	j	116 <.L9>

0000000000000166 <.L14>:
 166:	4801                	li	a6,0
 168:	bdfd                	j	66 <.L3>
