
kernel.o:     file format elf64-littleriscv


Disassembly of section .text:

0000000000000000 <core>:
   0:	7119                	addi	sp,sp,-128
   2:	f8a2                	sd	s0,112(sp)
   4:	00369793          	slli	a5,a3,0x3
   8:	00850413          	addi	s0,a0,8
   c:	00878313          	addi	t1,a5,8
  10:	82a2                	mv	t0,s0
  12:	01050413          	addi	s0,a0,16
  16:	8f3a                	mv	t5,a4
  18:	01078e13          	addi	t3,a5,16
  1c:	00f50733          	add	a4,a0,a5
  20:	83a2                	mv	t2,s0
  22:	00650433          	add	s0,a0,t1
  26:	f06a                	sd	s10,32(sp)
  28:	00469813          	slli	a6,a3,0x4
  2c:	8d36                	mv	s10,a3
  2e:	8fa2                	mv	t6,s0
  30:	86ba                	mv	a3,a4
  32:	01c50433          	add	s0,a0,t3
  36:	f4a6                	sd	s1,104(sp)
  38:	84a2                	mv	s1,s0
  3a:	00f68433          	add	s0,a3,a5
  3e:	97ae                	add	a5,a5,a1
  40:	ffed059b          	addiw	a1,s10,-2
  44:	e032                	sd	a2,0(sp)
  46:	862e                	mv	a2,a1
  48:	ffef059b          	addiw	a1,t5,-2
  4c:	fc5e                	sd	s7,56(sp)
  4e:	00880e93          	addi	t4,a6,8
  52:	8bae                	mv	s7,a1
  54:	6582                	ld	a1,0(sp)
  56:	ec6e                	sd	s11,24(sp)
  58:	0841                	addi	a6,a6,16
  5a:	8daa                	mv	s11,a0
  5c:	8722                	mv	a4,s0
  5e:	01d50433          	add	s0,a0,t4
  62:	8522                	mv	a0,s0
  64:	010d8433          	add	s0,s11,a6
  68:	fc86                	sd	ra,120(sp)
  6a:	f0ca                	sd	s2,96(sp)
  6c:	ecce                	sd	s3,88(sp)
  6e:	e8d2                	sd	s4,80(sp)
  70:	e4d6                	sd	s5,72(sp)
  72:	e0da                	sd	s6,64(sp)
  74:	f862                	sd	s8,48(sp)
  76:	f466                	sd	s9,40(sp)
  78:	88a2                	mv	a7,s0
  7a:	0005b803          	ld	a6,0(a1)
  7e:	0085b303          	ld	t1,8(a1)
  82:	0105be03          	ld	t3,16(a1)
  86:	0185be83          	ld	t4,24(a1)
  8a:	7180                	ld	s0,32(a1)
  8c:	0285b903          	ld	s2,40(a1)
  90:	0305b983          	ld	s3,48(a1)
  94:	0385ba03          	ld	s4,56(a1)
  98:	e406                	sd	ra,8(sp)
  9a:	61ac                	ld	a1,64(a1)
  9c:	4a8d                	li	s5,3
  9e:	4b05                	li	s6,1
  a0:	8c7a                	mv	s8,t5
  a2:	8cb6                	mv	s9,a3
  a4:	6082                	ld	ra,0(sp)
  a6:	c02026f3          	rdinstret	a3
  aa:	d57df08b          	ss.sta.ld.d	u1,s11,s7,s10
  ae:	b2c0008b          	ss.end	u1,zero,a2,s6
  b2:	0000108b          	ss.cfg.vec	u1
  b6:	d572f10b          	ss.sta.ld.d	u2,t0,s7,s10
  ba:	b2c0010b          	ss.end	u2,zero,a2,s6
  be:	0000110b          	ss.cfg.vec	u2
  c2:	d573f18b          	ss.sta.ld.d	u3,t2,s7,s10
  c6:	b2c0018b          	ss.end	u3,zero,a2,s6
  ca:	0000118b          	ss.cfg.vec	u3
  ce:	d57cf20b          	ss.sta.ld.d	u4,s9,s7,s10
  d2:	b2c0020b          	ss.end	u4,zero,a2,s6
  d6:	0000120b          	ss.cfg.vec	u4
  da:	d57ff28b          	ss.sta.ld.d	u5,t6,s7,s10
  de:	b2c0028b          	ss.end	u5,zero,a2,s6
  e2:	0000128b          	ss.cfg.vec	u5
  e6:	d574f30b          	ss.sta.ld.d	u6,s1,s7,s10
  ea:	b2c0030b          	ss.end	u6,zero,a2,s6
  ee:	0000130b          	ss.cfg.vec	u6
  f2:	d577738b          	ss.sta.ld.d	u7,a4,s7,s10
  f6:	b2c0038b          	ss.end	u7,zero,a2,s6
  fa:	0000138b          	ss.cfg.vec	u7
  fe:	d575740b          	ss.sta.ld.d	u8,a0,s7,s10
 102:	b2c0040b          	ss.end	u8,zero,a2,s6
 106:	0000140b          	ss.cfg.vec	u8
 10a:	d578f48b          	ss.sta.ld.d	u9,a7,s7,s10
 10e:	b2c0048b          	ss.end	u9,zero,a2,s6
 112:	0000148b          	ss.cfg.vec	u9
 116:	ac08352b          	so.v.dp.d	u10,a6,p0
 11a:	ac0335ab          	so.v.dp.d	u11,t1,p0
 11e:	ac0e362b          	so.v.dp.d	u12,t3,p0
 122:	ac0eb6ab          	so.v.dp.d	u13,t4,p0
 126:	ac04372b          	so.v.dp.d	u14,s0,p0
 12a:	ac0937ab          	so.v.dp.d	u15,s2,p0
 12e:	ac09b82b          	so.v.dp.d	u16,s3,p0
 132:	ac0a38ab          	so.v.dp.d	u17,s4,p0
 136:	ac05b92b          	so.v.dp.d	u18,a1,p0
 13a:	d577b00b          	ss.sta.st.d	u0,a5,s7,s10
 13e:	b2cb000b          	ss.end	u0,s6,a2,s6
 142:	0000100b          	ss.cfg.vec	u0

0000000000000146 <.loop_y78>:
 146:	109519ab          	so.a.mul.fp	u19,u10,u9,p0
 14a:	10859a2b          	so.a.mul.fp	u20,u11,u8,p0
 14e:	10761aab          	so.a.mul.fp	u21,u12,u7,p0
 152:	10669b2b          	so.a.mul.fp	u22,u13,u6,p0
 156:	10571bab          	so.a.mul.fp	u23,u14,u5,p0
 15a:	10479c2b          	so.a.mul.fp	u24,u15,u4,p0
 15e:	10381cab          	so.a.mul.fp	u25,u16,u3,p0
 162:	10289d2b          	so.a.mul.fp	u26,u17,u2,p0
 166:	10191dab          	so.a.mul.fp	u27,u18,u1,p0
 16a:	01499e2b          	so.a.add.fp	u28,u19,u20,p0
 16e:	016a9eab          	so.a.add.fp	u29,u21,u22,p0
 172:	018b9f2b          	so.a.add.fp	u30,u23,u24,p0
 176:	01ac9fab          	so.a.add.fp	u31,u25,u26,p0
 17a:	01ce9eab          	so.a.add.fp	u29,u29,u28,p0
 17e:	01ef9fab          	so.a.add.fp	u31,u31,u30,p0
 182:	01df9fab          	so.a.add.fp	u31,u31,u29,p0
 186:	01bf902b          	so.a.add.fp	u0,u31,u27,p0
 18a:	ff706eab          	so.b.nc	u0,146 <.loop_y78>
 18e:	c0202f73          	rdinstret	t5
 192:	00000737          	lui	a4,0x0
 196:	7446                	ld	s0,112(sp)
 198:	00d73023          	sd	a3,0(a4) # 0 <core>
 19c:	70e6                	ld	ra,120(sp)
 19e:	74a6                	ld	s1,104(sp)
 1a0:	7906                	ld	s2,96(sp)
 1a2:	69e6                	ld	s3,88(sp)
 1a4:	6a46                	ld	s4,80(sp)
 1a6:	6aa6                	ld	s5,72(sp)
 1a8:	6b06                	ld	s6,64(sp)
 1aa:	7be2                	ld	s7,56(sp)
 1ac:	7c42                	ld	s8,48(sp)
 1ae:	7ca2                	ld	s9,40(sp)
 1b0:	7d02                	ld	s10,32(sp)
 1b2:	6de2                	ld	s11,24(sp)
 1b4:	00000737          	lui	a4,0x0
 1b8:	00000537          	lui	a0,0x0
 1bc:	01e73023          	sd	t5,0(a4) # 0 <core>
 1c0:	867a                	mv	a2,t5
 1c2:	85b6                	mv	a1,a3
 1c4:	00050513          	mv	a0,a0
 1c8:	6109                	addi	sp,sp,128
 1ca:	00000317          	auipc	t1,0x0
 1ce:	00030067          	jr	t1 # 1ca <.loop_y78+0x84>
