
kernel.o:	file format elf64-littleriscv

Disassembly of section .text:

0000000000000000 <.text>:
       0: 01 00        	nop

0000000000000002 <core_kernel>:
       2: 75 71        	addi	sp, sp, -144
       4: 06 e5        	sd	ra, 136(sp)
       6: 22 e1        	sd	s0, 128(sp)
       8: a6 fc        	sd	s1, 120(sp)
       a: ca f8        	sd	s2, 112(sp)
       c: ce f4        	sd	s3, 104(sp)
       e: d2 f0        	sd	s4, 96(sp)
      10: d6 ec        	sd	s5, 88(sp)
      12: da e8        	sd	s6, 80(sp)
      14: de e4        	sd	s7, 72(sp)
      16: e2 e0        	sd	s8, 64(sp)
      18: 66 fc        	sd	s9, 56(sp)
      1a: 6a f8        	sd	s10, 48(sp)
      1c: 6e f4        	sd	s11, 40(sp)
      1e: 2e 89        	mv	s2, a1
      20: 36 e8        	sd	a3, 16(sp)
      22: 93 b5 16 00  	seqz	a1, a3
      26: 93 36 17 00  	seqz	a3, a4
      2a: d5 8d        	or	a1, a1, a3
      2c: f3 26 20 c0  	rdinstret	a3
      30: 36 e4        	sd	a3, 8(sp)
      32: 63 90 05 00  	bnez	a1, 0x32 <core_kernel+0x30>
      36: 63 80 07 00  	beqz	a5, 0x36 <core_kernel+0x34>
      3a: f3 22 20 c2  	csrr	t0, vlenb
      3e: 13 df 22 00  	srli	t5, t0, 2
      42: a1 45        	li	a1, 8
      44: fa 84        	mv	s1, t5
      46: 63 e0 e5 01  	bltu	a1, t5, 0x46 <core_kernel+0x44>
      4a: a1 44        	li	s1, 8

000000000000004c <.LBB0_4>:
      4c: 01 48        	li	a6, 0
      4e: 01 44        	li	s0, 0
      50: 93 1d 27 00  	slli	s11, a4, 2
      54: 13 93 27 00  	slli	t1, a5, 2
      58: b3 b5 97 00  	sltu	a1, a5, s1
      5c: 93 c5 f5 ff  	not	a1, a1
      60: 93 06 f7 ff  	addi	a3, a4, -1
      64: 93 b6 16 00  	seqz	a3, a3
      68: b3 f3 d5 00  	and	t2, a1, a3
      6c: 93 15 37 00  	slli	a1, a4, 3
      70: 93 d6 32 00  	srli	a3, t0, 3
      74: 93 04 ff ff  	addi	s1, t5, -1
      78: fd 8c        	and	s1, s1, a5
      7a: 26 f0        	sd	s1, 32(sp)
      7c: b3 8e 97 40  	sub	t4, a5, s1
      80: b3 89 d5 02  	mul	s3, a1, a3
      84: d7 75 00 0d  	vsetvli	a1, zero, e32, m1, ta, ma
      88: 57 34 00 5e  	vmv.v.i	v8, 0
      8c: aa 8f        	mv	t6, a0
      8e: 01 a0        	j	0x8e <.LBB0_4+0x42>

0000000000000090 <.LBB0_5>:
      90: 62 64        	ld	s0, 24(sp)
      92: 05 04        	addi	s0, s0, 1
      94: 9a 9f        	add	t6, t6, t1
      96: 3e 98        	add	a6, a6, a5
      98: c2 65        	ld	a1, 16(sp)
      9a: 63 00 b4 00  	beq	s0, a1, 0x9a <.LBB0_5+0xa>

000000000000009e <.LBB0_6>:
      9e: 01 4d        	li	s10, 0
      a0: 33 8a 8d 02  	mul	s4, s11, s0
      a4: 93 0a 4a 00  	addi	s5, s4, 4
      a8: b3 05 83 02  	mul	a1, t1, s0
      ac: 33 0b b5 00  	add	s6, a0, a1
      b0: 9a 95        	add	a1, a1, t1
      b2: b3 0b b5 00  	add	s7, a0, a1
      b6: 22 ec        	sd	s0, 24(sp)
      b8: 33 0c e4 02  	mul	s8, s0, a4
      bc: ca 8c        	mv	s9, s2
      be: 01 a0        	j	0xbe <.LBB0_6+0x20>

00000000000000c0 <.LBB0_7>:
      c0: 05 0d        	addi	s10, s10, 1
      c2: 91 0c        	addi	s9, s9, 4
      c4: 63 00 ed 00  	beq	s10, a4, 0xc4 <.LBB0_7+0x4>

00000000000000c8 <.LBB0_8>:
      c8: b3 05 8d 01  	add	a1, s10, s8
      cc: 8a 05        	slli	a1, a1, 2
      ce: b3 00 b6 00  	add	ra, a2, a1
      d2: 23 a0 00 00  	sw	zero, 0(ra)
      d6: 63 80 03 00  	beqz	t2, 0xd6 <.LBB0_8+0xe>
      da: 93 14 2d 00  	slli	s1, s10, 2
      de: b3 06 93 00  	add	a3, t1, s1
      e2: 33 0e d9 00  	add	t3, s2, a3
      e6: 33 04 99 00  	add	s0, s2, s1
      ea: b3 85 9a 00  	add	a1, s5, s1
      ee: b2 95        	add	a1, a1, a2
      f0: d2 94        	add	s1, s1, s4
      f2: b2 94        	add	s1, s1, a2
      f4: b3 b6 74 01  	sltu	a3, s1, s7
      f8: b3 38 bb 00  	sltu	a7, s6, a1
      fc: b3 f6 16 01  	and	a3, a3, a7
     100: b3 b4 c4 01  	sltu	s1, s1, t3
     104: b3 35 b4 00  	sltu	a1, s0, a1
     108: e5 8d        	and	a1, a1, s1
     10a: d5 8d        	or	a1, a1, a3
     10c: 81 c1        	beqz	a1, 0x10c <.LBB0_8+0x44>

000000000000010e <.LBB0_10>:
     10e: 81 46        	li	a3, 0
     110: 81 44        	li	s1, 0

0000000000000112 <.LBB0_11>:
     112: b3 05 d8 00  	add	a1, a6, a3
     116: 8a 05        	slli	a1, a1, 2
     118: 33 04 b5 00  	add	s0, a0, a1
     11c: b3 05 d7 02  	mul	a1, a4, a3
     120: ea 95        	add	a1, a1, s10
     122: 8a 05        	slli	a1, a1, 2
     124: ca 95        	add	a1, a1, s2
     126: 33 8e d7 40  	sub	t3, a5, a3

000000000000012a <.LBB0_12>:
     12a: 83 28 04 00  	lw	a7, 0(s0)
     12e: 94 41        	lw	a3, 0(a1)
     130: bb 86 16 03  	mulw	a3, a3, a7
     134: b6 94        	add	s1, s1, a3
     136: 23 a0 90 00  	sw	s1, 0(ra)
     13a: 11 04        	addi	s0, s0, 4
     13c: 7d 1e        	addi	t3, t3, -1
     13e: ee 95        	add	a1, a1, s11
     140: 63 10 0e 00  	bnez	t3, 0x140 <.LBB0_12+0x16>
     144: 01 a0        	j	0x144 <.LBB0_12+0x1a>

0000000000000146 <.LBB0_13>:
     146: d7 75 00 0d  	vsetvli	a1, zero, e32, m1, ta, ma
     14a: f6 85        	mv	a1, t4
     14c: e6 84        	mv	s1, s9
     14e: 7e 84        	mv	s0, t6
     150: d7 34 80 9e  	vmv1r.v	v9, v8

0000000000000154 <.LBB0_14>:
     154: 07 65 84 02  	vl1re32.v	v10, (s0)
     158: 87 e5 84 02  	vl1re32.v	v11, (s1)
     15c: d7 a4 a5 b6  	vmacc.vv	v9, v11, v10
     160: 16 94        	add	s0, s0, t0
     162: b3 85 e5 41  	sub	a1, a1, t5
     166: ce 94        	add	s1, s1, s3
     168: 81 e1        	bnez	a1, 0x168 <.LBB0_14+0x14>
     16a: 57 65 00 42  	vmv.s.x	v10, zero
     16e: d7 24 95 02  	vredsum.vs	v9, v9, v10
     172: 57 f0 00 cd  	vsetivli	zero, 1, e32, m1, ta, ma
     176: a7 e4 00 02  	vse32.v	v9, (ra)
     17a: 82 75        	ld	a1, 32(sp)
     17c: 81 c1        	beqz	a1, 0x17c <.LBB0_14+0x28>
     17e: d7 24 90 42  	vmv.x.s	s1, v9
     182: f6 86        	mv	a3, t4
     184: 01 a0        	j	0x184 <.LBB0_14+0x30>

0000000000000186 <.LBB0_17>:
     186: 42 65        	ld	a0, 16(sp)
     188: b3 06 a7 02  	mul	a3, a4, a0
     18c: 8a 06        	slli	a3, a3, 2
     18e: 32 85        	mv	a0, a2
     190: 81 45        	li	a1, 0
     192: 36 86        	mv	a2, a3
     194: 97 00 00 00  	auipc	ra, 0
     198: e7 80 00 00  	jalr	ra

000000000000019c <.LBB0_18>:
     19c: 73 25 20 c0  	rdinstret	a0
     1a0: a2 65        	ld	a1, 8(sp)
     1a2: 0d 8d        	sub	a0, a0, a1
     1a4: aa 60        	ld	ra, 136(sp)
     1a6: 0a 64        	ld	s0, 128(sp)
     1a8: e6 74        	ld	s1, 120(sp)
     1aa: 46 79        	ld	s2, 112(sp)
     1ac: a6 79        	ld	s3, 104(sp)
     1ae: 06 7a        	ld	s4, 96(sp)
     1b0: e6 6a        	ld	s5, 88(sp)
     1b2: 46 6b        	ld	s6, 80(sp)
     1b4: a6 6b        	ld	s7, 72(sp)
     1b6: 06 6c        	ld	s8, 64(sp)
     1b8: e2 7c        	ld	s9, 56(sp)
     1ba: 42 7d        	ld	s10, 48(sp)
     1bc: a2 7d        	ld	s11, 40(sp)
     1be: 49 61        	addi	sp, sp, 144
     1c0: 82 80        	ret

00000000000001c2 <core>:
     1c2: 55 71        	addi	sp, sp, -208
     1c4: 86 e5        	sd	ra, 200(sp)
     1c6: a2 e1        	sd	s0, 192(sp)
     1c8: 26 fd        	sd	s1, 184(sp)
     1ca: 4a f9        	sd	s2, 176(sp)
     1cc: 4e f5        	sd	s3, 168(sp)
     1ce: 52 f1        	sd	s4, 160(sp)
     1d0: 56 ed        	sd	s5, 152(sp)
     1d2: 5a e9        	sd	s6, 144(sp)
     1d4: 5e e5        	sd	s7, 136(sp)
     1d6: 62 e1        	sd	s8, 128(sp)
     1d8: e6 fc        	sd	s9, 120(sp)
     1da: ea f8        	sd	s10, 112(sp)
     1dc: ee f4        	sd	s11, 104(sp)
     1de: c2 e0        	sd	a6, 64(sp)
     1e0: be 89        	mv	s3, a5
     1e2: 3a 8a        	mv	s4, a4
     1e4: b6 f0        	sd	a3, 96(sp)
     1e6: b2 e4        	sd	a2, 72(sp)
     1e8: ae 83        	mv	t2, a1
     1ea: 2a 8f        	mv	t5, a0
     1ec: ce 6a        	ld	s5, 208(sp)
     1ee: 2e 75        	ld	a0, 232(sp)
     1f0: aa e8        	sd	a0, 80(sp)
     1f2: 8e 7c        	ld	s9, 224(sp)
     1f4: 46 f4        	sd	a7, 40(sp)
     1f6: 13 b5 18 00  	seqz	a0, a7
     1fa: 93 b5 1a 00  	seqz	a1, s5
     1fe: 2a e8        	sd	a0, 16(sp)
     200: 2e e4        	sd	a1, 8(sp)
     202: 4d 8d        	or	a0, a0, a1
     204: f3 25 20 c0  	rdinstret	a1
     208: 2e ec        	sd	a1, 24(sp)
     20a: 63 10 05 00  	bnez	a0, 0x20a <core+0x48>
     20e: ee 68        	ld	a7, 216(sp)
     210: 63 80 08 00  	beqz	a7, 0x210 <core+0x4e>
     214: 73 2e 20 c2  	csrr	t3, vlenb
     218: 93 52 2e 00  	srli	t0, t3, 2
     21c: 21 45        	li	a0, 8
     21e: 96 85        	mv	a1, t0
     220: 63 60 55 00  	bltu	a0, t0, 0x220 <core+0x5e>
     224: a1 45        	li	a1, 8

0000000000000226 <.LBB1_4>:
     226: 81 4e        	li	t4, 0
     228: 81 46        	li	a3, 0
     22a: 13 9c 2a 00  	slli	s8, s5, 2
     22e: 13 9b 28 00  	slli	s6, a7, 2
     232: 33 b5 b8 00  	sltu	a0, a7, a1
     236: 13 45 f5 ff  	not	a0, a0
     23a: 93 85 fa ff  	addi	a1, s5, -1
     23e: 93 b5 15 00  	seqz	a1, a1
     242: 33 73 b5 00  	and	t1, a0, a1
     246: 13 95 3a 00  	slli	a0, s5, 3
     24a: 93 55 3e 00  	srli	a1, t3, 3
     24e: 13 86 f2 ff  	addi	a2, t0, -1
     252: 33 f6 c8 00  	and	a2, a7, a2
     256: 32 f8        	sd	a2, 48(sp)
     258: 33 86 c8 40  	sub	a2, a7, a2
     25c: b2 ec        	sd	a2, 88(sp)
     25e: b3 07 b5 02  	mul	a5, a0, a1
     262: 57 75 00 0d  	vsetvli	a0, zero, e32, m1, ta, ma
     266: 57 34 00 5e  	vmv.v.i	v8, 0
     26a: 7a fc        	sd	t5, 56(sp)
     26c: 01 a0        	j	0x26c <.LBB1_4+0x46>

000000000000026e <.LBB1_5>:
     26e: 82 76        	ld	a3, 32(sp)
     270: 85 06        	addi	a3, a3, 1
     272: 62 75        	ld	a0, 56(sp)
     274: 5a 95        	add	a0, a0, s6
     276: 2a fc        	sd	a0, 56(sp)
     278: c6 9e        	add	t4, t4, a7
     27a: 22 75        	ld	a0, 40(sp)
     27c: 63 80 a6 00  	beq	a3, a0, 0x27c <.LBB1_5+0xe>

0000000000000280 <.LBB1_6>:
     280: 01 44        	li	s0, 0
     282: b3 0f dc 02  	mul	t6, s8, a3
     286: 13 8d 4f 00  	addi	s10, t6, 4
     28a: 33 05 db 02  	mul	a0, s6, a3
     28e: b3 00 af 00  	add	ra, t5, a0
     292: 5a 95        	add	a0, a0, s6
     294: b3 0d af 00  	add	s11, t5, a0
     298: 36 f0        	sd	a3, 32(sp)
     29a: 33 89 56 03  	mul	s2, a3, s5
     29e: 9e 85        	mv	a1, t2
     2a0: 01 a0        	j	0x2a0 <.LBB1_6+0x20>

00000000000002a2 <.LBB1_7>:
     2a2: 05 04        	addi	s0, s0, 1
     2a4: 91 05        	addi	a1, a1, 4
     2a6: 63 00 54 01  	beq	s0, s5, 0x2a6 <.LBB1_7+0x4>

00000000000002aa <.LBB1_8>:
     2aa: 33 05 24 01  	add	a0, s0, s2
     2ae: 0a 05        	slli	a0, a0, 2
     2b0: b3 0b aa 00  	add	s7, s4, a0
     2b4: 23 a0 0b 00  	sw	zero, 0(s7)
     2b8: 63 00 03 00  	beqz	t1, 0x2b8 <.LBB1_8+0xe>
     2bc: 93 16 24 00  	slli	a3, s0, 2
     2c0: 5a 87        	mv	a4, s6
     2c2: 33 06 db 00  	add	a2, s6, a3
     2c6: 33 88 c3 00  	add	a6, t2, a2
     2ca: 33 8b d3 00  	add	s6, t2, a3
     2ce: 33 05 dd 00  	add	a0, s10, a3
     2d2: 52 95        	add	a0, a0, s4
     2d4: fe 96        	add	a3, a3, t6
     2d6: d2 96        	add	a3, a3, s4
     2d8: 33 b6 b6 01  	sltu	a2, a3, s11
     2dc: b3 b4 a0 00  	sltu	s1, ra, a0
     2e0: 65 8e        	and	a2, a2, s1
     2e2: b3 b6 06 01  	sltu	a3, a3, a6
     2e6: 33 35 ab 00  	sltu	a0, s6, a0
     2ea: 75 8d        	and	a0, a0, a3
     2ec: 51 8d        	or	a0, a0, a2
     2ee: 01 c1        	beqz	a0, 0x2ee <.LBB1_8+0x44>
     2f0: 01 45        	li	a0, 0
     2f2: 81 44        	li	s1, 0
     2f4: 3a 8b        	mv	s6, a4
     2f6: 01 a0        	j	0x2f6 <.LBB1_8+0x4c>

00000000000002f8 <.LBB1_11>:
     2f8: 01 45        	li	a0, 0
     2fa: 81 44        	li	s1, 0
     2fc: 01 a0        	j	0x2fc <.LBB1_11+0x4>

00000000000002fe <.LBB1_12>:
     2fe: 57 75 00 0d  	vsetvli	a0, zero, e32, m1, ta, ma
     302: 66 65        	ld	a0, 88(sp)
     304: 2e 86        	mv	a2, a1
     306: e2 76        	ld	a3, 56(sp)
     308: d7 34 80 9e  	vmv1r.v	v9, v8

000000000000030c <.LBB1_13>:
     30c: 07 e5 86 02  	vl1re32.v	v10, (a3)
     310: 87 65 86 02  	vl1re32.v	v11, (a2)
     314: d7 a4 a5 b6  	vmacc.vv	v9, v11, v10
     318: f2 96        	add	a3, a3, t3
     31a: 33 05 55 40  	sub	a0, a0, t0
     31e: 3e 96        	add	a2, a2, a5
     320: 01 e1        	bnez	a0, 0x320 <.LBB1_13+0x14>
     322: 57 65 00 42  	vmv.s.x	v10, zero
     326: d7 24 95 02  	vredsum.vs	v9, v9, v10
     32a: 57 f0 00 cd  	vsetivli	zero, 1, e32, m1, ta, ma
     32e: a7 e4 0b 02  	vse32.v	v9, (s7)
     332: 3a 8b        	mv	s6, a4
     334: 42 75        	ld	a0, 48(sp)
     336: 01 c1        	beqz	a0, 0x336 <.LBB1_13+0x2a>
     338: d7 24 90 42  	vmv.x.s	s1, v9
     33c: 66 65        	ld	a0, 88(sp)

000000000000033e <.LBB1_16>:
     33e: 33 88 a8 40  	sub	a6, a7, a0
     342: 33 86 aa 02  	mul	a2, s5, a0
     346: 22 96        	add	a2, a2, s0
     348: 0a 06        	slli	a2, a2, 2
     34a: 1e 96        	add	a2, a2, t2
     34c: 76 95        	add	a0, a0, t4
     34e: 0a 05        	slli	a0, a0, 2
     350: 7a 95        	add	a0, a0, t5

0000000000000352 <.LBB1_17>:
     352: 14 41        	lw	a3, 0(a0)
     354: 18 42        	lw	a4, 0(a2)
     356: bb 06 d7 02  	mulw	a3, a4, a3
     35a: b6 94        	add	s1, s1, a3
     35c: 23 a0 9b 00  	sw	s1, 0(s7)
     360: 7d 18        	addi	a6, a6, -1
     362: 62 96        	add	a2, a2, s8
     364: 11 05        	addi	a0, a0, 4
     366: 63 10 08 00  	bnez	a6, 0x366 <.LBB1_17+0x14>
     36a: 01 a0        	j	0x36a <.LBB1_17+0x18>

000000000000036c <.LBB1_18>:
     36c: 22 75        	ld	a0, 40(sp)
     36e: 33 06 55 03  	mul	a2, a0, s5
     372: 0a 06        	slli	a2, a2, 2
     374: 52 85        	mv	a0, s4
     376: 81 45        	li	a1, 0
     378: 97 00 00 00  	auipc	ra, 0
     37c: e7 80 00 00  	jalr	ra

0000000000000380 <.LBB1_19>:
     380: 73 25 20 c0  	rdinstret	a0
     384: 2a f8        	sd	a0, 48(sp)
     386: 93 b5 1c 00  	seqz	a1, s9
     38a: 22 65        	ld	a0, 8(sp)
     38c: 2e e0        	sd	a1, 0(sp)
     38e: 4d 8d        	or	a0, a0, a1
     390: f3 25 20 c0  	rdinstret	a1
     394: 2e f0        	sd	a1, 32(sp)
     396: d6 ec        	sd	s5, 88(sp)
     398: 63 10 05 00  	bnez	a0, 0x398 <.LBB1_19+0x18>
     39c: 46 65        	ld	a0, 80(sp)
     39e: 63 00 05 00  	beqz	a0, 0x39e <.LBB1_19+0x1e>
     3a2: 73 2c 20 c2  	csrr	s8, vlenb
     3a6: 93 58 2c 00  	srli	a7, s8, 2
     3aa: 21 45        	li	a0, 8
     3ac: 46 86        	mv	a2, a7
     3ae: 63 60 15 01  	bltu	a0, a7, 0x3ae <.LBB1_19+0x2e>
     3b2: 21 46        	li	a2, 8

00000000000003b4 <.LBB1_23>:
     3b4: 81 40        	li	ra, 0
     3b6: 01 48        	li	a6, 0
     3b8: 13 95 2c 00  	slli	a0, s9, 2
     3bc: 46 67        	ld	a4, 80(sp)
     3be: 13 13 27 00  	slli	t1, a4, 2
     3c2: b3 35 c7 00  	sltu	a1, a4, a2
     3c6: 93 c5 f5 ff  	not	a1, a1
     3ca: 13 86 fc ff  	addi	a2, s9, -1
     3ce: 13 36 16 00  	seqz	a2, a2
     3d2: 33 f9 c5 00  	and	s2, a1, a2
     3d6: 93 95 3c 00  	slli	a1, s9, 3
     3da: 13 56 3c 00  	srli	a2, s8, 3
     3de: 93 86 f8 ff  	addi	a3, a7, -1
     3e2: f9 8e        	and	a3, a3, a4
     3e4: 36 fc        	sd	a3, 56(sp)
     3e6: b3 02 d7 40  	sub	t0, a4, a3
     3ea: b3 87 c5 02  	mul	a5, a1, a2
     3ee: d7 75 00 0d  	vsetvli	a1, zero, e32, m1, ta, ma
     3f2: 57 34 00 5e  	vmv.v.i	v8, 0
     3f6: a6 63        	ld	t2, 72(sp)
     3f8: 01 a0        	j	0x3f8 <.LBB1_23+0x44>

00000000000003fa <.LBB1_24>:
     3fa: 05 08        	addi	a6, a6, 1
     3fc: 9a 93        	add	t2, t2, t1
     3fe: c6 65        	ld	a1, 80(sp)
     400: ae 90        	add	ra, ra, a1
     402: e6 6a        	ld	s5, 88(sp)
     404: 63 00 58 01  	beq	a6, s5, 0x404 <.LBB1_24+0xa>

0000000000000408 <.LBB1_25>:
     408: 01 44        	li	s0, 0
     40a: 33 0e 05 03  	mul	t3, a0, a6
     40e: 93 0e 4e 00  	addi	t4, t3, 4
     412: b3 05 03 03  	mul	a1, t1, a6
     416: a6 6f        	ld	t6, 72(sp)
     418: 33 8f bf 00  	add	t5, t6, a1
     41c: 9a 95        	add	a1, a1, t1
     41e: ae 9f        	add	t6, t6, a1
     420: b3 0b 98 03  	mul	s7, a6, s9
     424: 86 7a        	ld	s5, 96(sp)
     426: 01 a0        	j	0x426 <.LBB1_25+0x1e>

0000000000000428 <.LBB1_26>:
     428: 05 04        	addi	s0, s0, 1
     42a: 91 0a        	addi	s5, s5, 4
     42c: 63 00 94 01  	beq	s0, s9, 0x42c <.LBB1_26+0x4>

0000000000000430 <.LBB1_27>:
     430: b3 05 74 01  	add	a1, s0, s7
     434: 8a 05        	slli	a1, a1, 2
     436: b3 84 b9 00  	add	s1, s3, a1
     43a: 23 a0 04 00  	sw	zero, 0(s1)
     43e: 63 00 09 00  	beqz	s2, 0x43e <.LBB1_27+0xe>
     442: 13 17 24 00  	slli	a4, s0, 2
     446: b3 06 e3 00  	add	a3, t1, a4
     44a: 06 7b        	ld	s6, 96(sp)
     44c: 33 0d db 00  	add	s10, s6, a3
     450: 3a 9b        	add	s6, s6, a4
     452: b3 85 ee 00  	add	a1, t4, a4
     456: ce 95        	add	a1, a1, s3
     458: 72 97        	add	a4, a4, t3
     45a: 4e 97        	add	a4, a4, s3
     45c: b3 3d f7 01  	sltu	s11, a4, t6
     460: b3 36 bf 00  	sltu	a3, t5, a1
     464: b3 f6 dd 00  	and	a3, s11, a3
     468: 33 37 a7 01  	sltu	a4, a4, s10
     46c: b3 35 bb 00  	sltu	a1, s6, a1
     470: f9 8d        	and	a1, a1, a4
     472: d5 8d        	or	a1, a1, a3
     474: 81 c1        	beqz	a1, 0x474 <.LBB1_27+0x44>

0000000000000476 <.LBB1_29>:
     476: 81 45        	li	a1, 0
     478: 81 46        	li	a3, 0

000000000000047a <.LBB1_30>:
     47a: 46 66        	ld	a2, 80(sp)
     47c: b3 0d b6 40  	sub	s11, a2, a1
     480: 33 87 bc 02  	mul	a4, s9, a1
     484: 22 97        	add	a4, a4, s0
     486: 0a 07        	slli	a4, a4, 2
     488: 06 76        	ld	a2, 96(sp)
     48a: 32 97        	add	a4, a4, a2
     48c: 86 95        	add	a1, a1, ra
     48e: 8a 05        	slli	a1, a1, 2
     490: 26 6d        	ld	s10, 72(sp)
     492: 2e 9d        	add	s10, s10, a1

0000000000000494 <.LBB1_31>:
     494: 83 25 0d 00  	lw	a1, 0(s10)
     498: 10 43        	lw	a2, 0(a4)
     49a: bb 05 b6 02  	mulw	a1, a2, a1
     49e: ae 96        	add	a3, a3, a1
     4a0: 94 c0        	sw	a3, 0(s1)
     4a2: fd 1d        	addi	s11, s11, -1
     4a4: 2a 97        	add	a4, a4, a0
     4a6: 11 0d        	addi	s10, s10, 4
     4a8: 63 90 0d 00  	bnez	s11, 0x4a8 <.LBB1_31+0x14>
     4ac: 01 a0        	j	0x4ac <.LBB1_31+0x18>

00000000000004ae <.LBB1_32>:
     4ae: d7 75 00 0d  	vsetvli	a1, zero, e32, m1, ta, ma
     4b2: 96 86        	mv	a3, t0
     4b4: 56 87        	mv	a4, s5
     4b6: 9e 85        	mv	a1, t2
     4b8: d7 34 80 9e  	vmv1r.v	v9, v8

00000000000004bc <.LBB1_33>:
     4bc: 07 e5 85 02  	vl1re32.v	v10, (a1)
     4c0: 87 65 87 02  	vl1re32.v	v11, (a4)
     4c4: d7 a4 a5 b6  	vmacc.vv	v9, v11, v10
     4c8: e2 95        	add	a1, a1, s8
     4ca: b3 86 16 41  	sub	a3, a3, a7
     4ce: 3e 97        	add	a4, a4, a5
     4d0: 81 e2        	bnez	a3, 0x4d0 <.LBB1_33+0x14>
     4d2: 57 65 00 42  	vmv.s.x	v10, zero
     4d6: d7 24 95 02  	vredsum.vs	v9, v9, v10
     4da: 57 f0 00 cd  	vsetivli	zero, 1, e32, m1, ta, ma
     4de: a7 e4 04 02  	vse32.v	v9, (s1)
     4e2: e2 75        	ld	a1, 56(sp)
     4e4: 81 c1        	beqz	a1, 0x4e4 <.LBB1_33+0x28>
     4e6: d7 26 90 42  	vmv.x.s	a3, v9
     4ea: 96 85        	mv	a1, t0
     4ec: 01 a0        	j	0x4ec <.LBB1_33+0x30>

00000000000004ee <.LBB1_36>:
     4ee: 33 86 9a 03  	mul	a2, s5, s9
     4f2: 0a 06        	slli	a2, a2, 2
     4f4: 4e 85        	mv	a0, s3
     4f6: 81 45        	li	a1, 0
     4f8: 97 00 00 00  	auipc	ra, 0
     4fc: e7 80 00 00  	jalr	ra

0000000000000500 <.LBB1_37>:
     500: 73 25 20 c0  	rdinstret	a0
     504: aa e8        	sd	a0, 80(sp)
     506: 42 65        	ld	a0, 16(sp)
     508: 82 65        	ld	a1, 0(sp)
     50a: 4d 8d        	or	a0, a0, a1
     50c: f3 25 20 c0  	rdinstret	a1
     510: ae e4        	sd	a1, 72(sp)
     512: 86 6b        	ld	s7, 64(sp)
     514: 63 10 05 00  	bnez	a0, 0x514 <.LBB1_37+0x14>
     518: 63 80 0a 00  	beqz	s5, 0x518 <.LBB1_37+0x18>
     51c: f3 2d 20 c2  	csrr	s11, vlenb
     520: 13 dc 2d 00  	srli	s8, s11, 2
     524: a1 45        	li	a1, 8
     526: 62 85        	mv	a0, s8
     528: 63 e0 85 01  	bltu	a1, s8, 0x528 <.LBB1_37+0x28>
     52c: 21 45        	li	a0, 8

000000000000052e <.LBB1_41>:
     52e: 01 4d        	li	s10, 0
     530: 01 48        	li	a6, 0
     532: 93 95 2c 00  	slli	a1, s9, 2
     536: 13 93 2a 00  	slli	t1, s5, 2
     53a: 33 b5 aa 00  	sltu	a0, s5, a0
     53e: 13 45 f5 ff  	not	a0, a0
     542: 13 86 fc ff  	addi	a2, s9, -1
     546: 13 36 16 00  	seqz	a2, a2
     54a: 33 79 c5 00  	and	s2, a0, a2
     54e: 13 95 3c 00  	slli	a0, s9, 3
     552: 13 d6 3d 00  	srli	a2, s11, 3
     556: 93 06 fc ff  	addi	a3, s8, -1
     55a: b3 f6 da 00  	and	a3, s5, a3
     55e: b6 f0        	sd	a3, 96(sp)
     560: b3 82 da 40  	sub	t0, s5, a3
     564: b3 08 c5 02  	mul	a7, a0, a2
     568: 57 75 00 0d  	vsetvli	a0, zero, e32, m1, ta, ma
     56c: 57 34 00 5e  	vmv.v.i	v8, 0
     570: d2 83        	mv	t2, s4
     572: 01 a0        	j	0x572 <.LBB1_41+0x44>

0000000000000574 <.LBB1_42>:
     574: 05 08        	addi	a6, a6, 1
     576: 9a 93        	add	t2, t2, t1
     578: 56 9d        	add	s10, s10, s5
     57a: 22 75        	ld	a0, 40(sp)
     57c: 63 00 a8 00  	beq	a6, a0, 0x57c <.LBB1_42+0x8>

0000000000000580 <.LBB1_43>:
     580: 01 44        	li	s0, 0
     582: 33 8e 05 03  	mul	t3, a1, a6
     586: 93 0e 4e 00  	addi	t4, t3, 4
     58a: 33 05 03 03  	mul	a0, t1, a6
     58e: 33 0f aa 00  	add	t5, s4, a0
     592: 1a 95        	add	a0, a0, t1
     594: b3 0f aa 00  	add	t6, s4, a0
     598: b3 00 98 03  	mul	ra, a6, s9
     59c: 4e 8b        	mv	s6, s3
     59e: 01 a0        	j	0x59e <.LBB1_43+0x1e>

00000000000005a0 <.LBB1_44>:
     5a0: 05 04        	addi	s0, s0, 1
     5a2: 11 0b        	addi	s6, s6, 4
     5a4: e6 6a        	ld	s5, 88(sp)
     5a6: 63 00 94 01  	beq	s0, s9, 0x5a6 <.LBB1_44+0x6>

00000000000005aa <.LBB1_45>:
     5aa: 33 05 14 00  	add	a0, s0, ra
     5ae: 0a 05        	slli	a0, a0, 2
     5b0: 33 86 ab 00  	add	a2, s7, a0
     5b4: 23 20 06 00  	sw	zero, 0(a2)
     5b8: 63 00 09 00  	beqz	s2, 0x5b8 <.LBB1_45+0xe>
     5bc: 13 15 24 00  	slli	a0, s0, 2
     5c0: b3 06 a3 00  	add	a3, t1, a0
     5c4: b3 8a d9 00  	add	s5, s3, a3
     5c8: 33 87 a9 00  	add	a4, s3, a0
     5cc: b3 84 ae 00  	add	s1, t4, a0
     5d0: de 94        	add	s1, s1, s7
     5d2: 72 95        	add	a0, a0, t3
     5d4: 5e 95        	add	a0, a0, s7
     5d6: b3 36 f5 01  	sltu	a3, a0, t6
     5da: b3 3b 9f 00  	sltu	s7, t5, s1
     5de: b3 f6 76 01  	and	a3, a3, s7
     5e2: 33 35 55 01  	sltu	a0, a0, s5
     5e6: 33 37 97 00  	sltu	a4, a4, s1
     5ea: 79 8d        	and	a0, a0, a4
     5ec: 55 8d        	or	a0, a0, a3
     5ee: 01 c1        	beqz	a0, 0x5ee <.LBB1_45+0x44>
     5f0: 81 44        	li	s1, 0
     5f2: 81 46        	li	a3, 0
     5f4: 86 6b        	ld	s7, 64(sp)
     5f6: 01 a0        	j	0x5f6 <.LBB1_45+0x4c>

00000000000005f8 <.LBB1_48>:
     5f8: 81 44        	li	s1, 0
     5fa: 81 46        	li	a3, 0
     5fc: 01 a0        	j	0x5fc <.LBB1_48+0x4>

00000000000005fe <.LBB1_49>:
     5fe: 57 75 00 0d  	vsetvli	a0, zero, e32, m1, ta, ma
     602: 16 85        	mv	a0, t0
     604: da 86        	mv	a3, s6
     606: 1e 87        	mv	a4, t2
     608: d7 34 80 9e  	vmv1r.v	v9, v8

000000000000060c <.LBB1_50>:
     60c: 07 65 87 02  	vl1re32.v	v10, (a4)
     610: 87 e5 86 02  	vl1re32.v	v11, (a3)
     614: d7 a4 a5 b6  	vmacc.vv	v9, v11, v10
     618: 6e 97        	add	a4, a4, s11
     61a: 33 05 85 41  	sub	a0, a0, s8
     61e: c6 96        	add	a3, a3, a7
     620: 01 e1        	bnez	a0, 0x620 <.LBB1_50+0x14>
     622: 57 65 00 42  	vmv.s.x	v10, zero
     626: d7 24 95 02  	vredsum.vs	v9, v9, v10
     62a: 57 f0 00 cd  	vsetivli	zero, 1, e32, m1, ta, ma
     62e: a7 64 06 02  	vse32.v	v9, (a2)
     632: 86 6b        	ld	s7, 64(sp)
     634: 06 75        	ld	a0, 96(sp)
     636: 01 c1        	beqz	a0, 0x636 <.LBB1_50+0x2a>
     638: d7 26 90 42  	vmv.x.s	a3, v9
     63c: 96 84        	mv	s1, t0

000000000000063e <.LBB1_53>:
     63e: e6 6a        	ld	s5, 88(sp)

0000000000000640 <.LBB1_54>:
     640: 33 85 9a 40  	sub	a0, s5, s1
     644: 33 87 9c 02  	mul	a4, s9, s1
     648: 22 97        	add	a4, a4, s0
     64a: 0a 07        	slli	a4, a4, 2
     64c: 4e 97        	add	a4, a4, s3
     64e: ea 94        	add	s1, s1, s10
     650: 8a 04        	slli	s1, s1, 2
     652: b3 0a 9a 00  	add	s5, s4, s1

0000000000000656 <.LBB1_55>:
     656: 83 a4 0a 00  	lw	s1, 0(s5)
     65a: 1c 43        	lw	a5, 0(a4)
     65c: bb 87 97 02  	mulw	a5, a5, s1
     660: be 96        	add	a3, a3, a5
     662: 14 c2        	sw	a3, 0(a2)
     664: 7d 15        	addi	a0, a0, -1
     666: 2e 97        	add	a4, a4, a1
     668: 91 0a        	addi	s5, s5, 4
     66a: 01 e1        	bnez	a0, 0x66a <.LBB1_55+0x14>
     66c: 01 a0        	j	0x66c <.LBB1_55+0x16>

000000000000066e <.LBB1_56>:
     66e: 22 75        	ld	a0, 40(sp)
     670: 33 06 95 03  	mul	a2, a0, s9
     674: 0a 06        	slli	a2, a2, 2
     676: 5e 85        	mv	a0, s7
     678: 81 45        	li	a1, 0
     67a: 97 00 00 00  	auipc	ra, 0
     67e: e7 80 00 00  	jalr	ra

0000000000000682 <.LBB1_57>:
     682: 73 25 20 c0  	rdinstret	a0
     686: e2 65        	ld	a1, 24(sp)
     688: 02 76        	ld	a2, 32(sp)
     68a: b2 95        	add	a1, a1, a2
     68c: 42 76        	ld	a2, 48(sp)
     68e: c6 66        	ld	a3, 80(sp)
     690: 36 96        	add	a2, a2, a3
     692: a6 66        	ld	a3, 72(sp)
     694: b6 95        	add	a1, a1, a3
     696: 32 95        	add	a0, a0, a2
     698: 33 06 b5 40  	sub	a2, a0, a1
     69c: 37 05 00 00  	lui	a0, 0
     6a0: 13 05 05 00  	mv	a0, a0
     6a4: 81 45        	li	a1, 0
     6a6: ae 60        	ld	ra, 200(sp)
     6a8: 0e 64        	ld	s0, 192(sp)
     6aa: ea 74        	ld	s1, 184(sp)
     6ac: 4a 79        	ld	s2, 176(sp)
     6ae: aa 79        	ld	s3, 168(sp)
     6b0: 0a 7a        	ld	s4, 160(sp)
     6b2: ea 6a        	ld	s5, 152(sp)
     6b4: 4a 6b        	ld	s6, 144(sp)
     6b6: aa 6b        	ld	s7, 136(sp)
     6b8: 0a 6c        	ld	s8, 128(sp)
     6ba: e6 7c        	ld	s9, 120(sp)
     6bc: 46 7d        	ld	s10, 112(sp)
     6be: a6 7d        	ld	s11, 104(sp)
     6c0: 69 61        	addi	sp, sp, 208
     6c2: 17 03 00 00  	auipc	t1, 0
     6c6: 67 00 03 00  	jr	t1
