
kernel.o:     file format elf64-littleriscv


Disassembly of section .text:

0000000000000000 <core_kernel>:
   0:	1141                	addi	sp,sp,-16
   2:	e422                	sd	s0,8(sp)
   4:	c0202473          	rdinstret	s0
   8:	ceb1                	beqz	a3,64 <.L2>
   a:	cf29                	beqz	a4,64 <.L2>
   c:	00271893          	slli	a7,a4,0x2
  10:	00279293          	slli	t0,a5,0x2
  14:	8e2a                	mv	t3,a0
  16:	8f32                	mv	t5,a2
  18:	00550833          	add	a6,a0,t0
  1c:	0006839b          	sext.w	t2,a3
  20:	01158eb3          	add	t4,a1,a7
  24:	4f81                	li	t6,0

0000000000000026 <.L4>:
  26:	832e                	mv	t1,a1
  28:	867a                	mv	a2,t5

000000000000002a <.L6>:
  2a:	00062023          	sw	zero,0(a2)
  2e:	869a                	mv	a3,t1
  30:	8772                	mv	a4,t3
  32:	f00007d3          	fmv.w.x	fa5,zero
  36:	cf89                	beqz	a5,50 <.L8>

0000000000000038 <.L5>:
  38:	00072687          	flw	fa3,0(a4)
  3c:	0006a707          	flw	fa4,0(a3)
  40:	0711                	addi	a4,a4,4
  42:	96c6                	add	a3,a3,a7
  44:	78e6f7c3          	fmadd.s	fa5,fa3,fa4,fa5
  48:	00f62027          	fsw	fa5,0(a2)
  4c:	fee816e3          	bne	a6,a4,38 <.L5>

0000000000000050 <.L8>:
  50:	0311                	addi	t1,t1,4
  52:	0611                	addi	a2,a2,4
  54:	fc6e9be3          	bne	t4,t1,2a <.L6>
  58:	2f85                	addiw	t6,t6,1
  5a:	9f46                	add	t5,t5,a7
  5c:	9e16                	add	t3,t3,t0
  5e:	9816                	add	a6,a6,t0
  60:	fc7f93e3          	bne	t6,t2,26 <.L4>

0000000000000064 <.L2>:
  64:	c0202573          	rdinstret	a0
  68:	8d01                	sub	a0,a0,s0
  6a:	6422                	ld	s0,8(sp)
  6c:	0141                	addi	sp,sp,16
  6e:	8082                	ret

0000000000000070 <core>:
  70:	715d                	addi	sp,sp,-80
  72:	e0a6                	sd	s1,64(sp)
  74:	f452                	sd	s4,40(sp)
  76:	e4a2                	sd	s0,72(sp)
  78:	fc4a                	sd	s2,56(sp)
  7a:	f84e                	sd	s3,48(sp)
  7c:	f056                	sd	s5,32(sp)
  7e:	ec5a                	sd	s6,24(sp)
  80:	e85e                	sd	s7,16(sp)
  82:	e462                	sd	s8,8(sp)
  84:	6e46                	ld	t3,80(sp)
  86:	6a66                	ld	s4,88(sp)
  88:	7306                	ld	t1,96(sp)
  8a:	74a6                	ld	s1,104(sp)
  8c:	c0202af3          	rdinstret	s5
  90:	04088f63          	beqz	a7,ee <.L24>
  94:	040e0d63          	beqz	t3,ee <.L24>
  98:	002e1913          	slli	s2,t3,0x2
  9c:	843a                	mv	s0,a4
  9e:	002a1b93          	slli	s7,s4,0x2
  a2:	00088c1b          	sext.w	s8,a7
  a6:	01258b33          	add	s6,a1,s2
  aa:	4381                	li	t2,0

00000000000000ac <.L26>:
  ac:	00ab89b3          	add	s3,s7,a0
  b0:	8f2e                	mv	t5,a1
  b2:	8ea2                	mv	t4,s0

00000000000000b4 <.L28>:
  b4:	000ea023          	sw	zero,0(t4)
  b8:	82fa                	mv	t0,t5
  ba:	8faa                	mv	t6,a0
  bc:	f00007d3          	fmv.w.x	fa5,zero
  c0:	000a0e63          	beqz	s4,dc <.L30>

00000000000000c4 <.L27>:
  c4:	000fa687          	flw	fa3,0(t6)
  c8:	0002a707          	flw	fa4,0(t0)
  cc:	0f91                	addi	t6,t6,4
  ce:	92ca                	add	t0,t0,s2
  d0:	78e6f7c3          	fmadd.s	fa5,fa3,fa4,fa5
  d4:	00fea027          	fsw	fa5,0(t4)
  d8:	ff3f96e3          	bne	t6,s3,c4 <.L27>

00000000000000dc <.L30>:
  dc:	0f11                	addi	t5,t5,4
  de:	0e91                	addi	t4,t4,4
  e0:	fdeb1ae3          	bne	s6,t5,b4 <.L28>
  e4:	2385                	addiw	t2,t2,1
  e6:	944a                	add	s0,s0,s2
  e8:	854e                	mv	a0,s3
  ea:	fd8391e3          	bne	t2,s8,ac <.L26>

00000000000000ee <.L24>:
  ee:	c0202f73          	rdinstret	t5
  f2:	415f0f33          	sub	t5,t5,s5
  f6:	c02029f3          	rdinstret	s3
  fa:	040e0e63          	beqz	t3,156 <.L31>
  fe:	04030c63          	beqz	t1,156 <.L31>
 102:	00231413          	slli	s0,t1,0x2
 106:	83be                	mv	t2,a5
 108:	00249b13          	slli	s6,s1,0x2
 10c:	000e0a9b          	sext.w	s5,t3
 110:	00868a33          	add	s4,a3,s0
 114:	4281                	li	t0,0

0000000000000116 <.L33>:
 116:	00cb0933          	add	s2,s6,a2
 11a:	8536                	mv	a0,a3
 11c:	859e                	mv	a1,t2

000000000000011e <.L35>:
 11e:	0005a023          	sw	zero,0(a1)
 122:	8faa                	mv	t6,a0
 124:	8eb2                	mv	t4,a2
 126:	f00007d3          	fmv.w.x	fa5,zero
 12a:	cc89                	beqz	s1,144 <.L37>

000000000000012c <.L34>:
 12c:	000ea687          	flw	fa3,0(t4)
 130:	000fa707          	flw	fa4,0(t6)
 134:	0e91                	addi	t4,t4,4
 136:	9fa2                	add	t6,t6,s0
 138:	78e6f7c3          	fmadd.s	fa5,fa3,fa4,fa5
 13c:	00f5a027          	fsw	fa5,0(a1)
 140:	ffd916e3          	bne	s2,t4,12c <.L34>

0000000000000144 <.L37>:
 144:	0511                	addi	a0,a0,4
 146:	0591                	addi	a1,a1,4
 148:	fcaa1be3          	bne	s4,a0,11e <.L35>
 14c:	2285                	addiw	t0,t0,1
 14e:	93a2                	add	t2,t2,s0
 150:	864a                	mv	a2,s2
 152:	fd5292e3          	bne	t0,s5,116 <.L33>

0000000000000156 <.L31>:
 156:	c02026f3          	rdinstret	a3
 15a:	413686b3          	sub	a3,a3,s3
 15e:	96fa                	add	a3,a3,t5
 160:	c02023f3          	rdinstret	t2
 164:	04088c63          	beqz	a7,1bc <.L38>
 168:	04030a63          	beqz	t1,1bc <.L38>
 16c:	030a                	slli	t1,t1,0x2
 16e:	002e1413          	slli	s0,t3,0x2
 172:	2881                	sext.w	a7,a7
 174:	00678633          	add	a2,a5,t1
 178:	4f81                	li	t6,0

000000000000017a <.L40>:
 17a:	00e402b3          	add	t0,s0,a4
 17e:	853e                	mv	a0,a5
 180:	85c2                	mv	a1,a6

0000000000000182 <.L42>:
 182:	0005a023          	sw	zero,0(a1)
 186:	8f2a                	mv	t5,a0
 188:	8eba                	mv	t4,a4
 18a:	f00007d3          	fmv.w.x	fa5,zero
 18e:	000e0e63          	beqz	t3,1aa <.L44>

0000000000000192 <.L41>:
 192:	000ea687          	flw	fa3,0(t4)
 196:	000f2707          	flw	fa4,0(t5)
 19a:	0e91                	addi	t4,t4,4
 19c:	9f1a                	add	t5,t5,t1
 19e:	78e6f7c3          	fmadd.s	fa5,fa3,fa4,fa5
 1a2:	00f5a027          	fsw	fa5,0(a1)
 1a6:	ffd296e3          	bne	t0,t4,192 <.L41>

00000000000001aa <.L44>:
 1aa:	0511                	addi	a0,a0,4
 1ac:	0591                	addi	a1,a1,4
 1ae:	fca61ae3          	bne	a2,a0,182 <.L42>
 1b2:	2f85                	addiw	t6,t6,1
 1b4:	981a                	add	a6,a6,t1
 1b6:	8716                	mv	a4,t0
 1b8:	fd1f91e3          	bne	t6,a7,17a <.L40>

00000000000001bc <.L38>:
 1bc:	c0202673          	rdinstret	a2
 1c0:	6426                	ld	s0,72(sp)
 1c2:	6486                	ld	s1,64(sp)
 1c4:	7962                	ld	s2,56(sp)
 1c6:	79c2                	ld	s3,48(sp)
 1c8:	7a22                	ld	s4,40(sp)
 1ca:	7a82                	ld	s5,32(sp)
 1cc:	6b62                	ld	s6,24(sp)
 1ce:	6bc2                	ld	s7,16(sp)
 1d0:	6c22                	ld	s8,8(sp)
 1d2:	40760633          	sub	a2,a2,t2
 1d6:	00000537          	lui	a0,0x0
 1da:	9636                	add	a2,a2,a3
 1dc:	4581                	li	a1,0
 1de:	00050513          	mv	a0,a0
 1e2:	6161                	addi	sp,sp,80
 1e4:	00000317          	auipc	t1,0x0
 1e8:	00030067          	jr	t1 # 1e4 <.L38+0x28>
