
kernel.o:     file format elf64-littleriscv


Disassembly of section .text:

0000000000000000 <core>:
   0:	c02027f3          	rdinstret	a5
   4:	219c                	fld	fa5,0(a1)
   6:	00000337          	lui	t1,0x0
   a:	00f33023          	sd	a5,0(t1) # 0 <core>
   e:	a21c                	fsd	fa5,0(a2)
  10:	2118                	fld	fa4,0(a0)
  12:	00860693          	addi	a3,a2,8
  16:	20060893          	addi	a7,a2,512
  1a:	1ae7f7d3          	fdiv.d	fa5,fa5,fa4
  1e:	20050813          	addi	a6,a0,512
  22:	fef6bc27          	fsd	fa5,-8(a3)
  26:	02d88e63          	beq	a7,a3,62 <.L7>

000000000000002a <.L4>:
  2a:	40c687b3          	sub	a5,a3,a2
  2e:	97ae                	add	a5,a5,a1
  30:	239c                	fld	fa5,0(a5)
  32:	8742                	mv	a4,a6
  34:	87b2                	mv	a5,a2
  36:	a29c                	fsd	fa5,0(a3)

0000000000000038 <.L3>:
  38:	2314                	fld	fa3,0(a4)
  3a:	2398                	fld	fa4,0(a5)
  3c:	07a1                	addi	a5,a5,8
  3e:	0721                	addi	a4,a4,8
  40:	7ae6f7cb          	fnmsub.d	fa5,fa3,fa4,fa5
  44:	a29c                	fsd	fa5,0(a3)
  46:	fef699e3          	bne	a3,a5,38 <.L3>
  4a:	20850513          	addi	a0,a0,520
  4e:	2118                	fld	fa4,0(a0)
  50:	06a1                	addi	a3,a3,8
  52:	20080813          	addi	a6,a6,512
  56:	1ae7f7d3          	fdiv.d	fa5,fa5,fa4
  5a:	fef6bc27          	fsd	fa5,-8(a3)
  5e:	fcd896e3          	bne	a7,a3,2a <.L4>

0000000000000062 <.L7>:
  62:	c02027f3          	rdinstret	a5
  66:	00033583          	ld	a1,0(t1)
  6a:	00000537          	lui	a0,0x0
  6e:	00000737          	lui	a4,0x0
  72:	863e                	mv	a2,a5
  74:	00050513          	mv	a0,a0
  78:	00f73023          	sd	a5,0(a4) # 0 <core>
  7c:	00000317          	auipc	t1,0x0
  80:	00030067          	jr	t1 # 7c <.L7+0x1a>
