
kernel.o:     file format elf64-littleriscv


Disassembly of section .text:

0000000000000000 <core>:
   0:	00000837          	lui	a6,0x0
   4:	00083707          	fld	fa4,0(a6) # 0 <core>
   8:	d20607d3          	fcvt.d.w	fa5,a2
   c:	4885                	li	a7,1
   e:	0ae7f7d3          	fsub.d	fa5,fa5,fa4
  12:	c2079853          	fcvt.w.d	a6,fa5,rtz
  16:	c0202373          	rdinstret	t1
  1a:	8ca6c08b          	ss.sta.ld.b	u1,a3,a0,a7
  1e:	52b0008b          	ss.end	u1,zero,a1,a0
  22:	0000108b          	ss.cfg.vec	u1
  26:	8ea7810b          	ss.st.b	u2,a5,a0,a7
  2a:	a98601ab          	so.v.mvsv.b	u3,a2

000000000000002e <.SLOOP_116>:
  2e:	a980022b          	so.v.mvsv.b	u4,zero

0000000000000032 <.SLOOP_1_016>:
  32:	2010a22b          	so.a.adde.acc.sg	u4,u1,p0
  36:	ffe08eab          	so.b.ndc.1	u1,32 <.SLOOP_1_016>
  3a:	1032612b          	so.a.div.sg	u2,u4,u3,p0
  3e:	fff0e8ab          	so.b.nc	u1,2e <.SLOOP_116>
  42:	54b6808b          	ss.sta.st.b	u1,a3,a1,a0
  46:	8aa0008b          	ss.end	u1,zero,a0,a7
  4a:	0000108b          	ss.cfg.vec	u1
  4e:	04b7c10b          	ss.sta.ld.b	u2,a5,a1,zero
  52:	8aa0010b          	ss.end	u2,zero,a0,a7
  56:	0000110b          	ss.cfg.vec	u2
  5a:	54b6c18b          	ss.sta.ld.b	u3,a3,a1,a0
  5e:	8aa0018b          	ss.end	u3,zero,a0,a7
  62:	0000118b          	ss.cfg.vec	u3

0000000000000066 <.SLOOP_216>:
  66:	0021e0ab          	so.a.sub.sg	u1,u3,u2,p0
  6a:	fff0eeab          	so.b.nc	u1,66 <.SLOOP_216>
  6e:	8ca6c08b          	ss.sta.ld.b	u1,a3,a0,a7
  72:	8845408b          	ss.app.mod.siz.dec	u1,a0,a7
  76:	88a0008b          	ss.app	u1,zero,a0,a7
  7a:	52b0008b          	ss.end	u1,zero,a1,a0
  7e:	0000108b          	ss.cfg.vec	u1
  82:	8ca6c10b          	ss.sta.ld.b	u2,a3,a0,a7
  86:	8845410b          	ss.app.mod.siz.dec	u2,a0,a7
  8a:	00a0010b          	ss.app	u2,zero,a0,zero
  8e:	52b0010b          	ss.end	u2,zero,a1,a0
  92:	0000110b          	ss.cfg.vec	u2
  96:	54a7018b          	ss.sta.st.b	u3,a4,a0,a0
  9a:	8825418b          	ss.app.mod.ofs.inc	u3,a0,a7
  9e:	8845418b          	ss.app.mod.siz.dec	u3,a0,a7
  a2:	8aa0018b          	ss.end	u3,zero,a0,a7
  a6:	8ca7020b          	ss.sta.st.b	u4,a4,a0,a7
  aa:	5025420b          	ss.app.mod.ofs.inc	u4,a0,a0
  ae:	8845420b          	ss.app.mod.siz.dec	u4,a0,a7
  b2:	52a0020b          	ss.end	u4,zero,a0,a0
  b6:	a98802ab          	so.v.mvsv.b	u5,a6

00000000000000ba <.SLOOP_316>:
  ba:	ac00032b          	so.v.dp.b	u6,zero,p0

00000000000000be <.SLOOP_3_0_016>:
  be:	101123ab          	so.a.mul.sg	u7,u2,u1,p0
  c2:	0073232b          	so.a.add.sg	u6,u6,u7,p0
  c6:	ffe10cab          	so.b.ndc.1	u2,be <.SLOOP_3_0_016>
  ca:	200323ab          	so.a.adde.sg	u7,u6,p0
  ce:	1053e42b          	so.a.div.sg	u8,u7,u5,p0
  d2:	a80401ab          	so.v.mv	u3,u8,p0
  d6:	a804022b          	so.v.mv	u4,u8,p0
  da:	fff0e0ab          	so.b.nc	u1,ba <.SLOOP_316>
  de:	c0202e73          	rdinstret	t3
  e2:	00000537          	lui	a0,0x0
  e6:	000006b7          	lui	a3,0x0
  ea:	00000737          	lui	a4,0x0
  ee:	8672                	mv	a2,t3
  f0:	859a                	mv	a1,t1
  f2:	00050513          	mv	a0,a0
  f6:	0066b023          	sd	t1,0(a3) # 0 <core>
  fa:	01c73023          	sd	t3,0(a4) # 0 <core>
  fe:	00000317          	auipc	t1,0x0
 102:	00030067          	jr	t1 # fe <.SLOOP_3_0_016+0x40>
