
kernel.o:	file format elf64-littleriscv

Disassembly of section .text:

0000000000000000 <.text>:
       0: 01 00        	nop

0000000000000002 <core>:
       2: f3 27 20 c0  	rdinstret	a5
       6: 37 08 00 00  	lui	a6, 0
       a: 23 30 f8 00  	sd	a5, 0(a6)
       e: 63 80 06 00  	beqz	a3, 0xe <core+0xc>
      12: f3 23 20 c2  	csrr	t2, vlenb
      16: 93 d8 23 00  	srli	a7, t2, 2
      1a: b1 47        	li	a5, 12
      1c: 63 e0 17 01  	bltu	a5, a7, 0x1c <core+0x1a>
      20: b1 48        	li	a7, 12

0000000000000022 <.LBB0_3>:
      22: 63 e0 16 01  	bltu	a3, a7, 0x22 <.LBB0_3>
      26: 93 98 13 00  	slli	a7, t2, 1
      2a: b3 07 a6 40  	sub	a5, a2, a0
      2e: 63 f0 17 01  	bgeu	a5, a7, 0x2e <.LBB0_3+0xc>

0000000000000032 <.LBB0_5>:
      32: 81 48        	li	a7, 0

0000000000000034 <.LBB0_6>:
      34: 13 93 28 00  	slli	t1, a7, 2
      38: b3 02 66 00  	add	t0, a2, t1
      3c: 2a 93        	add	t1, t1, a0
      3e: b3 88 16 41  	sub	a7, a3, a7

0000000000000042 <.LBB0_7>:
      42: 83 27 03 00  	lw	a5, 0(t1)
      46: 23 a0 f2 00  	sw	a5, 0(t0)
      4a: 91 02        	addi	t0, t0, 4
      4c: fd 18        	addi	a7, a7, -1
      4e: 11 03        	addi	t1, t1, 4
      50: 63 90 08 00  	bnez	a7, 0x50 <.LBB0_7+0xe>

0000000000000054 <.LBB0_8>:
      54: 81 c2        	beqz	a3, 0x54 <.LBB0_8>
      56: 93 d8 23 00  	srli	a7, t2, 2
      5a: a1 47        	li	a5, 8
      5c: 63 e0 17 01  	bltu	a5, a7, 0x5c <.LBB0_8+0x8>
      60: a1 48        	li	a7, 8

0000000000000062 <.LBB0_11>:
      62: 63 e0 16 01  	bltu	a3, a7, 0x62 <.LBB0_11>
      66: 93 98 13 00  	slli	a7, t2, 1
      6a: b3 87 c5 40  	sub	a5, a1, a2
      6e: 63 f0 17 01  	bgeu	a5, a7, 0x6e <.LBB0_11+0xc>

0000000000000072 <.LBB0_13>:
      72: 81 48        	li	a7, 0

0000000000000074 <.LBB0_14>:
      74: 13 93 28 00  	slli	t1, a7, 2
      78: b3 82 65 00  	add	t0, a1, t1
      7c: 32 93        	add	t1, t1, a2
      7e: b3 88 16 41  	sub	a7, a3, a7

0000000000000082 <.LBB0_15>:
      82: 83 27 03 00  	lw	a5, 0(t1)
      86: bb 87 e7 02  	mulw	a5, a5, a4
      8a: 23 a0 f2 00  	sw	a5, 0(t0)
      8e: 91 02        	addi	t0, t0, 4
      90: fd 18        	addi	a7, a7, -1
      92: 11 03        	addi	t1, t1, 4
      94: 63 90 08 00  	bnez	a7, 0x94 <.LBB0_15+0x12>

0000000000000098 <.LBB0_16>:
      98: 81 c2        	beqz	a3, 0x98 <.LBB0_16>
      9a: 93 d8 23 00  	srli	a7, t2, 2
      9e: b1 47        	li	a5, 12
      a0: 63 e0 17 01  	bltu	a5, a7, 0xa0 <.LBB0_16+0x8>
      a4: b1 48        	li	a7, 12

00000000000000a6 <.LBB0_19>:
      a6: 63 e0 16 01  	bltu	a3, a7, 0xa6 <.LBB0_19>
      aa: 93 98 13 00  	slli	a7, t2, 1
      ae: b3 07 a6 40  	sub	a5, a2, a0
      b2: b3 b2 17 01  	sltu	t0, a5, a7
      b6: b3 07 b6 40  	sub	a5, a2, a1
      ba: b3 b7 17 01  	sltu	a5, a5, a7
      be: b3 e7 f2 00  	or	a5, t0, a5
      c2: 63 80 07 00  	beqz	a5, 0xc2 <.LBB0_19+0x1c>

00000000000000c6 <.LBB0_21>:
      c6: 81 48        	li	a7, 0

00000000000000c8 <.LBB0_22>:
      c8: 13 9e 28 00  	slli	t3, a7, 2
      cc: b3 02 c6 01  	add	t0, a2, t3
      d0: 33 83 c5 01  	add	t1, a1, t3
      d4: 2a 9e        	add	t3, t3, a0
      d6: b3 8e 16 41  	sub	t4, a3, a7

00000000000000da <.LBB0_23>:
      da: 83 28 0e 00  	lw	a7, 0(t3)
      de: 83 27 03 00  	lw	a5, 0(t1)
      e2: c6 97        	add	a5, a5, a7
      e4: 23 a0 f2 00  	sw	a5, 0(t0)
      e8: 91 02        	addi	t0, t0, 4
      ea: 11 03        	addi	t1, t1, 4
      ec: fd 1e        	addi	t4, t4, -1
      ee: 11 0e        	addi	t3, t3, 4
      f0: 63 90 0e 00  	bnez	t4, 0xf0 <.LBB0_23+0x16>

00000000000000f4 <.LBB0_24>:
      f4: 81 c2        	beqz	a3, 0xf4 <.LBB0_24>
      f6: 93 d8 23 00  	srli	a7, t2, 2
      fa: b1 47        	li	a5, 12
      fc: 63 e0 17 01  	bltu	a5, a7, 0xfc <.LBB0_24+0x8>
     100: b1 48        	li	a7, 12

0000000000000102 <.LBB0_27>:
     102: 63 e0 16 01  	bltu	a3, a7, 0x102 <.LBB0_27>
     106: 93 98 13 00  	slli	a7, t2, 1
     10a: b3 07 b5 40  	sub	a5, a0, a1
     10e: b3 b2 17 01  	sltu	t0, a5, a7
     112: b3 07 c5 40  	sub	a5, a0, a2
     116: b3 b7 17 01  	sltu	a5, a5, a7
     11a: b3 e7 f2 00  	or	a5, t0, a5
     11e: 81 c3        	beqz	a5, 0x11e <.LBB0_27+0x1c>

0000000000000120 <.LBB0_29>:
     120: 81 48        	li	a7, 0

0000000000000122 <.LBB0_30>:
     122: 93 97 28 00  	slli	a5, a7, 2
     126: 3e 95        	add	a0, a0, a5
     128: 3e 96        	add	a2, a2, a5
     12a: be 95        	add	a1, a1, a5
     12c: b3 86 16 41  	sub	a3, a3, a7

0000000000000130 <.LBB0_31>:
     130: 1c 42        	lw	a5, 0(a2)
     132: 83 a8 05 00  	lw	a7, 0(a1)
     136: bb 87 e7 02  	mulw	a5, a5, a4
     13a: c6 97        	add	a5, a5, a7
     13c: 1c c1        	sw	a5, 0(a0)
     13e: 11 05        	addi	a0, a0, 4
     140: 11 06        	addi	a2, a2, 4
     142: fd 16        	addi	a3, a3, -1
     144: 91 05        	addi	a1, a1, 4
     146: 81 e2        	bnez	a3, 0x146 <.LBB0_31+0x16>

0000000000000148 <.LBB0_32>:
     148: 73 26 20 c0  	rdinstret	a2
     14c: 83 35 08 00  	ld	a1, 0(a6)
     150: b7 06 00 00  	lui	a3, 0
     154: 37 05 00 00  	lui	a0, 0
     158: 13 05 05 00  	mv	a0, a0
     15c: 23 b0 c6 00  	sd	a2, 0(a3)
     160: 17 03 00 00  	auipc	t1, 0
     164: 67 00 03 00  	jr	t1

0000000000000168 <.LBB0_33>:
     168: 13 d3 23 00  	srli	t1, t2, 2
     16c: 93 07 f3 ff  	addi	a5, t1, -1
     170: b3 f2 f6 00  	and	t0, a3, a5
     174: b3 88 56 40  	sub	a7, a3, t0
     178: 46 8e        	mv	t3, a7
     17a: b2 8e        	mv	t4, a2
     17c: aa 87        	mv	a5, a0

000000000000017e <.LBB0_34>:
     17e: 07 e4 87 02  	vl1re32.v	v8, (a5)
     182: 27 84 8e 02  	vs1r.v	v8, (t4)
     186: 9e 97        	add	a5, a5, t2
     188: 33 0e 6e 40  	sub	t3, t3, t1
     18c: 9e 9e        	add	t4, t4, t2
     18e: 63 10 0e 00  	bnez	t3, 0x18e <.LBB0_34+0x10>
     192: 63 90 02 00  	bnez	t0, 0x192 <.LBB0_34+0x14>
     196: 01 a0        	j	0x196 <.LBB0_34+0x18>

0000000000000198 <.LBB0_36>:
     198: 13 d3 23 00  	srli	t1, t2, 2
     19c: 93 07 f3 ff  	addi	a5, t1, -1
     1a0: b3 f2 f6 00  	and	t0, a3, a5
     1a4: b3 88 56 40  	sub	a7, a3, t0
     1a8: d7 77 00 0d  	vsetvli	a5, zero, e32, m1, ta, ma
     1ac: 46 8e        	mv	t3, a7
     1ae: ae 8e        	mv	t4, a1
     1b0: b2 87        	mv	a5, a2

00000000000001b2 <.LBB0_37>:
     1b2: 07 e4 87 02  	vl1re32.v	v8, (a5)
     1b6: 57 64 87 96  	vmul.vx	v8, v8, a4
     1ba: 27 84 8e 02  	vs1r.v	v8, (t4)
     1be: 9e 97        	add	a5, a5, t2
     1c0: 33 0e 6e 40  	sub	t3, t3, t1
     1c4: 9e 9e        	add	t4, t4, t2
     1c6: 63 10 0e 00  	bnez	t3, 0x1c6 <.LBB0_37+0x14>
     1ca: 63 90 02 00  	bnez	t0, 0x1ca <.LBB0_37+0x18>
     1ce: 01 a0        	j	0x1ce <.LBB0_37+0x1c>

00000000000001d0 <.LBB0_39>:
     1d0: 13 d3 23 00  	srli	t1, t2, 2
     1d4: 93 07 f3 ff  	addi	a5, t1, -1
     1d8: b3 f2 f6 00  	and	t0, a3, a5
     1dc: b3 88 56 40  	sub	a7, a3, t0
     1e0: d7 77 00 0d  	vsetvli	a5, zero, e32, m1, ta, ma
     1e4: 46 8e        	mv	t3, a7
     1e6: b2 8e        	mv	t4, a2
     1e8: 2e 8f        	mv	t5, a1
     1ea: aa 87        	mv	a5, a0

00000000000001ec <.LBB0_40>:
     1ec: 07 e4 87 02  	vl1re32.v	v8, (a5)
     1f0: 87 64 8f 02  	vl1re32.v	v9, (t5)
     1f4: 57 04 94 02  	vadd.vv	v8, v9, v8
     1f8: 27 84 8e 02  	vs1r.v	v8, (t4)
     1fc: 9e 97        	add	a5, a5, t2
     1fe: 1e 9f        	add	t5, t5, t2
     200: 33 0e 6e 40  	sub	t3, t3, t1
     204: 9e 9e        	add	t4, t4, t2
     206: 63 10 0e 00  	bnez	t3, 0x206 <.LBB0_40+0x1a>
     20a: 63 90 02 00  	bnez	t0, 0x20a <.LBB0_40+0x1e>
     20e: 01 a0        	j	0x20e <.LBB0_40+0x22>

0000000000000210 <.LBB0_42>:
     210: 13 d3 23 00  	srli	t1, t2, 2
     214: 93 07 f3 ff  	addi	a5, t1, -1
     218: b3 f2 f6 00  	and	t0, a3, a5
     21c: b3 88 56 40  	sub	a7, a3, t0
     220: d7 77 00 0d  	vsetvli	a5, zero, e32, m1, ta, ma
     224: 46 8e        	mv	t3, a7
     226: aa 8e        	mv	t4, a0
     228: 32 8f        	mv	t5, a2
     22a: ae 87        	mv	a5, a1

000000000000022c <.LBB0_43>:
     22c: 07 e4 87 02  	vl1re32.v	v8, (a5)
     230: 87 64 8f 02  	vl1re32.v	v9, (t5)
     234: d7 64 87 a6  	vmadd.vx	v9, a4, v8
     238: a7 84 8e 02  	vs1r.v	v9, (t4)
     23c: 9e 97        	add	a5, a5, t2
     23e: 1e 9f        	add	t5, t5, t2
     240: 33 0e 6e 40  	sub	t3, t3, t1
     244: 9e 9e        	add	t4, t4, t2
     246: 63 10 0e 00  	bnez	t3, 0x246 <.LBB0_43+0x1a>
     24a: 63 90 02 00  	bnez	t0, 0x24a <.LBB0_43+0x1e>
     24e: 01 a0        	j	0x24e <.LBB0_43+0x22>
