
kernel.o:     file format elf64-littleriscv


Disassembly of section .text:

0000000000000000 <core>:
   0:	c02027f3          	rdinstret	a5
   4:	6695                	lui	a3,0x5
   6:	00000637          	lui	a2,0x0
   a:	e1068693          	addi	a3,a3,-496 # 4e10 <.L3+0x4dcc>
   e:	00f63023          	sd	a5,0(a2) # 0 <core>
  12:	00858713          	addi	a4,a1,8
  16:	87aa                	mv	a5,a0
  18:	96aa                	add	a3,a3,a0

000000000000001a <.L2>:
  1a:	239c                	fld	fa5,0(a5)
  1c:	2794                	fld	fa3,8(a5)
  1e:	2b98                	fld	fa4,16(a5)
  20:	0721                	addi	a4,a4,8
  22:	02d7f7d3          	fadd.d	fa5,fa5,fa3
  26:	07a1                	addi	a5,a5,8
  28:	02e7f7d3          	fadd.d	fa5,fa5,fa4
  2c:	12a7f7d3          	fmul.d	fa5,fa5,fa0
  30:	fef73c27          	fsd	fa5,-8(a4)
  34:	fef693e3          	bne	a3,a5,1a <.L2>
  38:	6715                	lui	a4,0x5
  3a:	e1070713          	addi	a4,a4,-496 # 4e10 <.L3+0x4dcc>
  3e:	00850793          	addi	a5,a0,8
  42:	972e                	add	a4,a4,a1

0000000000000044 <.L3>:
  44:	219c                	fld	fa5,0(a1)
  46:	2594                	fld	fa3,8(a1)
  48:	2998                	fld	fa4,16(a1)
  4a:	07a1                	addi	a5,a5,8
  4c:	02d7f7d3          	fadd.d	fa5,fa5,fa3
  50:	05a1                	addi	a1,a1,8
  52:	02e7f7d3          	fadd.d	fa5,fa5,fa4
  56:	12a7f7d3          	fmul.d	fa5,fa5,fa0
  5a:	fef7bc27          	fsd	fa5,-8(a5)
  5e:	feb713e3          	bne	a4,a1,44 <.L3>
  62:	c02027f3          	rdinstret	a5
  66:	00063583          	ld	a1,0(a2)
  6a:	00000537          	lui	a0,0x0
  6e:	00000737          	lui	a4,0x0
  72:	863e                	mv	a2,a5
  74:	00050513          	mv	a0,a0
  78:	00f73023          	sd	a5,0(a4) # 0 <core>
  7c:	00000317          	auipc	t1,0x0
  80:	00030067          	jr	t1 # 7c <.L3+0x38>
