
kernel.o:	file format elf64-littleriscv

Disassembly of section .text:

0000000000000000 <.text>:
       0: 01 00        	nop

0000000000000002 <core>:
       2: 73 26 20 c0  	rdinstret	a2
       6: b7 06 00 00  	lui	a3, 0
       a: 23 b0 c6 00  	sd	a2, 0(a3)
       e: 73 23 20 c2  	csrr	t1, vlenb
      12: 13 56 23 00  	srli	a2, t1, 2
      16: 11 47        	li	a4, 4
      18: fd 76        	lui	a3, 1048575
      1a: 63 60 c7 00  	bltu	a4, a2, 0x1a <core+0x18>
      1e: 11 46        	li	a2, 4

0000000000000020 <.LBB0_2>:
      20: 1b 88 d6 63  	addiw	a6, a3, 1597
      24: 85 66        	lui	a3, 1
      26: 9b 86 26 9c  	addiw	a3, a3, -1598
      2a: 85 42        	li	t0, 1
      2c: 63 e0 c6 00  	bltu	a3, a2, 0x2c <.LBB0_2+0xc>
      30: 93 87 45 00  	addi	a5, a1, 4
      34: 09 66        	lui	a2, 2
      36: 9b 06 c6 70  	addiw	a3, a2, 1804
      3a: ae 96        	add	a3, a3, a1
      3c: 1b 06 06 71  	addiw	a2, a2, 1808
      40: 2a 96        	add	a2, a2, a0
      42: 33 b6 c7 00  	sltu	a2, a5, a2
      46: b3 36 d5 00  	sltu	a3, a0, a3
      4a: 75 8e        	and	a2, a2, a3
      4c: 01 e2        	bnez	a2, 0x4c <.LBB0_2+0x2c>
      4e: 93 53 23 00  	srli	t2, t1, 2
      52: 93 86 f3 ff  	addi	a3, t2, -1
      56: 05 67        	lui	a4, 1
      58: 1b 07 27 9c  	addiw	a4, a4, -1598
      5c: b3 f8 e6 00  	and	a7, a3, a4
      60: 33 07 17 41  	sub	a4, a4, a7
      64: 93 02 17 00  	addi	t0, a4, 1
      68: d7 76 00 0d  	vsetvli	a3, zero, e32, m1, ta, ma
      6c: aa 86        	mv	a3, a0

000000000000006e <.LBB0_5>:
      6e: 13 86 46 00  	addi	a2, a3, 4
      72: 07 e4 86 02  	vl1re32.v	v8, (a3)
      76: 87 64 86 02  	vl1re32.v	v9, (a2)
      7a: 13 86 86 00  	addi	a2, a3, 8
      7e: 07 65 86 02  	vl1re32.v	v10, (a2)
      82: 57 14 94 02  	vfadd.vv	v8, v9, v8
      86: 57 14 85 02  	vfadd.vv	v8, v8, v10
      8a: 57 54 85 92  	vfmul.vf	v8, v8, fa0
      8e: 27 84 87 02  	vs1r.v	v8, (a5)
      92: 9a 96        	add	a3, a3, t1
      94: 33 07 77 40  	sub	a4, a4, t2
      98: 9a 97        	add	a5, a5, t1
      9a: 01 e3        	bnez	a4, 0x9a <.LBB0_5+0x2c>
      9c: 63 80 08 00  	beqz	a7, 0x9c <.LBB0_5+0x2e>

00000000000000a0 <.LBB0_7>:
      a0: 13 96 22 00  	slli	a2, t0, 2
      a4: b3 06 c5 00  	add	a3, a0, a2
      a8: 2e 96        	add	a2, a2, a1
      aa: c2 92        	add	t0, t0, a6

00000000000000ac <.LBB0_8>:
      ac: 07 a0 c6 ff  	flw	ft0, -4(a3)
      b0: 87 a0 06 00  	flw	ft1, 0(a3)
      b4: 07 a1 46 00  	flw	ft2, 4(a3)
      b8: 53 f0 00 00  	fadd.s	ft0, ft1, ft0
      bc: 91 06        	addi	a3, a3, 4
      be: 53 70 20 00  	fadd.s	ft0, ft0, ft2
      c2: 53 70 a0 10  	fmul.s	ft0, ft0, fa0
      c6: 27 20 06 00  	fsw	ft0, 0(a2)
      ca: 85 02        	addi	t0, t0, 1
      cc: 11 06        	addi	a2, a2, 4
      ce: 63 90 02 00  	bnez	t0, 0xce <.LBB0_8+0x22>

00000000000000d2 <.LBB0_9>:
      d2: 13 56 23 00  	srli	a2, t1, 2
      d6: 91 46        	li	a3, 4
      d8: 63 e0 c6 00  	bltu	a3, a2, 0xd8 <.LBB0_9+0x6>
      dc: 11 46        	li	a2, 4

00000000000000de <.LBB0_11>:
      de: 85 66        	lui	a3, 1
      e0: 9b 86 26 9c  	addiw	a3, a3, -1598
      e4: 85 42        	li	t0, 1
      e6: 63 e0 c6 00  	bltu	a3, a2, 0xe6 <.LBB0_11+0x8>
      ea: 93 07 45 00  	addi	a5, a0, 4
      ee: 09 66        	lui	a2, 2
      f0: 9b 06 c6 70  	addiw	a3, a2, 1804
      f4: aa 96        	add	a3, a3, a0
      f6: 1b 06 06 71  	addiw	a2, a2, 1808
      fa: 2e 96        	add	a2, a2, a1
      fc: 33 b6 c7 00  	sltu	a2, a5, a2
     100: b3 b6 d5 00  	sltu	a3, a1, a3
     104: 75 8e        	and	a2, a2, a3
     106: 01 e2        	bnez	a2, 0x106 <.LBB0_11+0x28>
     108: 93 53 23 00  	srli	t2, t1, 2
     10c: 93 86 f3 ff  	addi	a3, t2, -1
     110: 05 67        	lui	a4, 1
     112: 1b 07 27 9c  	addiw	a4, a4, -1598
     116: b3 f8 e6 00  	and	a7, a3, a4
     11a: 33 07 17 41  	sub	a4, a4, a7
     11e: 93 02 17 00  	addi	t0, a4, 1
     122: d7 76 00 0d  	vsetvli	a3, zero, e32, m1, ta, ma
     126: ae 86        	mv	a3, a1

0000000000000128 <.LBB0_14>:
     128: 13 86 46 00  	addi	a2, a3, 4
     12c: 07 e4 86 02  	vl1re32.v	v8, (a3)
     130: 87 64 86 02  	vl1re32.v	v9, (a2)
     134: 13 86 86 00  	addi	a2, a3, 8
     138: 07 65 86 02  	vl1re32.v	v10, (a2)
     13c: 57 14 94 02  	vfadd.vv	v8, v9, v8
     140: 57 14 85 02  	vfadd.vv	v8, v8, v10
     144: 57 54 85 92  	vfmul.vf	v8, v8, fa0
     148: 27 84 87 02  	vs1r.v	v8, (a5)
     14c: 9a 96        	add	a3, a3, t1
     14e: 33 07 77 40  	sub	a4, a4, t2
     152: 9a 97        	add	a5, a5, t1
     154: 01 e3        	bnez	a4, 0x154 <.LBB0_14+0x2c>
     156: 63 80 08 00  	beqz	a7, 0x156 <.LBB0_14+0x2e>

000000000000015a <.LBB0_16>:
     15a: 13 96 22 00  	slli	a2, t0, 2
     15e: b2 95        	add	a1, a1, a2
     160: 32 95        	add	a0, a0, a2
     162: 16 98        	add	a6, a6, t0

0000000000000164 <.LBB0_17>:
     164: 07 a0 c5 ff  	flw	ft0, -4(a1)
     168: 87 a0 05 00  	flw	ft1, 0(a1)
     16c: 07 a1 45 00  	flw	ft2, 4(a1)
     170: 53 f0 00 00  	fadd.s	ft0, ft1, ft0
     174: 91 05        	addi	a1, a1, 4
     176: 53 70 20 00  	fadd.s	ft0, ft0, ft2
     17a: 53 70 a0 10  	fmul.s	ft0, ft0, fa0
     17e: 27 20 05 00  	fsw	ft0, 0(a0)
     182: 05 08        	addi	a6, a6, 1
     184: 11 05        	addi	a0, a0, 4
     186: 63 10 08 00  	bnez	a6, 0x186 <.LBB0_17+0x22>

000000000000018a <.LBB0_18>:
     18a: 73 26 20 c0  	rdinstret	a2
     18e: 37 05 00 00  	lui	a0, 0
     192: 83 35 05 00  	ld	a1, 0(a0)
     196: b7 06 00 00  	lui	a3, 0
     19a: 37 05 00 00  	lui	a0, 0
     19e: 13 05 05 00  	mv	a0, a0
     1a2: 23 b0 c6 00  	sd	a2, 0(a3)
     1a6: 17 03 00 00  	auipc	t1, 0
     1aa: 67 00 03 00  	jr	t1
