
kernel.o:	file format elf64-littleriscv

Disassembly of section .text:

0000000000000000 <.text>:
       0: 01 00        	nop

0000000000000002 <core>:
       2: 5d 71        	addi	sp, sp, -80
       4: a2 e4        	sd	s0, 72(sp)
       6: a6 e0        	sd	s1, 64(sp)
       8: 4a fc        	sd	s2, 56(sp)
       a: 4e f8        	sd	s3, 48(sp)
       c: 52 f4        	sd	s4, 40(sp)
       e: 56 f0        	sd	s5, 32(sp)
      10: 5a ec        	sd	s6, 24(sp)
      12: 5e e8        	sd	s7, 16(sp)
      14: 62 e4        	sd	s8, 8(sp)
      16: f3 26 20 c0  	rdinstret	a3
      1a: 37 07 00 00  	lui	a4, 0
      1e: f3 2a 20 c2  	csrr	s5, vlenb
      22: 13 d8 3a 00  	srli	a6, s5, 3
      26: 89 47        	li	a5, 2
      28: 23 30 d7 00  	sd	a3, 0(a4)
      2c: 63 e0 07 01  	bltu	a5, a6, 0x2c <core+0x2a>
      30: 09 48        	li	a6, 2

0000000000000032 <.LBB0_2>:
      32: 81 42        	li	t0, 0
      34: 01 43        	li	t1, 0
      36: 93 08 86 04  	addi	a7, a2, 72
      3a: 13 8b 85 19  	addi	s6, a1, 408
      3e: 93 03 20 03  	li	t2, 50
      42: 13 0e 50 06  	li	t3, 101
      46: 85 4e        	li	t4, 1
      48: 93 09 30 03  	li	s3, 51
      4c: 13 0f 00 03  	li	t5, 48
      50: 93 0f 10 03  	li	t6, 49
      54: 13 09 00 19  	li	s2, 400
      58: 05 4a        	li	s4, 1
      5a: 01 a0        	j	0x5a <.LBB0_2+0x28>

000000000000005c <.LBB0_3>:
      5c: 05 0a        	addi	s4, s4, 1
      5e: 05 03        	addi	t1, t1, 1
      60: 93 82 02 19  	addi	t0, t0, 400
      64: 93 83 23 03  	addi	t2, t2, 50
      68: 13 0e 2e 03  	addi	t3, t3, 50
      6c: 93 8e 2e 03  	addi	t4, t4, 50
      70: 93 89 29 03  	addi	s3, s3, 50
      74: 63 00 fa 01  	beq	s4, t6, 0x74 <.LBB0_3+0x18>

0000000000000078 <.LBB0_4>:
      78: 05 4c        	li	s8, 1
      7a: 63 60 0f 01  	bltu	t5, a6, 0x7a <.LBB0_4+0x2>
      7e: b3 06 23 03  	mul	a3, t1, s2
      82: 33 07 d5 00  	add	a4, a0, a3
      86: 93 0b 07 4b  	addi	s7, a4, 1200
      8a: ae 96        	add	a3, a3, a1
      8c: 13 84 86 31  	addi	s0, a3, 792
      90: 93 86 86 19  	addi	a3, a3, 408
      94: b3 b4 16 01  	sltu	s1, a3, a7
      98: b3 37 86 00  	sltu	a5, a2, s0
      9c: e5 8f        	and	a5, a5, s1
      9e: b3 b6 76 01  	sltu	a3, a3, s7
      a2: 33 37 87 00  	sltu	a4, a4, s0
      a6: f9 8e        	and	a3, a3, a4
      a8: dd 8e        	or	a3, a3, a5
      aa: 05 4c        	li	s8, 1
      ac: 81 e2        	bnez	a3, 0xac <.LBB0_4+0x34>
      ae: 93 d6 3a 00  	srli	a3, s5, 3
      b2: 1b 87 f6 ff  	addiw	a4, a3, -1
      b6: 93 7b 07 03  	andi	s7, a4, 48
      ba: 07 30 06 00  	fld	ft0, 0(a2)
      be: 87 30 86 01  	fld	ft1, 24(a2)
      c2: 07 31 06 03  	fld	ft2, 48(a2)
      c6: 87 31 86 00  	fld	ft3, 8(a2)
      ca: 07 32 06 02  	fld	ft4, 32(a2)
      ce: 87 32 86 03  	fld	ft5, 56(a2)
      d2: 07 33 06 01  	fld	ft6, 16(a2)
      d6: 87 33 86 02  	fld	ft7, 40(a2)
      da: 28 22        	fld	fa0, 64(a2)
      dc: 93 c7 0b 03  	xori	a5, s7, 48
      e0: 13 cc 1b 03  	xori	s8, s7, 49
      e4: d7 74 80 0d  	vsetvli	s1, zero, e64, m1, ta, ma
      e8: 16 87        	mv	a4, t0

00000000000000ea <.LBB0_7>:
      ea: b3 04 e5 00  	add	s1, a0, a4
      ee: 13 84 04 33  	addi	s0, s1, 816
      f2: 07 74 84 02  	vl1re64.v	v8, (s0)
      f6: 57 54 80 92  	vfmul.vf	v8, v8, ft0
      fa: 13 84 04 1a  	addi	s0, s1, 416
      fe: 87 74 84 02  	vl1re64.v	v9, (s0)
     102: 13 84 04 01  	addi	s0, s1, 16
     106: 07 75 84 02  	vl1re64.v	v10, (s0)
     10a: 13 84 84 32  	addi	s0, s1, 808
     10e: 87 75 84 02  	vl1re64.v	v11, (s0)
     112: 13 84 84 19  	addi	s0, s1, 408
     116: 07 76 84 02  	vl1re64.v	v12, (s0)
     11a: d7 d4 80 a2  	vfmadd.vf	v9, ft1, v8
     11e: 57 55 91 a2  	vfmadd.vf	v10, ft2, v9
     122: d7 d5 a1 a2  	vfmadd.vf	v11, ft3, v10
     126: 57 56 b2 a2  	vfmadd.vf	v12, ft4, v11
     12a: 13 84 84 00  	addi	s0, s1, 8
     12e: 07 74 84 02  	vl1re64.v	v8, (s0)
     132: 13 84 04 32  	addi	s0, s1, 800
     136: 87 74 84 02  	vl1re64.v	v9, (s0)
     13a: 13 84 04 19  	addi	s0, s1, 400
     13e: 07 75 84 02  	vl1re64.v	v10, (s0)
     142: 87 f5 84 02  	vl1re64.v	v11, (s1)
     146: 57 d4 c2 a2  	vfmadd.vf	v8, ft5, v12
     14a: d7 54 83 a2  	vfmadd.vf	v9, ft6, v8
     14e: 57 d5 93 a2  	vfmadd.vf	v10, ft7, v9
     152: d7 55 a5 a2  	vfmadd.vf	v11, fa0, v10
     156: 33 04 eb 00  	add	s0, s6, a4
     15a: a7 05 84 02  	vs1r.v	v11, (s0)
     15e: 95 8f        	sub	a5, a5, a3
     160: 56 97        	add	a4, a4, s5
     162: 81 e3        	bnez	a5, 0x162 <.LBB0_7+0x78>
     164: 63 80 0b 00  	beqz	s7, 0x164 <.LBB0_7+0x7a>

0000000000000168 <.LBB0_9>:
     168: 13 07 fc fc  	addi	a4, s8, -49
     16c: b3 06 7c 00  	add	a3, s8, t2
     170: 8e 06        	slli	a3, a3, 3
     172: ae 96        	add	a3, a3, a1
     174: b3 07 cc 01  	add	a5, s8, t3
     178: 8e 07        	slli	a5, a5, 3
     17a: b3 04 f5 00  	add	s1, a0, a5
     17e: b3 07 dc 01  	add	a5, s8, t4
     182: 8e 07        	slli	a5, a5, 3
     184: aa 97        	add	a5, a5, a0
     186: 4e 9c        	add	s8, s8, s3
     188: 13 14 3c 00  	slli	s0, s8, 3
     18c: 2a 94        	add	s0, s0, a0

000000000000018e <.LBB0_10>:
     18e: 07 30 06 00  	fld	ft0, 0(a2)
     192: 87 b0 04 00  	fld	ft1, 0(s1)
     196: 53 f0 00 12  	fmul.d	ft0, ft1, ft0
     19a: 87 30 86 01  	fld	ft1, 24(a2)
     19e: 07 31 04 00  	fld	ft2, 0(s0)
     1a2: 87 31 06 03  	fld	ft3, 48(a2)
     1a6: 07 b2 07 00  	fld	ft4, 0(a5)
     1aa: 87 32 86 00  	fld	ft5, 8(a2)
     1ae: 07 b3 84 ff  	fld	ft6, -8(s1)
     1b2: 87 33 06 02  	fld	ft7, 32(a2)
     1b6: 07 b5 84 e6  	fld	fa0, -408(s1)
     1ba: 43 70 11 02  	fmadd.d	ft0, ft2, ft1, ft0
     1be: 43 70 32 02  	fmadd.d	ft0, ft4, ft3, ft0
     1c2: 43 70 53 02  	fmadd.d	ft0, ft6, ft5, ft0
     1c6: 43 70 75 02  	fmadd.d	ft0, fa0, ft7, ft0
     1ca: 87 30 86 03  	fld	ft1, 56(a2)
     1ce: 07 b1 84 cd  	fld	ft2, -808(s1)
     1d2: 87 31 06 01  	fld	ft3, 16(a2)
     1d6: 07 b2 04 ff  	fld	ft4, -16(s1)
     1da: 87 32 86 02  	fld	ft5, 40(a2)
     1de: 07 b3 04 e6  	fld	ft6, -416(s1)
     1e2: 87 33 06 04  	fld	ft7, 64(a2)
     1e6: 07 b5 04 cd  	fld	fa0, -816(s1)
     1ea: 43 70 11 02  	fmadd.d	ft0, ft2, ft1, ft0
     1ee: 43 70 32 02  	fmadd.d	ft0, ft4, ft3, ft0
     1f2: 43 70 53 02  	fmadd.d	ft0, ft6, ft5, ft0
     1f6: 43 70 75 02  	fmadd.d	ft0, fa0, ft7, ft0
     1fa: 27 b0 06 00  	fsd	ft0, 0(a3)
     1fe: 05 07        	addi	a4, a4, 1
     200: a1 06        	addi	a3, a3, 8
     202: a1 04        	addi	s1, s1, 8
     204: a1 07        	addi	a5, a5, 8
     206: 21 04        	addi	s0, s0, 8
     208: 01 e3        	bnez	a4, 0x208 <.LBB0_10+0x7a>
     20a: 01 a0        	j	0x20a <.LBB0_10+0x7c>

000000000000020c <.LBB0_11>:
     20c: 73 26 20 c0  	rdinstret	a2
     210: 37 05 00 00  	lui	a0, 0
     214: 83 35 05 00  	ld	a1, 0(a0)
     218: b7 06 00 00  	lui	a3, 0
     21c: 37 05 00 00  	lui	a0, 0
     220: 13 05 05 00  	mv	a0, a0
     224: 23 b0 c6 00  	sd	a2, 0(a3)
     228: 26 64        	ld	s0, 72(sp)
     22a: 86 64        	ld	s1, 64(sp)
     22c: 62 79        	ld	s2, 56(sp)
     22e: c2 79        	ld	s3, 48(sp)
     230: 22 7a        	ld	s4, 40(sp)
     232: 82 7a        	ld	s5, 32(sp)
     234: 62 6b        	ld	s6, 24(sp)
     236: c2 6b        	ld	s7, 16(sp)
     238: 22 6c        	ld	s8, 8(sp)
     23a: 61 61        	addi	sp, sp, 80
     23c: 17 03 00 00  	auipc	t1, 0
     240: 67 00 03 00  	jr	t1
