
run_uve:     file format elf64-littleriscv


Disassembly of section .text:

00000000000100b0 <main>:
   100b0:	7151                	addi	sp,sp,-240
   100b2:	850a                	mv	a0,sp
   100b4:	f586                	sd	ra,232(sp)
   100b6:	f1a2                	sd	s0,224(sp)
   100b8:	eda6                	sd	s1,216(sp)
   100ba:	e9ca                	sd	s2,208(sp)
   100bc:	e5ce                	sd	s3,200(sp)
   100be:	198000ef          	jal	ra,10256 <initArray>
   100c2:	0005d7b7          	lui	a5,0x5d
   100c6:	ad87a507          	flw	fa0,-1320(a5) # 5cad8 <mask+0x8>
   100ca:	0080                	addi	s0,sp,64
   100cc:	8522                	mv	a0,s0
   100ce:	2b2000ef          	jal	ra,10380 <initConstant>
   100d2:	08010993          	addi	s3,sp,128
   100d6:	854e                	mv	a0,s3
   100d8:	29e000ef          	jal	ra,10376 <initZero>
   100dc:	8622                	mv	a2,s0
   100de:	858a                	mv	a1,sp
   100e0:	854e                	mv	a0,s3
   100e2:	2e0000ef          	jal	ra,103c2 <core>
   100e6:	848a                	mv	s1,sp
   100e8:	0005a937          	lui	s2,0x5a
   100ec:	0004a787          	flw	fa5,0(s1)
   100f0:	c9890513          	addi	a0,s2,-872 # 59c98 <__clzdi2+0x40044>
   100f4:	0491                	addi	s1,s1,4
   100f6:	420787d3          	fcvt.d.s	fa5,fa5
   100fa:	e20785d3          	fmv.x.d	a1,fa5
   100fe:	574000ef          	jal	ra,10672 <printf>
   10102:	fe9415e3          	bne	s0,s1,100ec <main+0x3c>
   10106:	0005a4b7          	lui	s1,0x5a
   1010a:	ca048513          	addi	a0,s1,-864 # 59ca0 <__clzdi2+0x4004c>
   1010e:	608000ef          	jal	ra,10716 <puts>
   10112:	00042787          	flw	fa5,0(s0)
   10116:	c9890513          	addi	a0,s2,-872
   1011a:	0411                	addi	s0,s0,4
   1011c:	420787d3          	fcvt.d.s	fa5,fa5
   10120:	e20785d3          	fmv.x.d	a1,fa5
   10124:	54e000ef          	jal	ra,10672 <printf>
   10128:	ff3415e3          	bne	s0,s3,10112 <main+0x62>
   1012c:	ca048513          	addi	a0,s1,-864
   10130:	5e6000ef          	jal	ra,10716 <puts>
   10134:	0184                	addi	s1,sp,192
   10136:	00042787          	flw	fa5,0(s0)
   1013a:	c9890513          	addi	a0,s2,-872
   1013e:	0411                	addi	s0,s0,4
   10140:	420787d3          	fcvt.d.s	fa5,fa5
   10144:	e20785d3          	fmv.x.d	a1,fa5
   10148:	52a000ef          	jal	ra,10672 <printf>
   1014c:	fe8495e3          	bne	s1,s0,10136 <main+0x86>
   10150:	70ae                	ld	ra,232(sp)
   10152:	740e                	ld	s0,224(sp)
   10154:	64ee                	ld	s1,216(sp)
   10156:	694e                	ld	s2,208(sp)
   10158:	69ae                	ld	s3,200(sp)
   1015a:	4501                	li	a0,0
   1015c:	616d                	addi	sp,sp,240
   1015e:	8082                	ret

0000000000010160 <_start>:
   10160:	0004d197          	auipc	gp,0x4d
   10164:	15818193          	addi	gp,gp,344 # 5d2b8 <__global_pointer$>
   10168:	85018513          	addi	a0,gp,-1968 # 5cb08 <_edata>
   1016c:	8e018613          	addi	a2,gp,-1824 # 5cb98 <_end>
   10170:	8e09                	sub	a2,a2,a0
   10172:	4581                	li	a1,0
   10174:	432000ef          	jal	ra,105a6 <memset>
   10178:	00000517          	auipc	a0,0x0
   1017c:	2ca50513          	addi	a0,a0,714 # 10442 <__libc_fini_array>
   10180:	298000ef          	jal	ra,10418 <atexit>
   10184:	2fa000ef          	jal	ra,1047e <__libc_init_array>
   10188:	4502                	lw	a0,0(sp)
   1018a:	002c                	addi	a1,sp,8
   1018c:	4601                	li	a2,0
   1018e:	f23ff0ef          	jal	ra,100b0 <main>
   10192:	2920006f          	j	10424 <exit>

0000000000010196 <_fini>:
   10196:	8082                	ret

0000000000010198 <deregister_tm_clones>:
   10198:	0005d537          	lui	a0,0x5d
   1019c:	0005d7b7          	lui	a5,0x5d
   101a0:	ab850713          	addi	a4,a0,-1352 # 5cab8 <__TMC_END__>
   101a4:	ab878793          	addi	a5,a5,-1352 # 5cab8 <__TMC_END__>
   101a8:	00e78b63          	beq	a5,a4,101be <deregister_tm_clones+0x26>
   101ac:	00000337          	lui	t1,0x0
   101b0:	00030313          	mv	t1,t1
   101b4:	00030563          	beqz	t1,101be <deregister_tm_clones+0x26>
   101b8:	ab850513          	addi	a0,a0,-1352
   101bc:	8302                	jr	t1
   101be:	8082                	ret

00000000000101c0 <register_tm_clones>:
   101c0:	0005d7b7          	lui	a5,0x5d
   101c4:	0005d537          	lui	a0,0x5d
   101c8:	ab878593          	addi	a1,a5,-1352 # 5cab8 <__TMC_END__>
   101cc:	ab850793          	addi	a5,a0,-1352 # 5cab8 <__TMC_END__>
   101d0:	8d9d                	sub	a1,a1,a5
   101d2:	858d                	srai	a1,a1,0x3
   101d4:	4789                	li	a5,2
   101d6:	02f5c5b3          	div	a1,a1,a5
   101da:	c991                	beqz	a1,101ee <register_tm_clones+0x2e>
   101dc:	00000337          	lui	t1,0x0
   101e0:	00030313          	mv	t1,t1
   101e4:	00030563          	beqz	t1,101ee <register_tm_clones+0x2e>
   101e8:	ab850513          	addi	a0,a0,-1352
   101ec:	8302                	jr	t1
   101ee:	8082                	ret

00000000000101f0 <__do_global_dtors_aux>:
   101f0:	8781c703          	lbu	a4,-1928(gp) # 5cb30 <completed.5466>
   101f4:	eb1d                	bnez	a4,1022a <__do_global_dtors_aux+0x3a>
   101f6:	1141                	addi	sp,sp,-16
   101f8:	e022                	sd	s0,0(sp)
   101fa:	e406                	sd	ra,8(sp)
   101fc:	843e                	mv	s0,a5
   101fe:	f9bff0ef          	jal	ra,10198 <deregister_tm_clones>
   10202:	000007b7          	lui	a5,0x0
   10206:	00078793          	mv	a5,a5
   1020a:	cb89                	beqz	a5,1021c <__do_global_dtors_aux+0x2c>
   1020c:	0005c537          	lui	a0,0x5c
   10210:	9a050513          	addi	a0,a0,-1632 # 5b9a0 <__FRAME_END__>
   10214:	ffff0097          	auipc	ra,0xffff0
   10218:	dec080e7          	jalr	-532(ra) # 0 <main-0x100b0>
   1021c:	4785                	li	a5,1
   1021e:	86f18c23          	sb	a5,-1928(gp) # 5cb30 <completed.5466>
   10222:	60a2                	ld	ra,8(sp)
   10224:	6402                	ld	s0,0(sp)
   10226:	0141                	addi	sp,sp,16
   10228:	8082                	ret
   1022a:	8082                	ret

000000000001022c <frame_dummy>:
   1022c:	000007b7          	lui	a5,0x0
   10230:	00078793          	mv	a5,a5
   10234:	cf99                	beqz	a5,10252 <frame_dummy+0x26>
   10236:	0005c537          	lui	a0,0x5c
   1023a:	1141                	addi	sp,sp,-16
   1023c:	88018593          	addi	a1,gp,-1920 # 5cb38 <object.5471>
   10240:	9a050513          	addi	a0,a0,-1632 # 5b9a0 <__FRAME_END__>
   10244:	e406                	sd	ra,8(sp)
   10246:	ffff0097          	auipc	ra,0xffff0
   1024a:	dba080e7          	jalr	-582(ra) # 0 <main-0x100b0>
   1024e:	60a2                	ld	ra,8(sp)
   10250:	0141                	addi	sp,sp,16
   10252:	f6fff06f          	j	101c0 <register_tm_clones>

0000000000010256 <initArray>:
   10256:	fffc0337          	lui	t1,0xfffc0
   1025a:	1101                	addi	sp,sp,-32
   1025c:	0341                	addi	t1,t1,16
   1025e:	ec06                	sd	ra,24(sp)
   10260:	67e9                	lui	a5,0x1a
   10262:	911a                	add	sp,sp,t1
   10264:	000406b7          	lui	a3,0x40
   10268:	c9078793          	addi	a5,a5,-880 # 19c90 <__clzdi2+0x3c>
   1026c:	fffc0737          	lui	a4,0xfffc0
   10270:	968a                	add	a3,a3,sp
   10272:	000408b7          	lui	a7,0x40
   10276:	9736                	add	a4,a4,a3
   10278:	98be                	add	a7,a7,a5
   1027a:	0007b803          	ld	a6,0(a5)
   1027e:	678c                	ld	a1,8(a5)
   10280:	6b90                	ld	a2,16(a5)
   10282:	6f94                	ld	a3,24(a5)
   10284:	01073023          	sd	a6,0(a4) # fffffffffffc0000 <__global_pointer$+0xfffffffffff62d48>
   10288:	e70c                	sd	a1,8(a4)
   1028a:	eb10                	sd	a2,16(a4)
   1028c:	ef14                	sd	a3,24(a4)
   1028e:	02078793          	addi	a5,a5,32
   10292:	02070713          	addi	a4,a4,32
   10296:	ff1792e3          	bne	a5,a7,1027a <initArray+0x24>
   1029a:	000407b7          	lui	a5,0x40
   1029e:	978a                	add	a5,a5,sp
   102a0:	fffc05b7          	lui	a1,0xfffc0
   102a4:	04000613          	li	a2,64
   102a8:	95be                	add	a1,a1,a5
   102aa:	246000ef          	jal	ra,104f0 <memcpy>
   102ae:	00040337          	lui	t1,0x40
   102b2:	1341                	addi	t1,t1,-16
   102b4:	911a                	add	sp,sp,t1
   102b6:	60e2                	ld	ra,24(sp)
   102b8:	6105                	addi	sp,sp,32
   102ba:	8082                	ret

00000000000102bc <initArray2D>:
   102bc:	fffc0337          	lui	t1,0xfffc0
   102c0:	715d                	addi	sp,sp,-80
   102c2:	0341                	addi	t1,t1,16
   102c4:	e486                	sd	ra,72(sp)
   102c6:	e0a2                	sd	s0,64(sp)
   102c8:	fc26                	sd	s1,56(sp)
   102ca:	f84a                	sd	s2,48(sp)
   102cc:	f44e                	sd	s3,40(sp)
   102ce:	f052                	sd	s4,32(sp)
   102d0:	ec56                	sd	s5,24(sp)
   102d2:	67e9                	lui	a5,0x1a
   102d4:	911a                	add	sp,sp,t1
   102d6:	000406b7          	lui	a3,0x40
   102da:	c9078793          	addi	a5,a5,-880 # 19c90 <__clzdi2+0x3c>
   102de:	fffc0737          	lui	a4,0xfffc0
   102e2:	968a                	add	a3,a3,sp
   102e4:	000408b7          	lui	a7,0x40
   102e8:	9736                	add	a4,a4,a3
   102ea:	98be                	add	a7,a7,a5
   102ec:	0007b803          	ld	a6,0(a5)
   102f0:	678c                	ld	a1,8(a5)
   102f2:	6b90                	ld	a2,16(a5)
   102f4:	6f94                	ld	a3,24(a5)
   102f6:	01073023          	sd	a6,0(a4) # fffffffffffc0000 <__global_pointer$+0xfffffffffff62d48>
   102fa:	e70c                	sd	a1,8(a4)
   102fc:	eb10                	sd	a2,16(a4)
   102fe:	ef14                	sd	a3,24(a4)
   10300:	02078793          	addi	a5,a5,32
   10304:	02070713          	addi	a4,a4,32
   10308:	ff1792e3          	bne	a5,a7,102ec <initArray2D+0x30>
   1030c:	000407b7          	lui	a5,0x40
   10310:	fffc0a37          	lui	s4,0xfffc0
   10314:	978a                	add	a5,a5,sp
   10316:	9a3e                	add	s4,s4,a5
   10318:	41450ab3          	sub	s5,a0,s4
   1031c:	040a0913          	addi	s2,s4,64 # fffffffffffc0040 <__global_pointer$+0xfffffffffff62d88>
   10320:	0005a9b7          	lui	s3,0x5a
   10324:	440a0a13          	addi	s4,s4,1088
   10328:	fc0a8a93          	addi	s5,s5,-64
   1032c:	fc090413          	addi	s0,s2,-64
   10330:	012a84b3          	add	s1,s5,s2
   10334:	00042787          	flw	fa5,0(s0)
   10338:	c9098513          	addi	a0,s3,-880 # 59c90 <__clzdi2+0x4003c>
   1033c:	0411                	addi	s0,s0,4
   1033e:	42078753          	fcvt.d.s	fa4,fa5
   10342:	00f4a027          	fsw	fa5,0(s1)
   10346:	0491                	addi	s1,s1,4
   10348:	e20705d3          	fmv.x.d	a1,fa4
   1034c:	326000ef          	jal	ra,10672 <printf>
   10350:	ff2412e3          	bne	s0,s2,10334 <initArray2D+0x78>
   10354:	04040913          	addi	s2,s0,64
   10358:	fd491ae3          	bne	s2,s4,1032c <initArray2D+0x70>
   1035c:	00040337          	lui	t1,0x40
   10360:	1341                	addi	t1,t1,-16
   10362:	911a                	add	sp,sp,t1
   10364:	60a6                	ld	ra,72(sp)
   10366:	6406                	ld	s0,64(sp)
   10368:	74e2                	ld	s1,56(sp)
   1036a:	7942                	ld	s2,48(sp)
   1036c:	79a2                	ld	s3,40(sp)
   1036e:	7a02                	ld	s4,32(sp)
   10370:	6ae2                	ld	s5,24(sp)
   10372:	6161                	addi	sp,sp,80
   10374:	8082                	ret

0000000000010376 <initZero>:
   10376:	04000613          	li	a2,64
   1037a:	4581                	li	a1,0
   1037c:	22a0006f          	j	105a6 <memset>

0000000000010380 <initConstant>:
   10380:	00a52027          	fsw	fa0,0(a0)
   10384:	00a52227          	fsw	fa0,4(a0)
   10388:	00a52427          	fsw	fa0,8(a0)
   1038c:	00a52627          	fsw	fa0,12(a0)
   10390:	00a52827          	fsw	fa0,16(a0)
   10394:	00a52a27          	fsw	fa0,20(a0)
   10398:	00a52c27          	fsw	fa0,24(a0)
   1039c:	00a52e27          	fsw	fa0,28(a0)
   103a0:	02a52027          	fsw	fa0,32(a0)
   103a4:	02a52227          	fsw	fa0,36(a0)
   103a8:	02a52427          	fsw	fa0,40(a0)
   103ac:	02a52627          	fsw	fa0,44(a0)
   103b0:	02a52827          	fsw	fa0,48(a0)
   103b4:	02a52a27          	fsw	fa0,52(a0)
   103b8:	02a52c27          	fsw	fa0,56(a0)
   103bc:	02a52e27          	fsw	fa0,60(a0)
   103c0:	8082                	ret

00000000000103c2 <core>:
   103c2:	7179                	addi	sp,sp,-48
   103c4:	f422                	sd	s0,40(sp)
   103c6:	1800                	addi	s0,sp,48
   103c8:	fea43423          	sd	a0,-24(s0)
   103cc:	feb43023          	sd	a1,-32(s0)
   103d0:	fcc43c23          	sd	a2,-40(s0)
   103d4:	fe843783          	ld	a5,-24(s0)
   103d8:	fe043703          	ld	a4,-32(s0)
   103dc:	fd843683          	ld	a3,-40(s0)
   103e0:	4641                	li	a2,16
   103e2:	4585                	li	a1,1
   103e4:	5ec7a08b          	ss.st.w	u1,a5,a2,a1
   103e8:	5ec7610b          	ss.ld.w	u2,a4,a2,a1
   103ec:	5ec6e18b          	ss.ld.w	u3,a3,a2,a1
   103f0:	5ec7620b          	ss.ld.w	u4,a4,a2,a1
   103f4:	5ec6e28b          	ss.ld.w	u5,a3,a2,a1
   103f8:	8000012b          	so.p.zero	p2,p0
   103fc:	90311aab          	so.p.eq.fp	p5,u2,u3,p0
   10400:	8002a72b          	so.p.mv	p14,p5,p0
   10404:	800723ab          	so.p.mv	p7,p14,p0

0000000000010408 <.uve_loop18>:
   10408:	0c5210ab          	so.a.add.fp	u1,u4,u5,p6
   1040c:	fff26eab          	so.b.nc	u4,10408 <.uve_loop18>
   10410:	0001                	nop
   10412:	7422                	ld	s0,40(sp)
   10414:	6145                	addi	sp,sp,48
   10416:	8082                	ret

0000000000010418 <atexit>:
   10418:	85aa                	mv	a1,a0
   1041a:	4681                	li	a3,0
   1041c:	4601                	li	a2,0
   1041e:	4501                	li	a0,0
   10420:	2530106f          	j	11e72 <__register_exitproc>

0000000000010424 <exit>:
   10424:	1141                	addi	sp,sp,-16
   10426:	4581                	li	a1,0
   10428:	e022                	sd	s0,0(sp)
   1042a:	e406                	sd	ra,8(sp)
   1042c:	842a                	mv	s0,a0
   1042e:	2a9010ef          	jal	ra,11ed6 <__call_exitprocs>
   10432:	8281b503          	ld	a0,-2008(gp) # 5cae0 <_global_impure_ptr>
   10436:	6d3c                	ld	a5,88(a0)
   10438:	c391                	beqz	a5,1043c <exit+0x18>
   1043a:	9782                	jalr	a5
   1043c:	8522                	mv	a0,s0
   1043e:	228080ef          	jal	ra,18666 <_exit>

0000000000010442 <__libc_fini_array>:
   10442:	1101                	addi	sp,sp,-32
   10444:	0005c7b7          	lui	a5,0x5c
   10448:	e822                	sd	s0,16(sp)
   1044a:	0005c437          	lui	s0,0x5c
   1044e:	9b078713          	addi	a4,a5,-1616 # 5b9b0 <__init_array_end>
   10452:	9b840413          	addi	s0,s0,-1608 # 5b9b8 <__fini_array_end>
   10456:	8c19                	sub	s0,s0,a4
   10458:	e426                	sd	s1,8(sp)
   1045a:	ec06                	sd	ra,24(sp)
   1045c:	840d                	srai	s0,s0,0x3
   1045e:	9b078493          	addi	s1,a5,-1616
   10462:	e419                	bnez	s0,10470 <__libc_fini_array+0x2e>
   10464:	6442                	ld	s0,16(sp)
   10466:	60e2                	ld	ra,24(sp)
   10468:	64a2                	ld	s1,8(sp)
   1046a:	6105                	addi	sp,sp,32
   1046c:	d2bff06f          	j	10196 <_fini>
   10470:	147d                	addi	s0,s0,-1
   10472:	00341793          	slli	a5,s0,0x3
   10476:	97a6                	add	a5,a5,s1
   10478:	639c                	ld	a5,0(a5)
   1047a:	9782                	jalr	a5
   1047c:	b7dd                	j	10462 <__libc_fini_array+0x20>

000000000001047e <__libc_init_array>:
   1047e:	1101                	addi	sp,sp,-32
   10480:	0005c7b7          	lui	a5,0x5c
   10484:	e822                	sd	s0,16(sp)
   10486:	0005c437          	lui	s0,0x5c
   1048a:	9a478713          	addi	a4,a5,-1628 # 5b9a4 <__preinit_array_end>
   1048e:	9a440413          	addi	s0,s0,-1628 # 5b9a4 <__preinit_array_end>
   10492:	8c19                	sub	s0,s0,a4
   10494:	e426                	sd	s1,8(sp)
   10496:	e04a                	sd	s2,0(sp)
   10498:	ec06                	sd	ra,24(sp)
   1049a:	840d                	srai	s0,s0,0x3
   1049c:	4481                	li	s1,0
   1049e:	9a478913          	addi	s2,a5,-1628
   104a2:	02849963          	bne	s1,s0,104d4 <__libc_init_array+0x56>
   104a6:	cf1ff0ef          	jal	ra,10196 <_fini>
   104aa:	0005c7b7          	lui	a5,0x5c
   104ae:	0005c437          	lui	s0,0x5c
   104b2:	9a878713          	addi	a4,a5,-1624 # 5b9a8 <__frame_dummy_init_array_entry>
   104b6:	9b040413          	addi	s0,s0,-1616 # 5b9b0 <__init_array_end>
   104ba:	8c19                	sub	s0,s0,a4
   104bc:	840d                	srai	s0,s0,0x3
   104be:	4481                	li	s1,0
   104c0:	9a878913          	addi	s2,a5,-1624
   104c4:	00849f63          	bne	s1,s0,104e2 <__libc_init_array+0x64>
   104c8:	60e2                	ld	ra,24(sp)
   104ca:	6442                	ld	s0,16(sp)
   104cc:	64a2                	ld	s1,8(sp)
   104ce:	6902                	ld	s2,0(sp)
   104d0:	6105                	addi	sp,sp,32
   104d2:	8082                	ret
   104d4:	00349793          	slli	a5,s1,0x3
   104d8:	97ca                	add	a5,a5,s2
   104da:	639c                	ld	a5,0(a5)
   104dc:	0485                	addi	s1,s1,1
   104de:	9782                	jalr	a5
   104e0:	b7c9                	j	104a2 <__libc_init_array+0x24>
   104e2:	00349793          	slli	a5,s1,0x3
   104e6:	97ca                	add	a5,a5,s2
   104e8:	639c                	ld	a5,0(a5)
   104ea:	0485                	addi	s1,s1,1
   104ec:	9782                	jalr	a5
   104ee:	bfd9                	j	104c4 <__libc_init_array+0x46>

00000000000104f0 <memcpy>:
   104f0:	00a5c7b3          	xor	a5,a1,a0
   104f4:	8b9d                	andi	a5,a5,7
   104f6:	00c50733          	add	a4,a0,a2
   104fa:	e781                	bnez	a5,10502 <memcpy+0x12>
   104fc:	479d                	li	a5,7
   104fe:	00c7ee63          	bltu	a5,a2,1051a <memcpy+0x2a>
   10502:	87aa                	mv	a5,a0
   10504:	0ae57063          	bleu	a4,a0,105a4 <memcpy+0xb4>
   10508:	0005c683          	lbu	a3,0(a1) # fffffffffffc0000 <__global_pointer$+0xfffffffffff62d48>
   1050c:	0785                	addi	a5,a5,1
   1050e:	0585                	addi	a1,a1,1
   10510:	fed78fa3          	sb	a3,-1(a5)
   10514:	fee7eae3          	bltu	a5,a4,10508 <memcpy+0x18>
   10518:	8082                	ret
   1051a:	00757693          	andi	a3,a0,7
   1051e:	87aa                	mv	a5,a0
   10520:	ca91                	beqz	a3,10534 <memcpy+0x44>
   10522:	0005c683          	lbu	a3,0(a1)
   10526:	0785                	addi	a5,a5,1
   10528:	0585                	addi	a1,a1,1
   1052a:	fed78fa3          	sb	a3,-1(a5)
   1052e:	0077f693          	andi	a3,a5,7
   10532:	b7fd                	j	10520 <memcpy+0x30>
   10534:	ff877693          	andi	a3,a4,-8
   10538:	fc068613          	addi	a2,a3,-64 # 3ffc0 <__clzdi2+0x2636c>
   1053c:	06c7f063          	bleu	a2,a5,1059c <memcpy+0xac>
   10540:	0005b383          	ld	t2,0(a1)
   10544:	0085b283          	ld	t0,8(a1)
   10548:	0105bf83          	ld	t6,16(a1)
   1054c:	0185bf03          	ld	t5,24(a1)
   10550:	0205be83          	ld	t4,32(a1)
   10554:	0285be03          	ld	t3,40(a1)
   10558:	0305b303          	ld	t1,48(a1)
   1055c:	0385b883          	ld	a7,56(a1)
   10560:	04858593          	addi	a1,a1,72
   10564:	0077b023          	sd	t2,0(a5)
   10568:	ff85b803          	ld	a6,-8(a1)
   1056c:	0057b423          	sd	t0,8(a5)
   10570:	01f7b823          	sd	t6,16(a5)
   10574:	01e7bc23          	sd	t5,24(a5)
   10578:	03d7b023          	sd	t4,32(a5)
   1057c:	03c7b423          	sd	t3,40(a5)
   10580:	0267b823          	sd	t1,48(a5)
   10584:	0317bc23          	sd	a7,56(a5)
   10588:	04878793          	addi	a5,a5,72
   1058c:	ff07bc23          	sd	a6,-8(a5)
   10590:	b775                	j	1053c <memcpy+0x4c>
   10592:	6190                	ld	a2,0(a1)
   10594:	07a1                	addi	a5,a5,8
   10596:	05a1                	addi	a1,a1,8
   10598:	fec7bc23          	sd	a2,-8(a5)
   1059c:	fed7ebe3          	bltu	a5,a3,10592 <memcpy+0xa2>
   105a0:	f6e7e4e3          	bltu	a5,a4,10508 <memcpy+0x18>
   105a4:	8082                	ret

00000000000105a6 <memset>:
   105a6:	433d                	li	t1,15
   105a8:	872a                	mv	a4,a0
   105aa:	02c37163          	bleu	a2,t1,105cc <memset+0x26>
   105ae:	00f77793          	andi	a5,a4,15
   105b2:	e3c1                	bnez	a5,10632 <memset+0x8c>
   105b4:	e1bd                	bnez	a1,1061a <memset+0x74>
   105b6:	ff067693          	andi	a3,a2,-16
   105ba:	8a3d                	andi	a2,a2,15
   105bc:	96ba                	add	a3,a3,a4
   105be:	e30c                	sd	a1,0(a4)
   105c0:	e70c                	sd	a1,8(a4)
   105c2:	0741                	addi	a4,a4,16
   105c4:	fed76de3          	bltu	a4,a3,105be <memset+0x18>
   105c8:	e211                	bnez	a2,105cc <memset+0x26>
   105ca:	8082                	ret
   105cc:	40c306b3          	sub	a3,t1,a2
   105d0:	068a                	slli	a3,a3,0x2
   105d2:	00000297          	auipc	t0,0x0
   105d6:	9696                	add	a3,a3,t0
   105d8:	00a68067          	jr	10(a3)
   105dc:	00b70723          	sb	a1,14(a4)
   105e0:	00b706a3          	sb	a1,13(a4)
   105e4:	00b70623          	sb	a1,12(a4)
   105e8:	00b705a3          	sb	a1,11(a4)
   105ec:	00b70523          	sb	a1,10(a4)
   105f0:	00b704a3          	sb	a1,9(a4)
   105f4:	00b70423          	sb	a1,8(a4)
   105f8:	00b703a3          	sb	a1,7(a4)
   105fc:	00b70323          	sb	a1,6(a4)
   10600:	00b702a3          	sb	a1,5(a4)
   10604:	00b70223          	sb	a1,4(a4)
   10608:	00b701a3          	sb	a1,3(a4)
   1060c:	00b70123          	sb	a1,2(a4)
   10610:	00b700a3          	sb	a1,1(a4)
   10614:	00b70023          	sb	a1,0(a4)
   10618:	8082                	ret
   1061a:	0ff5f593          	andi	a1,a1,255
   1061e:	00859693          	slli	a3,a1,0x8
   10622:	8dd5                	or	a1,a1,a3
   10624:	01059693          	slli	a3,a1,0x10
   10628:	8dd5                	or	a1,a1,a3
   1062a:	02059693          	slli	a3,a1,0x20
   1062e:	8dd5                	or	a1,a1,a3
   10630:	b759                	j	105b6 <memset+0x10>
   10632:	00279693          	slli	a3,a5,0x2
   10636:	00000297          	auipc	t0,0x0
   1063a:	9696                	add	a3,a3,t0
   1063c:	8286                	mv	t0,ra
   1063e:	fa2680e7          	jalr	-94(a3)
   10642:	8096                	mv	ra,t0
   10644:	17c1                	addi	a5,a5,-16
   10646:	8f1d                	sub	a4,a4,a5
   10648:	963e                	add	a2,a2,a5
   1064a:	f8c371e3          	bleu	a2,t1,105cc <memset+0x26>
   1064e:	b79d                	j	105b4 <memset+0xe>

0000000000010650 <_printf_r>:
   10650:	715d                	addi	sp,sp,-80
   10652:	f032                	sd	a2,32(sp)
   10654:	f436                	sd	a3,40(sp)
   10656:	f83a                	sd	a4,48(sp)
   10658:	fc3e                	sd	a5,56(sp)
   1065a:	e0c2                	sd	a6,64(sp)
   1065c:	e4c6                	sd	a7,72(sp)
   1065e:	862e                	mv	a2,a1
   10660:	690c                	ld	a1,16(a0)
   10662:	1014                	addi	a3,sp,32
   10664:	ec06                	sd	ra,24(sp)
   10666:	e436                	sd	a3,8(sp)
   10668:	0ca000ef          	jal	ra,10732 <_vfprintf_r>
   1066c:	60e2                	ld	ra,24(sp)
   1066e:	6161                	addi	sp,sp,80
   10670:	8082                	ret

0000000000010672 <printf>:
   10672:	711d                	addi	sp,sp,-96
   10674:	e4be                	sd	a5,72(sp)
   10676:	8381b783          	ld	a5,-1992(gp) # 5caf0 <_impure_ptr>
   1067a:	f832                	sd	a2,48(sp)
   1067c:	fc36                	sd	a3,56(sp)
   1067e:	f42e                	sd	a1,40(sp)
   10680:	e0ba                	sd	a4,64(sp)
   10682:	e8c2                	sd	a6,80(sp)
   10684:	ecc6                	sd	a7,88(sp)
   10686:	6b8c                	ld	a1,16(a5)
   10688:	1034                	addi	a3,sp,40
   1068a:	862a                	mv	a2,a0
   1068c:	853e                	mv	a0,a5
   1068e:	ec06                	sd	ra,24(sp)
   10690:	e436                	sd	a3,8(sp)
   10692:	0a0000ef          	jal	ra,10732 <_vfprintf_r>
   10696:	60e2                	ld	ra,24(sp)
   10698:	6125                	addi	sp,sp,96
   1069a:	8082                	ret

000000000001069c <_puts_r>:
   1069c:	711d                	addi	sp,sp,-96
   1069e:	e8a2                	sd	s0,80(sp)
   106a0:	842a                	mv	s0,a0
   106a2:	852e                	mv	a0,a1
   106a4:	e42e                	sd	a1,8(sp)
   106a6:	ec86                	sd	ra,88(sp)
   106a8:	078000ef          	jal	ra,10720 <strlen>
   106ac:	0005a7b7          	lui	a5,0x5a
   106b0:	ca078793          	addi	a5,a5,-864 # 59ca0 <__clzdi2+0x4004c>
   106b4:	e0be                	sd	a5,64(sp)
   106b6:	4785                	li	a5,1
   106b8:	e4be                	sd	a5,72(sp)
   106ba:	181c                	addi	a5,sp,48
   106bc:	65a2                	ld	a1,8(sp)
   106be:	ec3e                	sd	a5,24(sp)
   106c0:	4789                	li	a5,2
   106c2:	d03e                	sw	a5,32(sp)
   106c4:	483c                	lw	a5,80(s0)
   106c6:	fc2a                	sd	a0,56(sp)
   106c8:	0505                	addi	a0,a0,1
   106ca:	f82e                	sd	a1,48(sp)
   106cc:	f42a                	sd	a0,40(sp)
   106ce:	680c                	ld	a1,16(s0)
   106d0:	e791                	bnez	a5,106dc <_puts_r+0x40>
   106d2:	8522                	mv	a0,s0
   106d4:	e42e                	sd	a1,8(sp)
   106d6:	329010ef          	jal	ra,121fe <__sinit>
   106da:	65a2                	ld	a1,8(sp)
   106dc:	01059783          	lh	a5,16(a1)
   106e0:	03279713          	slli	a4,a5,0x32
   106e4:	00074d63          	bltz	a4,106fe <_puts_r+0x62>
   106e8:	6689                	lui	a3,0x2
   106ea:	0ac5a703          	lw	a4,172(a1)
   106ee:	8fd5                	or	a5,a5,a3
   106f0:	00f59823          	sh	a5,16(a1)
   106f4:	77f9                	lui	a5,0xffffe
   106f6:	17fd                	addi	a5,a5,-1
   106f8:	8ff9                	and	a5,a5,a4
   106fa:	0af5a623          	sw	a5,172(a1)
   106fe:	0830                	addi	a2,sp,24
   10700:	8522                	mv	a0,s0
   10702:	687010ef          	jal	ra,12588 <__sfvwrite_r>
   10706:	57fd                	li	a5,-1
   10708:	e111                	bnez	a0,1070c <_puts_r+0x70>
   1070a:	47a9                	li	a5,10
   1070c:	60e6                	ld	ra,88(sp)
   1070e:	6446                	ld	s0,80(sp)
   10710:	853e                	mv	a0,a5
   10712:	6125                	addi	sp,sp,96
   10714:	8082                	ret

0000000000010716 <puts>:
   10716:	85aa                	mv	a1,a0
   10718:	8381b503          	ld	a0,-1992(gp) # 5caf0 <_impure_ptr>
   1071c:	f81ff06f          	j	1069c <_puts_r>

0000000000010720 <strlen>:
   10720:	87aa                	mv	a5,a0
   10722:	0785                	addi	a5,a5,1
   10724:	fff7c703          	lbu	a4,-1(a5) # ffffffffffffdfff <__global_pointer$+0xfffffffffffa0d47>
   10728:	ff6d                	bnez	a4,10722 <strlen+0x2>
   1072a:	40a78533          	sub	a0,a5,a0
   1072e:	157d                	addi	a0,a0,-1
   10730:	8082                	ret

0000000000010732 <_vfprintf_r>:
   10732:	d9010113          	addi	sp,sp,-624
   10736:	26113423          	sd	ra,616(sp)
   1073a:	24913c23          	sd	s1,600(sp)
   1073e:	25213823          	sd	s2,592(sp)
   10742:	25313423          	sd	s3,584(sp)
   10746:	23713423          	sd	s7,552(sp)
   1074a:	892e                	mv	s2,a1
   1074c:	84b2                	mv	s1,a2
   1074e:	8bb6                	mv	s7,a3
   10750:	26813023          	sd	s0,608(sp)
   10754:	25413023          	sd	s4,576(sp)
   10758:	23513c23          	sd	s5,568(sp)
   1075c:	23613823          	sd	s6,560(sp)
   10760:	23813023          	sd	s8,544(sp)
   10764:	21913c23          	sd	s9,536(sp)
   10768:	21a13823          	sd	s10,528(sp)
   1076c:	21b13423          	sd	s11,520(sp)
   10770:	89aa                	mv	s3,a0
   10772:	083030ef          	jal	ra,13ff4 <_localeconv_r>
   10776:	611c                	ld	a5,0(a0)
   10778:	853e                	mv	a0,a5
   1077a:	e4be                	sd	a5,72(sp)
   1077c:	fa5ff0ef          	jal	ra,10720 <strlen>
   10780:	ec2a                	sd	a0,24(sp)
   10782:	f982                	sd	zero,240(sp)
   10784:	fd82                	sd	zero,248(sp)
   10786:	00098863          	beqz	s3,10796 <_vfprintf_r+0x64>
   1078a:	0509a783          	lw	a5,80(s3)
   1078e:	e781                	bnez	a5,10796 <_vfprintf_r+0x64>
   10790:	854e                	mv	a0,s3
   10792:	26d010ef          	jal	ra,121fe <__sinit>
   10796:	01091783          	lh	a5,16(s2)
   1079a:	03279713          	slli	a4,a5,0x32
   1079e:	00074d63          	bltz	a4,107b8 <_vfprintf_r+0x86>
   107a2:	6689                	lui	a3,0x2
   107a4:	0ac92703          	lw	a4,172(s2)
   107a8:	8fd5                	or	a5,a5,a3
   107aa:	00f91823          	sh	a5,16(s2)
   107ae:	77f9                	lui	a5,0xffffe
   107b0:	17fd                	addi	a5,a5,-1
   107b2:	8ff9                	and	a5,a5,a4
   107b4:	0af92623          	sw	a5,172(s2)
   107b8:	01095783          	lhu	a5,16(s2)
   107bc:	8ba1                	andi	a5,a5,8
   107be:	c795                	beqz	a5,107ea <_vfprintf_r+0xb8>
   107c0:	01893783          	ld	a5,24(s2)
   107c4:	c39d                	beqz	a5,107ea <_vfprintf_r+0xb8>
   107c6:	01095783          	lhu	a5,16(s2)
   107ca:	4729                	li	a4,10
   107cc:	8be9                	andi	a5,a5,26
   107ce:	06e79363          	bne	a5,a4,10834 <_vfprintf_r+0x102>
   107d2:	01291783          	lh	a5,18(s2)
   107d6:	0407cf63          	bltz	a5,10834 <_vfprintf_r+0x102>
   107da:	86de                	mv	a3,s7
   107dc:	8626                	mv	a2,s1
   107de:	85ca                	mv	a1,s2
   107e0:	854e                	mv	a0,s3
   107e2:	528010ef          	jal	ra,11d0a <__sbprintf>
   107e6:	f42a                	sd	a0,40(sp)
   107e8:	a801                	j	107f8 <_vfprintf_r+0xc6>
   107ea:	85ca                	mv	a1,s2
   107ec:	854e                	mv	a0,s3
   107ee:	5aa010ef          	jal	ra,11d98 <__swsetup_r>
   107f2:	d971                	beqz	a0,107c6 <_vfprintf_r+0x94>
   107f4:	57fd                	li	a5,-1
   107f6:	f43e                	sd	a5,40(sp)
   107f8:	26813083          	ld	ra,616(sp)
   107fc:	26013403          	ld	s0,608(sp)
   10800:	7522                	ld	a0,40(sp)
   10802:	25813483          	ld	s1,600(sp)
   10806:	25013903          	ld	s2,592(sp)
   1080a:	24813983          	ld	s3,584(sp)
   1080e:	24013a03          	ld	s4,576(sp)
   10812:	23813a83          	ld	s5,568(sp)
   10816:	23013b03          	ld	s6,560(sp)
   1081a:	22813b83          	ld	s7,552(sp)
   1081e:	22013c03          	ld	s8,544(sp)
   10822:	21813c83          	ld	s9,536(sp)
   10826:	21013d03          	ld	s10,528(sp)
   1082a:	20813d83          	ld	s11,520(sp)
   1082e:	27010113          	addi	sp,sp,624
   10832:	8082                	ret
   10834:	0005a7b7          	lui	a5,0x5a
   10838:	ca878793          	addi	a5,a5,-856 # 59ca8 <__clzdi2+0x40054>
   1083c:	ed3e                	sd	a5,152(sp)
   1083e:	0005a7b7          	lui	a5,0x5a
   10842:	e487b783          	ld	a5,-440(a5) # 59e48 <zeroes.4550+0x20>
   10846:	18010a93          	addi	s5,sp,384
   1084a:	e256                	sd	s5,256(sp)
   1084c:	f13e                	sd	a5,160(sp)
   1084e:	0005a7b7          	lui	a5,0x5a
   10852:	e587b783          	ld	a5,-424(a5) # 59e58 <zeroes.4550+0x30>
   10856:	ea02                	sd	zero,272(sp)
   10858:	10012423          	sw	zero,264(sp)
   1085c:	f53e                	sd	a5,168(sp)
   1085e:	0005a7b7          	lui	a5,0x5a
   10862:	e687b783          	ld	a5,-408(a5) # 59e68 <zeroes.4550+0x40>
   10866:	4a01                	li	s4,0
   10868:	8cd6                	mv	s9,s5
   1086a:	f082                	sd	zero,96(sp)
   1086c:	ec82                	sd	zero,88(sp)
   1086e:	e002                	sd	zero,0(sp)
   10870:	e082                	sd	zero,64(sp)
   10872:	e882                	sd	zero,80(sp)
   10874:	f402                	sd	zero,40(sp)
   10876:	e93e                	sd	a5,144(sp)
   10878:	8426                	mv	s0,s1
   1087a:	02500713          	li	a4,37
   1087e:	00044783          	lbu	a5,0(s0)
   10882:	c399                	beqz	a5,10888 <_vfprintf_r+0x156>
   10884:	08e79663          	bne	a5,a4,10910 <_vfprintf_r+0x1de>
   10888:	40940b3b          	subw	s6,s0,s1
   1088c:	020b0f63          	beqz	s6,108ca <_vfprintf_r+0x198>
   10890:	67d2                	ld	a5,272(sp)
   10892:	009cb023          	sd	s1,0(s9)
   10896:	016cb423          	sd	s6,8(s9)
   1089a:	97da                	add	a5,a5,s6
   1089c:	ea3e                	sd	a5,272(sp)
   1089e:	10812783          	lw	a5,264(sp)
   108a2:	0cc1                	addi	s9,s9,16
   108a4:	0017871b          	addiw	a4,a5,1
   108a8:	10e12423          	sw	a4,264(sp)
   108ac:	479d                	li	a5,7
   108ae:	00e7da63          	ble	a4,a5,108c2 <_vfprintf_r+0x190>
   108b2:	0210                	addi	a2,sp,256
   108b4:	85ca                	mv	a1,s2
   108b6:	854e                	mv	a0,s3
   108b8:	4f4060ef          	jal	ra,16dac <__sprint_r>
   108bc:	50051b63          	bnez	a0,10dd2 <_vfprintf_r+0x6a0>
   108c0:	8cd6                	mv	s9,s5
   108c2:	77a2                	ld	a5,40(sp)
   108c4:	016787bb          	addw	a5,a5,s6
   108c8:	f43e                	sd	a5,40(sp)
   108ca:	00044783          	lbu	a5,0(s0)
   108ce:	e399                	bnez	a5,108d4 <_vfprintf_r+0x1a2>
   108d0:	3fc0106f          	j	11ccc <_vfprintf_r+0x159a>
   108d4:	00140793          	addi	a5,s0,1
   108d8:	0c0107a3          	sb	zero,207(sp)
   108dc:	5dfd                	li	s11,-1
   108de:	f002                	sd	zero,32(sp)
   108e0:	4401                	li	s0,0
   108e2:	05a00d13          	li	s10,90
   108e6:	4c29                	li	s8,10
   108e8:	0007cb03          	lbu	s6,0(a5)
   108ec:	00178713          	addi	a4,a5,1
   108f0:	e83a                	sd	a4,16(sp)
   108f2:	46a5                	li	a3,9
   108f4:	02a00613          	li	a2,42
   108f8:	fe0b079b          	addiw	a5,s6,-32
   108fc:	0007871b          	sext.w	a4,a5
   10900:	3aed60e3          	bltu	s10,a4,114a0 <_vfprintf_r+0xd6e>
   10904:	676a                	ld	a4,152(sp)
   10906:	1782                	slli	a5,a5,0x20
   10908:	83f9                	srli	a5,a5,0x1e
   1090a:	97ba                	add	a5,a5,a4
   1090c:	439c                	lw	a5,0(a5)
   1090e:	8782                	jr	a5
   10910:	0405                	addi	s0,s0,1
   10912:	b7b5                	j	1087e <_vfprintf_r+0x14c>
   10914:	854e                	mv	a0,s3
   10916:	6de030ef          	jal	ra,13ff4 <_localeconv_r>
   1091a:	651c                	ld	a5,8(a0)
   1091c:	853e                	mv	a0,a5
   1091e:	e8be                	sd	a5,80(sp)
   10920:	e01ff0ef          	jal	ra,10720 <strlen>
   10924:	e0aa                	sd	a0,64(sp)
   10926:	854e                	mv	a0,s3
   10928:	6cc030ef          	jal	ra,13ff4 <_localeconv_r>
   1092c:	691c                	ld	a5,16(a0)
   1092e:	e03e                	sd	a5,0(sp)
   10930:	6786                	ld	a5,64(sp)
   10932:	c38d                	beqz	a5,10954 <_vfprintf_r+0x222>
   10934:	6782                	ld	a5,0(sp)
   10936:	cf99                	beqz	a5,10954 <_vfprintf_r+0x222>
   10938:	0007c783          	lbu	a5,0(a5)
   1093c:	cf81                	beqz	a5,10954 <_vfprintf_r+0x222>
   1093e:	40046413          	ori	s0,s0,1024
   10942:	2401                	sext.w	s0,s0
   10944:	a801                	j	10954 <_vfprintf_r+0x222>
   10946:	0cf14783          	lbu	a5,207(sp)
   1094a:	e789                	bnez	a5,10954 <_vfprintf_r+0x222>
   1094c:	02000793          	li	a5,32
   10950:	0cf107a3          	sb	a5,207(sp)
   10954:	67c2                	ld	a5,16(sp)
   10956:	bf49                	j	108e8 <_vfprintf_r+0x1b6>
   10958:	00146413          	ori	s0,s0,1
   1095c:	b7dd                	j	10942 <_vfprintf_r+0x210>
   1095e:	000ba783          	lw	a5,0(s7)
   10962:	0ba1                	addi	s7,s7,8
   10964:	f03e                	sd	a5,32(sp)
   10966:	fe07d7e3          	bgez	a5,10954 <_vfprintf_r+0x222>
   1096a:	40f007bb          	negw	a5,a5
   1096e:	f03e                	sd	a5,32(sp)
   10970:	00446413          	ori	s0,s0,4
   10974:	b7f9                	j	10942 <_vfprintf_r+0x210>
   10976:	02b00793          	li	a5,43
   1097a:	bfd9                	j	10950 <_vfprintf_r+0x21e>
   1097c:	6742                	ld	a4,16(sp)
   1097e:	67c2                	ld	a5,16(sp)
   10980:	00074b03          	lbu	s6,0(a4)
   10984:	0785                	addi	a5,a5,1
   10986:	02cb1e63          	bne	s6,a2,109c2 <_vfprintf_r+0x290>
   1098a:	000bae03          	lw	t3,0(s7)
   1098e:	008b8713          	addi	a4,s7,8
   10992:	020e1693          	slli	a3,t3,0x20
   10996:	0006d363          	bgez	a3,1099c <_vfprintf_r+0x26a>
   1099a:	5e7d                	li	t3,-1
   1099c:	000e0d9b          	sext.w	s11,t3
   109a0:	8bba                	mv	s7,a4
   109a2:	e83e                	sd	a5,16(sp)
   109a4:	bf45                	j	10954 <_vfprintf_r+0x222>
   109a6:	03bc0e3b          	mulw	t3,s8,s11
   109aa:	0785                	addi	a5,a5,1
   109ac:	fff7cb03          	lbu	s6,-1(a5)
   109b0:	00ee0dbb          	addw	s11,t3,a4
   109b4:	fd0b059b          	addiw	a1,s6,-48
   109b8:	872e                	mv	a4,a1
   109ba:	feb6f6e3          	bleu	a1,a3,109a6 <_vfprintf_r+0x274>
   109be:	e83e                	sd	a5,16(sp)
   109c0:	bf25                	j	108f8 <_vfprintf_r+0x1c6>
   109c2:	4d81                	li	s11,0
   109c4:	bfc5                	j	109b4 <_vfprintf_r+0x282>
   109c6:	08046413          	ori	s0,s0,128
   109ca:	bfa5                	j	10942 <_vfprintf_r+0x210>
   109cc:	67c2                	ld	a5,16(sp)
   109ce:	f002                	sd	zero,32(sp)
   109d0:	7702                	ld	a4,32(sp)
   109d2:	fd0b0b1b          	addiw	s6,s6,-48
   109d6:	0785                	addi	a5,a5,1
   109d8:	02ec073b          	mulw	a4,s8,a4
   109dc:	00eb073b          	addw	a4,s6,a4
   109e0:	fff7cb03          	lbu	s6,-1(a5)
   109e4:	f03a                	sd	a4,32(sp)
   109e6:	fd0b071b          	addiw	a4,s6,-48
   109ea:	fee6f3e3          	bleu	a4,a3,109d0 <_vfprintf_r+0x29e>
   109ee:	bfc1                	j	109be <_vfprintf_r+0x28c>
   109f0:	00846413          	ori	s0,s0,8
   109f4:	b7b9                	j	10942 <_vfprintf_r+0x210>
   109f6:	67c2                	ld	a5,16(sp)
   109f8:	0007c703          	lbu	a4,0(a5)
   109fc:	06800793          	li	a5,104
   10a00:	00f71863          	bne	a4,a5,10a10 <_vfprintf_r+0x2de>
   10a04:	67c2                	ld	a5,16(sp)
   10a06:	20046413          	ori	s0,s0,512
   10a0a:	0785                	addi	a5,a5,1
   10a0c:	e83e                	sd	a5,16(sp)
   10a0e:	bf15                	j	10942 <_vfprintf_r+0x210>
   10a10:	04046413          	ori	s0,s0,64
   10a14:	b73d                	j	10942 <_vfprintf_r+0x210>
   10a16:	67c2                	ld	a5,16(sp)
   10a18:	0007c703          	lbu	a4,0(a5)
   10a1c:	06c00793          	li	a5,108
   10a20:	00f71863          	bne	a4,a5,10a30 <_vfprintf_r+0x2fe>
   10a24:	67c2                	ld	a5,16(sp)
   10a26:	0785                	addi	a5,a5,1
   10a28:	e83e                	sd	a5,16(sp)
   10a2a:	02046413          	ori	s0,s0,32
   10a2e:	bf11                	j	10942 <_vfprintf_r+0x210>
   10a30:	01046413          	ori	s0,s0,16
   10a34:	b739                	j	10942 <_vfprintf_r+0x210>
   10a36:	008b8793          	addi	a5,s7,8
   10a3a:	f83e                	sd	a5,48(sp)
   10a3c:	000ba783          	lw	a5,0(s7)
   10a40:	0c0107a3          	sb	zero,207(sp)
   10a44:	10f10c23          	sb	a5,280(sp)
   10a48:	4b81                	li	s7,0
   10a4a:	4d85                	li	s11,1
   10a4c:	4701                	li	a4,0
   10a4e:	e402                	sd	zero,8(sp)
   10a50:	4c01                	li	s8,0
   10a52:	4d01                	li	s10,0
   10a54:	0a24                	addi	s1,sp,280
   10a56:	86ba                	mv	a3,a4
   10a58:	01b75363          	ble	s11,a4,10a5e <_vfprintf_r+0x32c>
   10a5c:	86ee                	mv	a3,s11
   10a5e:	0cf14603          	lbu	a2,207(sp)
   10a62:	0006879b          	sext.w	a5,a3
   10a66:	fc3e                	sd	a5,56(sp)
   10a68:	c601                	beqz	a2,10a70 <_vfprintf_r+0x33e>
   10a6a:	0016879b          	addiw	a5,a3,1
   10a6e:	fc3e                	sd	a5,56(sp)
   10a70:	00247693          	andi	a3,s0,2
   10a74:	0006879b          	sext.w	a5,a3
   10a78:	f4be                	sd	a5,104(sp)
   10a7a:	c781                	beqz	a5,10a82 <_vfprintf_r+0x350>
   10a7c:	77e2                	ld	a5,56(sp)
   10a7e:	2789                	addiw	a5,a5,2
   10a80:	fc3e                	sd	a5,56(sp)
   10a82:	08447793          	andi	a5,s0,132
   10a86:	f8be                	sd	a5,112(sp)
   10a88:	efb1                	bnez	a5,10ae4 <_vfprintf_r+0x3b2>
   10a8a:	7782                	ld	a5,32(sp)
   10a8c:	76e2                	ld	a3,56(sp)
   10a8e:	40d786bb          	subw	a3,a5,a3
   10a92:	04d05963          	blez	a3,10ae4 <_vfprintf_r+0x3b2>
   10a96:	0005a837          	lui	a6,0x5a
   10a9a:	48c1                	li	a7,16
   10a9c:	e1880813          	addi	a6,a6,-488 # 59e18 <blanks.4549>
   10aa0:	4e9d                	li	t4,7
   10aa2:	10812583          	lw	a1,264(sp)
   10aa6:	010cb023          	sd	a6,0(s9)
   10aaa:	6652                	ld	a2,272(sp)
   10aac:	0015851b          	addiw	a0,a1,1
   10ab0:	85aa                	mv	a1,a0
   10ab2:	010c8f13          	addi	t5,s9,16
   10ab6:	1ed8cee3          	blt	a7,a3,114b2 <_vfprintf_r+0xd80>
   10aba:	00dcb423          	sd	a3,8(s9)
   10abe:	96b2                	add	a3,a3,a2
   10ac0:	ea36                	sd	a3,272(sp)
   10ac2:	10a12423          	sw	a0,264(sp)
   10ac6:	469d                	li	a3,7
   10ac8:	8cfa                	mv	s9,t5
   10aca:	00a6dd63          	ble	a0,a3,10ae4 <_vfprintf_r+0x3b2>
   10ace:	0210                	addi	a2,sp,256
   10ad0:	85ca                	mv	a1,s2
   10ad2:	854e                	mv	a0,s3
   10ad4:	fcba                	sd	a4,120(sp)
   10ad6:	2d6060ef          	jal	ra,16dac <__sprint_r>
   10ada:	c119                	beqz	a0,10ae0 <_vfprintf_r+0x3ae>
   10adc:	1b20106f          	j	11c8e <_vfprintf_r+0x155c>
   10ae0:	7766                	ld	a4,120(sp)
   10ae2:	8cd6                	mv	s9,s5
   10ae4:	0cf14683          	lbu	a3,207(sp)
   10ae8:	c2a1                	beqz	a3,10b28 <_vfprintf_r+0x3f6>
   10aea:	0cf10693          	addi	a3,sp,207
   10aee:	00dcb023          	sd	a3,0(s9)
   10af2:	4685                	li	a3,1
   10af4:	00dcb423          	sd	a3,8(s9)
   10af8:	66d2                	ld	a3,272(sp)
   10afa:	0cc1                	addi	s9,s9,16
   10afc:	0685                	addi	a3,a3,1
   10afe:	ea36                	sd	a3,272(sp)
   10b00:	10812683          	lw	a3,264(sp)
   10b04:	0016861b          	addiw	a2,a3,1
   10b08:	10c12423          	sw	a2,264(sp)
   10b0c:	469d                	li	a3,7
   10b0e:	00c6dd63          	ble	a2,a3,10b28 <_vfprintf_r+0x3f6>
   10b12:	0210                	addi	a2,sp,256
   10b14:	85ca                	mv	a1,s2
   10b16:	854e                	mv	a0,s3
   10b18:	fcba                	sd	a4,120(sp)
   10b1a:	292060ef          	jal	ra,16dac <__sprint_r>
   10b1e:	c119                	beqz	a0,10b24 <_vfprintf_r+0x3f2>
   10b20:	16e0106f          	j	11c8e <_vfprintf_r+0x155c>
   10b24:	7766                	ld	a4,120(sp)
   10b26:	8cd6                	mv	s9,s5
   10b28:	77a6                	ld	a5,104(sp)
   10b2a:	cf9d                	beqz	a5,10b68 <_vfprintf_r+0x436>
   10b2c:	0994                	addi	a3,sp,208
   10b2e:	00dcb023          	sd	a3,0(s9)
   10b32:	4689                	li	a3,2
   10b34:	00dcb423          	sd	a3,8(s9)
   10b38:	66d2                	ld	a3,272(sp)
   10b3a:	0cc1                	addi	s9,s9,16
   10b3c:	0689                	addi	a3,a3,2
   10b3e:	ea36                	sd	a3,272(sp)
   10b40:	10812683          	lw	a3,264(sp)
   10b44:	0016861b          	addiw	a2,a3,1
   10b48:	10c12423          	sw	a2,264(sp)
   10b4c:	469d                	li	a3,7
   10b4e:	00c6dd63          	ble	a2,a3,10b68 <_vfprintf_r+0x436>
   10b52:	0210                	addi	a2,sp,256
   10b54:	85ca                	mv	a1,s2
   10b56:	854e                	mv	a0,s3
   10b58:	f4ba                	sd	a4,104(sp)
   10b5a:	252060ef          	jal	ra,16dac <__sprint_r>
   10b5e:	c119                	beqz	a0,10b64 <_vfprintf_r+0x432>
   10b60:	12e0106f          	j	11c8e <_vfprintf_r+0x155c>
   10b64:	7726                	ld	a4,104(sp)
   10b66:	8cd6                	mv	s9,s5
   10b68:	77c6                	ld	a5,112(sp)
   10b6a:	08000693          	li	a3,128
   10b6e:	04d79f63          	bne	a5,a3,10bcc <_vfprintf_r+0x49a>
   10b72:	7782                	ld	a5,32(sp)
   10b74:	76e2                	ld	a3,56(sp)
   10b76:	40d786bb          	subw	a3,a5,a3
   10b7a:	04d05963          	blez	a3,10bcc <_vfprintf_r+0x49a>
   10b7e:	0005a837          	lui	a6,0x5a
   10b82:	48c1                	li	a7,16
   10b84:	e2880813          	addi	a6,a6,-472 # 59e28 <zeroes.4550>
   10b88:	4e9d                	li	t4,7
   10b8a:	10812583          	lw	a1,264(sp)
   10b8e:	010cb023          	sd	a6,0(s9)
   10b92:	6652                	ld	a2,272(sp)
   10b94:	0015851b          	addiw	a0,a1,1
   10b98:	85aa                	mv	a1,a0
   10b9a:	010c8f13          	addi	t5,s9,16
   10b9e:	14d8c8e3          	blt	a7,a3,114ee <_vfprintf_r+0xdbc>
   10ba2:	00dcb423          	sd	a3,8(s9)
   10ba6:	96b2                	add	a3,a3,a2
   10ba8:	ea36                	sd	a3,272(sp)
   10baa:	10a12423          	sw	a0,264(sp)
   10bae:	469d                	li	a3,7
   10bb0:	8cfa                	mv	s9,t5
   10bb2:	00a6dd63          	ble	a0,a3,10bcc <_vfprintf_r+0x49a>
   10bb6:	0210                	addi	a2,sp,256
   10bb8:	85ca                	mv	a1,s2
   10bba:	854e                	mv	a0,s3
   10bbc:	f4ba                	sd	a4,104(sp)
   10bbe:	1ee060ef          	jal	ra,16dac <__sprint_r>
   10bc2:	c119                	beqz	a0,10bc8 <_vfprintf_r+0x496>
   10bc4:	0ca0106f          	j	11c8e <_vfprintf_r+0x155c>
   10bc8:	7726                	ld	a4,104(sp)
   10bca:	8cd6                	mv	s9,s5
   10bcc:	41b7073b          	subw	a4,a4,s11
   10bd0:	04e05763          	blez	a4,10c1e <_vfprintf_r+0x4ec>
   10bd4:	0005a837          	lui	a6,0x5a
   10bd8:	48c1                	li	a7,16
   10bda:	e2880813          	addi	a6,a6,-472 # 59e28 <zeroes.4550>
   10bde:	4e9d                	li	t4,7
   10be0:	10812603          	lw	a2,264(sp)
   10be4:	010cb023          	sd	a6,0(s9)
   10be8:	66d2                	ld	a3,272(sp)
   10bea:	0016059b          	addiw	a1,a2,1
   10bee:	862e                	mv	a2,a1
   10bf0:	010c8513          	addi	a0,s9,16
   10bf4:	12e8cbe3          	blt	a7,a4,1152a <_vfprintf_r+0xdf8>
   10bf8:	00ecb423          	sd	a4,8(s9)
   10bfc:	9736                	add	a4,a4,a3
   10bfe:	ea3a                	sd	a4,272(sp)
   10c00:	10b12423          	sw	a1,264(sp)
   10c04:	471d                	li	a4,7
   10c06:	8caa                	mv	s9,a0
   10c08:	00b75b63          	ble	a1,a4,10c1e <_vfprintf_r+0x4ec>
   10c0c:	0210                	addi	a2,sp,256
   10c0e:	85ca                	mv	a1,s2
   10c10:	854e                	mv	a0,s3
   10c12:	19a060ef          	jal	ra,16dac <__sprint_r>
   10c16:	c119                	beqz	a0,10c1c <_vfprintf_r+0x4ea>
   10c18:	0760106f          	j	11c8e <_vfprintf_r+0x155c>
   10c1c:	8cd6                	mv	s9,s5
   10c1e:	10047693          	andi	a3,s0,256
   10c22:	6752                	ld	a4,272(sp)
   10c24:	12069fe3          	bnez	a3,11562 <_vfprintf_r+0xe30>
   10c28:	10812783          	lw	a5,264(sp)
   10c2c:	00ed8e33          	add	t3,s11,a4
   10c30:	009cb023          	sd	s1,0(s9)
   10c34:	0017871b          	addiw	a4,a5,1
   10c38:	01bcb423          	sd	s11,8(s9)
   10c3c:	ea72                	sd	t3,272(sp)
   10c3e:	10e12423          	sw	a4,264(sp)
   10c42:	479d                	li	a5,7
   10c44:	0cc1                	addi	s9,s9,16
   10c46:	1ee7dbe3          	ble	a4,a5,1163c <_vfprintf_r+0xf0a>
   10c4a:	0210                	addi	a2,sp,256
   10c4c:	85ca                	mv	a1,s2
   10c4e:	854e                	mv	a0,s3
   10c50:	15c060ef          	jal	ra,16dac <__sprint_r>
   10c54:	c119                	beqz	a0,10c5a <_vfprintf_r+0x528>
   10c56:	0380106f          	j	11c8e <_vfprintf_r+0x155c>
   10c5a:	8cd6                	mv	s9,s5
   10c5c:	1e10006f          	j	1163c <_vfprintf_r+0xf0a>
   10c60:	01046413          	ori	s0,s0,16
   10c64:	2401                	sext.w	s0,s0
   10c66:	008b8793          	addi	a5,s7,8
   10c6a:	f83e                	sd	a5,48(sp)
   10c6c:	02047793          	andi	a5,s0,32
   10c70:	cf95                	beqz	a5,10cac <_vfprintf_r+0x57a>
   10c72:	000bbb83          	ld	s7,0(s7)
   10c76:	000bc463          	bltz	s7,10c7e <_vfprintf_r+0x54c>
   10c7a:	0660106f          	j	11ce0 <_vfprintf_r+0x15ae>
   10c7e:	02d00793          	li	a5,45
   10c82:	0cf107a3          	sb	a5,207(sp)
   10c86:	41700bb3          	neg	s7,s7
   10c8a:	4785                	li	a5,1
   10c8c:	577d                	li	a4,-1
   10c8e:	70ed8f63          	beq	s11,a4,113ac <_vfprintf_r+0xc7a>
   10c92:	8722                	mv	a4,s0
   10c94:	f7f47413          	andi	s0,s0,-129
   10c98:	2401                	sext.w	s0,s0
   10c9a:	700b9963          	bnez	s7,113ac <_vfprintf_r+0xc7a>
   10c9e:	7e0d8763          	beqz	s11,1148c <_vfprintf_r+0xd5a>
   10ca2:	4705                	li	a4,1
   10ca4:	70e79763          	bne	a5,a4,113b2 <_vfprintf_r+0xc80>
   10ca8:	0440106f          	j	11cec <_vfprintf_r+0x15ba>
   10cac:	01047793          	andi	a5,s0,16
   10cb0:	f3e9                	bnez	a5,10c72 <_vfprintf_r+0x540>
   10cb2:	04047793          	andi	a5,s0,64
   10cb6:	c781                	beqz	a5,10cbe <_vfprintf_r+0x58c>
   10cb8:	000b9b83          	lh	s7,0(s7)
   10cbc:	bf6d                	j	10c76 <_vfprintf_r+0x544>
   10cbe:	20047793          	andi	a5,s0,512
   10cc2:	c781                	beqz	a5,10cca <_vfprintf_r+0x598>
   10cc4:	000b8b83          	lb	s7,0(s7)
   10cc8:	b77d                	j	10c76 <_vfprintf_r+0x544>
   10cca:	000bab83          	lw	s7,0(s7)
   10cce:	b765                	j	10c76 <_vfprintf_r+0x544>
   10cd0:	00847793          	andi	a5,s0,8
   10cd4:	cfb9                	beqz	a5,10d32 <_vfprintf_r+0x600>
   10cd6:	0bbd                	addi	s7,s7,15
   10cd8:	ff0bfb93          	andi	s7,s7,-16
   10cdc:	010b8793          	addi	a5,s7,16
   10ce0:	f83e                	sd	a5,48(sp)
   10ce2:	000bb783          	ld	a5,0(s7)
   10ce6:	f9be                	sd	a5,240(sp)
   10ce8:	008bb783          	ld	a5,8(s7)
   10cec:	fdbe                	sd	a5,248(sp)
   10cee:	1988                	addi	a0,sp,240
   10cf0:	2c8030ef          	jal	ra,13fb8 <_ldcheck>
   10cf4:	cdaa                	sw	a0,216(sp)
   10cf6:	4789                	li	a5,2
   10cf8:	04f51c63          	bne	a0,a5,10d50 <_vfprintf_r+0x61e>
   10cfc:	754e                	ld	a0,240(sp)
   10cfe:	75ee                	ld	a1,248(sp)
   10d00:	4601                	li	a2,0
   10d02:	4681                	li	a3,0
   10d04:	49f070ef          	jal	ra,189a2 <__letf2>
   10d08:	00055663          	bgez	a0,10d14 <_vfprintf_r+0x5e2>
   10d0c:	02d00793          	li	a5,45
   10d10:	0cf107a3          	sb	a5,207(sp)
   10d14:	04700793          	li	a5,71
   10d18:	0367d763          	ble	s6,a5,10d46 <_vfprintf_r+0x614>
   10d1c:	0005a4b7          	lui	s1,0x5a
   10d20:	e7848493          	addi	s1,s1,-392 # 59e78 <zeroes.4550+0x50>
   10d24:	f7f47413          	andi	s0,s0,-129
   10d28:	2401                	sext.w	s0,s0
   10d2a:	4b81                	li	s7,0
   10d2c:	4d8d                	li	s11,3
   10d2e:	4701                	li	a4,0
   10d30:	a5d1                	j	113f4 <_vfprintf_r+0xcc2>
   10d32:	000bb507          	fld	fa0,0(s7)
   10d36:	008b8793          	addi	a5,s7,8
   10d3a:	f83e                	sd	a5,48(sp)
   10d3c:	42d080ef          	jal	ra,19968 <__extenddftf2>
   10d40:	f9aa                	sd	a0,240(sp)
   10d42:	fdae                	sd	a1,248(sp)
   10d44:	b76d                	j	10cee <_vfprintf_r+0x5bc>
   10d46:	0005a4b7          	lui	s1,0x5a
   10d4a:	e7048493          	addi	s1,s1,-400 # 59e70 <zeroes.4550+0x48>
   10d4e:	bfd9                	j	10d24 <_vfprintf_r+0x5f2>
   10d50:	4785                	li	a5,1
   10d52:	02f51763          	bne	a0,a5,10d80 <_vfprintf_r+0x64e>
   10d56:	77ee                	ld	a5,248(sp)
   10d58:	0007d663          	bgez	a5,10d64 <_vfprintf_r+0x632>
   10d5c:	02d00793          	li	a5,45
   10d60:	0cf107a3          	sb	a5,207(sp)
   10d64:	04700793          	li	a5,71
   10d68:	0167d763          	ble	s6,a5,10d76 <_vfprintf_r+0x644>
   10d6c:	0005a4b7          	lui	s1,0x5a
   10d70:	e8848493          	addi	s1,s1,-376 # 59e88 <zeroes.4550+0x60>
   10d74:	bf45                	j	10d24 <_vfprintf_r+0x5f2>
   10d76:	0005a4b7          	lui	s1,0x5a
   10d7a:	e8048493          	addi	s1,s1,-384 # 59e80 <zeroes.4550+0x58>
   10d7e:	b75d                	j	10d24 <_vfprintf_r+0x5f2>
   10d80:	fdfb7c13          	andi	s8,s6,-33
   10d84:	04100793          	li	a5,65
   10d88:	04fc1c63          	bne	s8,a5,10de0 <_vfprintf_r+0x6ae>
   10d8c:	03000793          	li	a5,48
   10d90:	0cf10823          	sb	a5,208(sp)
   10d94:	06100713          	li	a4,97
   10d98:	07800793          	li	a5,120
   10d9c:	00eb0463          	beq	s6,a4,10da4 <_vfprintf_r+0x672>
   10da0:	05800793          	li	a5,88
   10da4:	0cf108a3          	sb	a5,209(sp)
   10da8:	00246413          	ori	s0,s0,2
   10dac:	06300793          	li	a5,99
   10db0:	2401                	sext.w	s0,s0
   10db2:	25b7d763          	ble	s11,a5,11000 <_vfprintf_r+0x8ce>
   10db6:	001d859b          	addiw	a1,s11,1
   10dba:	854e                	mv	a0,s3
   10dbc:	3f4030ef          	jal	ra,141b0 <_malloc_r>
   10dc0:	84aa                	mv	s1,a0
   10dc2:	24051263          	bnez	a0,11006 <_vfprintf_r+0x8d4>
   10dc6:	01095783          	lhu	a5,16(s2)
   10dca:	0407e793          	ori	a5,a5,64
   10dce:	00f91823          	sh	a5,16(s2)
   10dd2:	01095783          	lhu	a5,16(s2)
   10dd6:	0407f793          	andi	a5,a5,64
   10dda:	a0078fe3          	beqz	a5,107f8 <_vfprintf_r+0xc6>
   10dde:	bc19                	j	107f4 <_vfprintf_r+0xc2>
   10de0:	57fd                	li	a5,-1
   10de2:	22fd8463          	beq	s11,a5,1100a <_vfprintf_r+0x8d8>
   10de6:	04700793          	li	a5,71
   10dea:	4b81                	li	s7,0
   10dec:	00fc1663          	bne	s8,a5,10df8 <_vfprintf_r+0x6c6>
   10df0:	000d9463          	bnez	s11,10df8 <_vfprintf_r+0x6c6>
   10df4:	8bee                	mv	s7,s11
   10df6:	4d85                	li	s11,1
   10df8:	10046793          	ori	a5,s0,256
   10dfc:	7a6e                	ld	s4,248(sp)
   10dfe:	2781                	sext.w	a5,a5
   10e00:	fc3e                	sd	a5,56(sp)
   10e02:	fc82                	sd	zero,120(sp)
   10e04:	7ece                	ld	t4,240(sp)
   10e06:	000a5963          	bgez	s4,10e18 <_vfprintf_r+0x6e6>
   10e0a:	57fd                	li	a5,-1
   10e0c:	17fe                	slli	a5,a5,0x3f
   10e0e:	00fa4a33          	xor	s4,s4,a5
   10e12:	02d00793          	li	a5,45
   10e16:	fcbe                	sd	a5,120(sp)
   10e18:	04100793          	li	a5,65
   10e1c:	22fc1863          	bne	s8,a5,1104c <_vfprintf_r+0x91a>
   10e20:	8576                	mv	a0,t4
   10e22:	85d2                	mv	a1,s4
   10e24:	409080ef          	jal	ra,19a2c <__trunctfdf2>
   10e28:	09a8                	addi	a0,sp,216
   10e2a:	712040ef          	jal	ra,1553c <frexp>
   10e2e:	33b080ef          	jal	ra,19968 <__extenddftf2>
   10e32:	768a                	ld	a3,160(sp)
   10e34:	4601                	li	a2,0
   10e36:	41f070ef          	jal	ra,18a54 <__multf3>
   10e3a:	4601                	li	a2,0
   10e3c:	4681                	li	a3,0
   10e3e:	e12a                	sd	a0,128(sp)
   10e40:	e52e                	sd	a1,136(sp)
   10e42:	213070ef          	jal	ra,18854 <__eqtf2>
   10e46:	e119                	bnez	a0,10e4c <_vfprintf_r+0x71a>
   10e48:	4785                	li	a5,1
   10e4a:	cdbe                	sw	a5,216(sp)
   10e4c:	06100793          	li	a5,97
   10e50:	1cfb0063          	beq	s6,a5,11010 <_vfprintf_r+0x8de>
   10e54:	0005a7b7          	lui	a5,0x5a
   10e58:	ea878793          	addi	a5,a5,-344 # 59ea8 <zeroes.4550+0x80>
   10e5c:	e43e                	sd	a5,8(sp)
   10e5e:	fffd871b          	addiw	a4,s11,-1
   10e62:	8d26                	mv	s10,s1
   10e64:	76aa                	ld	a3,168(sp)
   10e66:	650a                	ld	a0,128(sp)
   10e68:	65aa                	ld	a1,136(sp)
   10e6a:	4601                	li	a2,0
   10e6c:	f93a                	sd	a4,176(sp)
   10e6e:	3e7070ef          	jal	ra,18a54 <__multf3>
   10e72:	8a2e                	mv	s4,a1
   10e74:	f4aa                	sd	a0,104(sp)
   10e76:	205080ef          	jal	ra,1987a <__fixtfsi>
   10e7a:	0005079b          	sext.w	a5,a0
   10e7e:	f8be                	sd	a5,112(sp)
   10e80:	28b080ef          	jal	ra,1990a <__floatsitf>
   10e84:	77a6                	ld	a5,104(sp)
   10e86:	86ae                	mv	a3,a1
   10e88:	862a                	mv	a2,a0
   10e8a:	85d2                	mv	a1,s4
   10e8c:	853e                	mv	a0,a5
   10e8e:	1ce080ef          	jal	ra,1905c <__subtf3>
   10e92:	67a2                	ld	a5,8(sp)
   10e94:	7746                	ld	a4,112(sp)
   10e96:	0d05                	addi	s10,s10,1
   10e98:	e12a                	sd	a0,128(sp)
   10e9a:	00e786b3          	add	a3,a5,a4
   10e9e:	774a                	ld	a4,176(sp)
   10ea0:	0006c683          	lbu	a3,0(a3) # 2000 <main-0xe0b0>
   10ea4:	e52e                	sd	a1,136(sp)
   10ea6:	0007079b          	sext.w	a5,a4
   10eaa:	f4be                	sd	a5,104(sp)
   10eac:	fedd0fa3          	sb	a3,-1(s10)
   10eb0:	57fd                	li	a5,-1
   10eb2:	88aa                	mv	a7,a0
   10eb4:	8a2e                	mv	s4,a1
   10eb6:	16f70263          	beq	a4,a5,1101a <_vfprintf_r+0x8e8>
   10eba:	377d                	addiw	a4,a4,-1
   10ebc:	4601                	li	a2,0
   10ebe:	4681                	li	a3,0
   10ec0:	f93a                	sd	a4,176(sp)
   10ec2:	fd2a                	sd	a0,184(sp)
   10ec4:	191070ef          	jal	ra,18854 <__eqtf2>
   10ec8:	774a                	ld	a4,176(sp)
   10eca:	78ea                	ld	a7,184(sp)
   10ecc:	fd41                	bnez	a0,10e64 <_vfprintf_r+0x732>
   10ece:	66ca                	ld	a3,144(sp)
   10ed0:	4601                	li	a2,0
   10ed2:	8546                	mv	a0,a7
   10ed4:	85d2                	mv	a1,s4
   10ed6:	e146                	sd	a7,128(sp)
   10ed8:	219070ef          	jal	ra,188f0 <__getf2>
   10edc:	02a04063          	bgtz	a0,10efc <_vfprintf_r+0x7ca>
   10ee0:	688a                	ld	a7,128(sp)
   10ee2:	66ca                	ld	a3,144(sp)
   10ee4:	4601                	li	a2,0
   10ee6:	8546                	mv	a0,a7
   10ee8:	85d2                	mv	a1,s4
   10eea:	16b070ef          	jal	ra,18854 <__eqtf2>
   10eee:	14051863          	bnez	a0,1103e <_vfprintf_r+0x90c>
   10ef2:	77c6                	ld	a5,112(sp)
   10ef4:	0017f713          	andi	a4,a5,1
   10ef8:	14070363          	beqz	a4,1103e <_vfprintf_r+0x90c>
   10efc:	67a2                	ld	a5,8(sp)
   10efe:	f5ea                	sd	s10,232(sp)
   10f00:	03000593          	li	a1,48
   10f04:	00f7c603          	lbu	a2,15(a5)
   10f08:	76ae                	ld	a3,232(sp)
   10f0a:	fff68713          	addi	a4,a3,-1
   10f0e:	f5ba                	sd	a4,232(sp)
   10f10:	fff6c703          	lbu	a4,-1(a3)
   10f14:	10c70663          	beq	a4,a2,11020 <_vfprintf_r+0x8ee>
   10f18:	03900613          	li	a2,57
   10f1c:	10c71563          	bne	a4,a2,11026 <_vfprintf_r+0x8f4>
   10f20:	67a2                	ld	a5,8(sp)
   10f22:	00a7c703          	lbu	a4,10(a5)
   10f26:	fee68fa3          	sb	a4,-1(a3)
   10f2a:	8a6a                	mv	s4,s10
   10f2c:	04700713          	li	a4,71
   10f30:	409a0a3b          	subw	s4,s4,s1
   10f34:	4d6e                	lw	s10,216(sp)
   10f36:	1cec1463          	bne	s8,a4,110fe <_vfprintf_r+0x9cc>
   10f3a:	5775                	li	a4,-3
   10f3c:	00ed4463          	blt	s10,a4,10f44 <_vfprintf_r+0x812>
   10f40:	23add263          	ble	s10,s11,11164 <_vfprintf_r+0xa32>
   10f44:	3b79                	addiw	s6,s6,-2
   10f46:	fffd069b          	addiw	a3,s10,-1
   10f4a:	cdb6                	sw	a3,216(sp)
   10f4c:	fdfb7613          	andi	a2,s6,-33
   10f50:	04100513          	li	a0,65
   10f54:	0ffb7713          	andi	a4,s6,255
   10f58:	4581                	li	a1,0
   10f5a:	00a61663          	bne	a2,a0,10f66 <_vfprintf_r+0x834>
   10f5e:	273d                	addiw	a4,a4,15
   10f60:	0ff77713          	andi	a4,a4,255
   10f64:	4585                	li	a1,1
   10f66:	0ee10023          	sb	a4,224(sp)
   10f6a:	02b00793          	li	a5,43
   10f6e:	0006d763          	bgez	a3,10f7c <_vfprintf_r+0x84a>
   10f72:	4685                	li	a3,1
   10f74:	41a686bb          	subw	a3,a3,s10
   10f78:	02d00793          	li	a5,45
   10f7c:	0ef100a3          	sb	a5,225(sp)
   10f80:	47a5                	li	a5,9
   10f82:	1ad7dc63          	ble	a3,a5,1113a <_vfprintf_r+0xa08>
   10f86:	0ef10713          	addi	a4,sp,239
   10f8a:	853a                	mv	a0,a4
   10f8c:	45a9                	li	a1,10
   10f8e:	06300813          	li	a6,99
   10f92:	02b6e7bb          	remw	a5,a3,a1
   10f96:	fff70613          	addi	a2,a4,-1
   10f9a:	0307879b          	addiw	a5,a5,48
   10f9e:	fef70fa3          	sb	a5,-1(a4)
   10fa2:	02b6c7bb          	divw	a5,a3,a1
   10fa6:	18d84063          	blt	a6,a3,11126 <_vfprintf_r+0x9f4>
   10faa:	0307879b          	addiw	a5,a5,48
   10fae:	fef60fa3          	sb	a5,-1(a2)
   10fb2:	1779                	addi	a4,a4,-2
   10fb4:	0e210613          	addi	a2,sp,226
   10fb8:	16a76a63          	bltu	a4,a0,1112c <_vfprintf_r+0x9fa>
   10fbc:	119c                	addi	a5,sp,224
   10fbe:	40f607bb          	subw	a5,a2,a5
   10fc2:	ecbe                	sd	a5,88(sp)
   10fc4:	01478dbb          	addw	s11,a5,s4
   10fc8:	4705                	li	a4,1
   10fca:	87ee                	mv	a5,s11
   10fcc:	01474563          	blt	a4,s4,10fd6 <_vfprintf_r+0x8a4>
   10fd0:	00147713          	andi	a4,s0,1
   10fd4:	c701                	beqz	a4,10fdc <_vfprintf_r+0x8aa>
   10fd6:	6762                	ld	a4,24(sp)
   10fd8:	00e78dbb          	addw	s11,a5,a4
   10fdc:	bff47413          	andi	s0,s0,-1025
   10fe0:	2401                	sext.w	s0,s0
   10fe2:	10046793          	ori	a5,s0,256
   10fe6:	fc3e                	sd	a5,56(sp)
   10fe8:	e402                	sd	zero,8(sp)
   10fea:	4c01                	li	s8,0
   10fec:	4d01                	li	s10,0
   10fee:	77e6                	ld	a5,120(sp)
   10ff0:	c789                	beqz	a5,10ffa <_vfprintf_r+0x8c8>
   10ff2:	02d00713          	li	a4,45
   10ff6:	0ce107a3          	sb	a4,207(sp)
   10ffa:	7462                	ld	s0,56(sp)
   10ffc:	4701                	li	a4,0
   10ffe:	bca1                	j	10a56 <_vfprintf_r+0x324>
   11000:	4b81                	li	s7,0
   11002:	0a24                	addi	s1,sp,280
   11004:	bbd5                	j	10df8 <_vfprintf_r+0x6c6>
   11006:	8baa                	mv	s7,a0
   11008:	bbc5                	j	10df8 <_vfprintf_r+0x6c6>
   1100a:	4b81                	li	s7,0
   1100c:	4d99                	li	s11,6
   1100e:	b3ed                	j	10df8 <_vfprintf_r+0x6c6>
   11010:	0005a7b7          	lui	a5,0x5a
   11014:	e9078793          	addi	a5,a5,-368 # 59e90 <zeroes.4550+0x68>
   11018:	b591                	j	10e5c <_vfprintf_r+0x72a>
   1101a:	57fd                	li	a5,-1
   1101c:	f4be                	sd	a5,104(sp)
   1101e:	bd45                	j	10ece <_vfprintf_r+0x79c>
   11020:	feb68fa3          	sb	a1,-1(a3)
   11024:	b5d5                	j	10f08 <_vfprintf_r+0x7d6>
   11026:	2705                	addiw	a4,a4,1
   11028:	0ff77713          	andi	a4,a4,255
   1102c:	bded                	j	10f26 <_vfprintf_r+0x7f4>
   1102e:	0a05                	addi	s4,s4,1
   11030:	feda0fa3          	sb	a3,-1(s4)
   11034:	4147873b          	subw	a4,a5,s4
   11038:	fe075be3          	bgez	a4,1102e <_vfprintf_r+0x8fc>
   1103c:	bdc5                	j	10f2c <_vfprintf_r+0x7fa>
   1103e:	77a6                	ld	a5,104(sp)
   11040:	8a6a                	mv	s4,s10
   11042:	03000693          	li	a3,48
   11046:	01a787bb          	addw	a5,a5,s10
   1104a:	b7ed                	j	11034 <_vfprintf_r+0x902>
   1104c:	04600793          	li	a5,70
   11050:	00fc0b63          	beq	s8,a5,11066 <_vfprintf_r+0x934>
   11054:	04500793          	li	a5,69
   11058:	8d6e                	mv	s10,s11
   1105a:	00fc1463          	bne	s8,a5,11062 <_vfprintf_r+0x930>
   1105e:	001d8d1b          	addiw	s10,s11,1
   11062:	4689                	li	a3,2
   11064:	a019                	j	1106a <_vfprintf_r+0x938>
   11066:	8d6e                	mv	s10,s11
   11068:	468d                	li	a3,3
   1106a:	09bc                	addi	a5,sp,216
   1106c:	85f6                	mv	a1,t4
   1106e:	0e810893          	addi	a7,sp,232
   11072:	0dc10813          	addi	a6,sp,220
   11076:	876a                	mv	a4,s10
   11078:	8652                	mv	a2,s4
   1107a:	854e                	mv	a0,s3
   1107c:	e476                	sd	t4,8(sp)
   1107e:	658020ef          	jal	ra,136d6 <_ldtoa_r>
   11082:	04700793          	li	a5,71
   11086:	84aa                	mv	s1,a0
   11088:	6ea2                	ld	t4,8(sp)
   1108a:	00fc1763          	bne	s8,a5,11098 <_vfprintf_r+0x966>
   1108e:	00147793          	andi	a5,s0,1
   11092:	e399                	bnez	a5,11098 <_vfprintf_r+0x966>
   11094:	7a2e                	ld	s4,232(sp)
   11096:	bd59                	j	10f2c <_vfprintf_r+0x7fa>
   11098:	04600713          	li	a4,70
   1109c:	01a487b3          	add	a5,s1,s10
   110a0:	02ec1963          	bne	s8,a4,110d2 <_vfprintf_r+0x9a0>
   110a4:	0004c683          	lbu	a3,0(s1)
   110a8:	03000713          	li	a4,48
   110ac:	02e69163          	bne	a3,a4,110ce <_vfprintf_r+0x99c>
   110b0:	8576                	mv	a0,t4
   110b2:	4601                	li	a2,0
   110b4:	4681                	li	a3,0
   110b6:	85d2                	mv	a1,s4
   110b8:	f4be                	sd	a5,104(sp)
   110ba:	e476                	sd	t4,8(sp)
   110bc:	798070ef          	jal	ra,18854 <__eqtf2>
   110c0:	6ea2                	ld	t4,8(sp)
   110c2:	77a6                	ld	a5,104(sp)
   110c4:	c509                	beqz	a0,110ce <_vfprintf_r+0x99c>
   110c6:	4705                	li	a4,1
   110c8:	41a70d3b          	subw	s10,a4,s10
   110cc:	cdea                	sw	s10,216(sp)
   110ce:	476e                	lw	a4,216(sp)
   110d0:	97ba                	add	a5,a5,a4
   110d2:	4601                	li	a2,0
   110d4:	4681                	li	a3,0
   110d6:	8576                	mv	a0,t4
   110d8:	85d2                	mv	a1,s4
   110da:	e43e                	sd	a5,8(sp)
   110dc:	778070ef          	jal	ra,18854 <__eqtf2>
   110e0:	67a2                	ld	a5,8(sp)
   110e2:	e111                	bnez	a0,110e6 <_vfprintf_r+0x9b4>
   110e4:	f5be                	sd	a5,232(sp)
   110e6:	03000693          	li	a3,48
   110ea:	a031                	j	110f6 <_vfprintf_r+0x9c4>
   110ec:	00170613          	addi	a2,a4,1
   110f0:	f5b2                	sd	a2,232(sp)
   110f2:	00d70023          	sb	a3,0(a4)
   110f6:	772e                	ld	a4,232(sp)
   110f8:	fef76ae3          	bltu	a4,a5,110ec <_vfprintf_r+0x9ba>
   110fc:	bf61                	j	11094 <_vfprintf_r+0x962>
   110fe:	04600713          	li	a4,70
   11102:	e4ec12e3          	bne	s8,a4,10f46 <_vfprintf_r+0x814>
   11106:	00147713          	andi	a4,s0,1
   1110a:	00ede733          	or	a4,s11,a4
   1110e:	2701                	sext.w	a4,a4
   11110:	05a05563          	blez	s10,1115a <_vfprintf_r+0xa28>
   11114:	cf41                	beqz	a4,111ac <_vfprintf_r+0xa7a>
   11116:	67e2                	ld	a5,24(sp)
   11118:	01a7873b          	addw	a4,a5,s10
   1111c:	01b70dbb          	addw	s11,a4,s11
   11120:	06600b13          	li	s6,102
   11124:	a0bd                	j	11192 <_vfprintf_r+0xa60>
   11126:	8732                	mv	a4,a2
   11128:	86be                	mv	a3,a5
   1112a:	b5a5                	j	10f92 <_vfprintf_r+0x860>
   1112c:	0705                	addi	a4,a4,1
   1112e:	fff74783          	lbu	a5,-1(a4)
   11132:	0605                	addi	a2,a2,1
   11134:	fef60fa3          	sb	a5,-1(a2)
   11138:	b541                	j	10fb8 <_vfprintf_r+0x886>
   1113a:	0e210713          	addi	a4,sp,226
   1113e:	e599                	bnez	a1,1114c <_vfprintf_r+0xa1a>
   11140:	03000793          	li	a5,48
   11144:	0ef10123          	sb	a5,226(sp)
   11148:	0e310713          	addi	a4,sp,227
   1114c:	0306879b          	addiw	a5,a3,48
   11150:	00170613          	addi	a2,a4,1
   11154:	00f70023          	sb	a5,0(a4)
   11158:	b595                	j	10fbc <_vfprintf_r+0x88a>
   1115a:	cb39                	beqz	a4,111b0 <_vfprintf_r+0xa7e>
   1115c:	67e2                	ld	a5,24(sp)
   1115e:	0017871b          	addiw	a4,a5,1
   11162:	bf6d                	j	1111c <_vfprintf_r+0x9ea>
   11164:	014d4c63          	blt	s10,s4,1117c <_vfprintf_r+0xa4a>
   11168:	00147713          	andi	a4,s0,1
   1116c:	8dea                	mv	s11,s10
   1116e:	c701                	beqz	a4,11176 <_vfprintf_r+0xa44>
   11170:	67e2                	ld	a5,24(sp)
   11172:	01a78dbb          	addw	s11,a5,s10
   11176:	06700b13          	li	s6,103
   1117a:	a821                	j	11192 <_vfprintf_r+0xa60>
   1117c:	67e2                	ld	a5,24(sp)
   1117e:	06700b13          	li	s6,103
   11182:	01478dbb          	addw	s11,a5,s4
   11186:	01a04663          	bgtz	s10,11192 <_vfprintf_r+0xa60>
   1118a:	41ad8e3b          	subw	t3,s11,s10
   1118e:	001e0d9b          	addiw	s11,t3,1
   11192:	40047413          	andi	s0,s0,1024
   11196:	00040c1b          	sext.w	s8,s0
   1119a:	e402                	sd	zero,8(sp)
   1119c:	e40c09e3          	beqz	s8,10fee <_vfprintf_r+0x8bc>
   111a0:	4c01                	li	s8,0
   111a2:	e5a056e3          	blez	s10,10fee <_vfprintf_r+0x8bc>
   111a6:	0ff00693          	li	a3,255
   111aa:	a01d                	j	111d0 <_vfprintf_r+0xa9e>
   111ac:	8dea                	mv	s11,s10
   111ae:	bf8d                	j	11120 <_vfprintf_r+0x9ee>
   111b0:	06600b13          	li	s6,102
   111b4:	4d85                	li	s11,1
   111b6:	bff1                	j	11192 <_vfprintf_r+0xa60>
   111b8:	2701                	sext.w	a4,a4
   111ba:	03a75063          	ble	s10,a4,111da <_vfprintf_r+0xaa8>
   111be:	6782                	ld	a5,0(sp)
   111c0:	40ed0d3b          	subw	s10,s10,a4
   111c4:	0017c703          	lbu	a4,1(a5)
   111c8:	c315                	beqz	a4,111ec <_vfprintf_r+0xaba>
   111ca:	0785                	addi	a5,a5,1
   111cc:	2c05                	addiw	s8,s8,1
   111ce:	e03e                	sd	a5,0(sp)
   111d0:	6782                	ld	a5,0(sp)
   111d2:	0007c703          	lbu	a4,0(a5)
   111d6:	fed711e3          	bne	a4,a3,111b8 <_vfprintf_r+0xa86>
   111da:	67a2                	ld	a5,8(sp)
   111dc:	00fc073b          	addw	a4,s8,a5
   111e0:	6786                	ld	a5,64(sp)
   111e2:	02f7073b          	mulw	a4,a4,a5
   111e6:	01b70dbb          	addw	s11,a4,s11
   111ea:	b511                	j	10fee <_vfprintf_r+0x8bc>
   111ec:	67a2                	ld	a5,8(sp)
   111ee:	2785                	addiw	a5,a5,1
   111f0:	e43e                	sd	a5,8(sp)
   111f2:	bff9                	j	111d0 <_vfprintf_r+0xa9e>
   111f4:	008b8713          	addi	a4,s7,8
   111f8:	f83a                	sd	a4,48(sp)
   111fa:	02047713          	andi	a4,s0,32
   111fe:	000bb783          	ld	a5,0(s7)
   11202:	c719                	beqz	a4,11210 <_vfprintf_r+0xade>
   11204:	7722                	ld	a4,40(sp)
   11206:	e398                	sd	a4,0(a5)
   11208:	7bc2                	ld	s7,48(sp)
   1120a:	64c2                	ld	s1,16(sp)
   1120c:	e6cff06f          	j	10878 <_vfprintf_r+0x146>
   11210:	01047713          	andi	a4,s0,16
   11214:	fb65                	bnez	a4,11204 <_vfprintf_r+0xad2>
   11216:	04047713          	andi	a4,s0,64
   1121a:	c709                	beqz	a4,11224 <_vfprintf_r+0xaf2>
   1121c:	7722                	ld	a4,40(sp)
   1121e:	00e79023          	sh	a4,0(a5)
   11222:	b7dd                	j	11208 <_vfprintf_r+0xad6>
   11224:	20047413          	andi	s0,s0,512
   11228:	7722                	ld	a4,40(sp)
   1122a:	c401                	beqz	s0,11232 <_vfprintf_r+0xb00>
   1122c:	00e78023          	sb	a4,0(a5)
   11230:	bfe1                	j	11208 <_vfprintf_r+0xad6>
   11232:	c398                	sw	a4,0(a5)
   11234:	bfd1                	j	11208 <_vfprintf_r+0xad6>
   11236:	01046413          	ori	s0,s0,16
   1123a:	2401                	sext.w	s0,s0
   1123c:	008b8793          	addi	a5,s7,8
   11240:	f83e                	sd	a5,48(sp)
   11242:	02047793          	andi	a5,s0,32
   11246:	cb91                	beqz	a5,1125a <_vfprintf_r+0xb28>
   11248:	000bbb83          	ld	s7,0(s7)
   1124c:	bff47413          	andi	s0,s0,-1025
   11250:	2401                	sext.w	s0,s0
   11252:	4781                	li	a5,0
   11254:	0c0107a3          	sb	zero,207(sp)
   11258:	bc15                	j	10c8c <_vfprintf_r+0x55a>
   1125a:	01047793          	andi	a5,s0,16
   1125e:	f7ed                	bnez	a5,11248 <_vfprintf_r+0xb16>
   11260:	04047793          	andi	a5,s0,64
   11264:	000bab83          	lw	s7,0(s7)
   11268:	c789                	beqz	a5,11272 <_vfprintf_r+0xb40>
   1126a:	1bc2                	slli	s7,s7,0x30
   1126c:	030bdb93          	srli	s7,s7,0x30
   11270:	bff1                	j	1124c <_vfprintf_r+0xb1a>
   11272:	20047793          	andi	a5,s0,512
   11276:	c781                	beqz	a5,1127e <_vfprintf_r+0xb4c>
   11278:	0ffbfb93          	andi	s7,s7,255
   1127c:	bfc1                	j	1124c <_vfprintf_r+0xb1a>
   1127e:	1b82                	slli	s7,s7,0x20
   11280:	020bdb93          	srli	s7,s7,0x20
   11284:	b7e1                	j	1124c <_vfprintf_r+0xb1a>
   11286:	008b8793          	addi	a5,s7,8
   1128a:	f83e                	sd	a5,48(sp)
   1128c:	77e1                	lui	a5,0xffff8
   1128e:	8307c793          	xori	a5,a5,-2000
   11292:	0cf11823          	sh	a5,208(sp)
   11296:	0005a7b7          	lui	a5,0x5a
   1129a:	e9078793          	addi	a5,a5,-368 # 59e90 <zeroes.4550+0x68>
   1129e:	00246413          	ori	s0,s0,2
   112a2:	f0be                	sd	a5,96(sp)
   112a4:	000bbb83          	ld	s7,0(s7)
   112a8:	2401                	sext.w	s0,s0
   112aa:	4789                	li	a5,2
   112ac:	07800b13          	li	s6,120
   112b0:	b755                	j	11254 <_vfprintf_r+0xb22>
   112b2:	008b8793          	addi	a5,s7,8
   112b6:	f83e                	sd	a5,48(sp)
   112b8:	0c0107a3          	sb	zero,207(sp)
   112bc:	57fd                	li	a5,-1
   112be:	000bb483          	ld	s1,0(s7)
   112c2:	00fd8e63          	beq	s11,a5,112de <_vfprintf_r+0xbac>
   112c6:	866e                	mv	a2,s11
   112c8:	4581                	li	a1,0
   112ca:	8526                	mv	a0,s1
   112cc:	41a030ef          	jal	ra,146e6 <memchr>
   112d0:	8baa                	mv	s7,a0
   112d2:	a4050ee3          	beqz	a0,10d2e <_vfprintf_r+0x5fc>
   112d6:	40950dbb          	subw	s11,a0,s1
   112da:	4b81                	li	s7,0
   112dc:	bc89                	j	10d2e <_vfprintf_r+0x5fc>
   112de:	8526                	mv	a0,s1
   112e0:	c40ff0ef          	jal	ra,10720 <strlen>
   112e4:	00050d9b          	sext.w	s11,a0
   112e8:	bfcd                	j	112da <_vfprintf_r+0xba8>
   112ea:	01046413          	ori	s0,s0,16
   112ee:	2401                	sext.w	s0,s0
   112f0:	008b8793          	addi	a5,s7,8
   112f4:	f83e                	sd	a5,48(sp)
   112f6:	02047793          	andi	a5,s0,32
   112fa:	c789                	beqz	a5,11304 <_vfprintf_r+0xbd2>
   112fc:	000bbb83          	ld	s7,0(s7)
   11300:	4785                	li	a5,1
   11302:	bf89                	j	11254 <_vfprintf_r+0xb22>
   11304:	01047793          	andi	a5,s0,16
   11308:	fbf5                	bnez	a5,112fc <_vfprintf_r+0xbca>
   1130a:	04047793          	andi	a5,s0,64
   1130e:	000bab83          	lw	s7,0(s7)
   11312:	c789                	beqz	a5,1131c <_vfprintf_r+0xbea>
   11314:	1bc2                	slli	s7,s7,0x30
   11316:	030bdb93          	srli	s7,s7,0x30
   1131a:	b7dd                	j	11300 <_vfprintf_r+0xbce>
   1131c:	20047793          	andi	a5,s0,512
   11320:	c781                	beqz	a5,11328 <_vfprintf_r+0xbf6>
   11322:	0ffbfb93          	andi	s7,s7,255
   11326:	bfe9                	j	11300 <_vfprintf_r+0xbce>
   11328:	1b82                	slli	s7,s7,0x20
   1132a:	020bdb93          	srli	s7,s7,0x20
   1132e:	bfc9                	j	11300 <_vfprintf_r+0xbce>
   11330:	0005a7b7          	lui	a5,0x5a
   11334:	ea878793          	addi	a5,a5,-344 # 59ea8 <zeroes.4550+0x80>
   11338:	f0be                	sd	a5,96(sp)
   1133a:	008b8793          	addi	a5,s7,8
   1133e:	f83e                	sd	a5,48(sp)
   11340:	02047793          	andi	a5,s0,32
   11344:	cb9d                	beqz	a5,1137a <_vfprintf_r+0xc48>
   11346:	000bbb83          	ld	s7,0(s7)
   1134a:	00147793          	andi	a5,s0,1
   1134e:	cf81                	beqz	a5,11366 <_vfprintf_r+0xc34>
   11350:	000b8b63          	beqz	s7,11366 <_vfprintf_r+0xc34>
   11354:	03000793          	li	a5,48
   11358:	00246413          	ori	s0,s0,2
   1135c:	0cf10823          	sb	a5,208(sp)
   11360:	0d6108a3          	sb	s6,209(sp)
   11364:	2401                	sext.w	s0,s0
   11366:	bff47413          	andi	s0,s0,-1025
   1136a:	2401                	sext.w	s0,s0
   1136c:	4789                	li	a5,2
   1136e:	b5dd                	j	11254 <_vfprintf_r+0xb22>
   11370:	0005a7b7          	lui	a5,0x5a
   11374:	e9078793          	addi	a5,a5,-368 # 59e90 <zeroes.4550+0x68>
   11378:	b7c1                	j	11338 <_vfprintf_r+0xc06>
   1137a:	01047793          	andi	a5,s0,16
   1137e:	f7e1                	bnez	a5,11346 <_vfprintf_r+0xc14>
   11380:	04047793          	andi	a5,s0,64
   11384:	000bab83          	lw	s7,0(s7)
   11388:	c789                	beqz	a5,11392 <_vfprintf_r+0xc60>
   1138a:	1bc2                	slli	s7,s7,0x30
   1138c:	030bdb93          	srli	s7,s7,0x30
   11390:	bf6d                	j	1134a <_vfprintf_r+0xc18>
   11392:	20047793          	andi	a5,s0,512
   11396:	c781                	beqz	a5,1139e <_vfprintf_r+0xc6c>
   11398:	0ffbfb93          	andi	s7,s7,255
   1139c:	b77d                	j	1134a <_vfprintf_r+0xc18>
   1139e:	1b82                	slli	s7,s7,0x20
   113a0:	020bdb93          	srli	s7,s7,0x20
   113a4:	b75d                	j	1134a <_vfprintf_r+0xc18>
   113a6:	8722                	mv	a4,s0
   113a8:	4785                	li	a5,1
   113aa:	b0ed                	j	10c94 <_vfprintf_r+0x562>
   113ac:	4705                	li	a4,1
   113ae:	12e78ce3          	beq	a5,a4,11ce6 <_vfprintf_r+0x15b4>
   113b2:	4709                	li	a4,2
   113b4:	0ae78d63          	beq	a5,a4,1146e <_vfprintf_r+0xd3c>
   113b8:	1afc                	addi	a5,sp,380
   113ba:	007bf713          	andi	a4,s7,7
   113be:	03070713          	addi	a4,a4,48
   113c2:	fee78fa3          	sb	a4,-1(a5)
   113c6:	003bdb93          	srli	s7,s7,0x3
   113ca:	fff78493          	addi	s1,a5,-1
   113ce:	020b9863          	bnez	s7,113fe <_vfprintf_r+0xccc>
   113d2:	00147693          	andi	a3,s0,1
   113d6:	ca89                	beqz	a3,113e8 <_vfprintf_r+0xcb6>
   113d8:	03000693          	li	a3,48
   113dc:	00d70663          	beq	a4,a3,113e8 <_vfprintf_r+0xcb6>
   113e0:	fed48fa3          	sb	a3,-1(s1)
   113e4:	ffe78493          	addi	s1,a5,-2
   113e8:	17c10e13          	addi	t3,sp,380
   113ec:	876e                	mv	a4,s11
   113ee:	4b81                	li	s7,0
   113f0:	409e0dbb          	subw	s11,t3,s1
   113f4:	e402                	sd	zero,8(sp)
   113f6:	4c01                	li	s8,0
   113f8:	4d01                	li	s10,0
   113fa:	e5cff06f          	j	10a56 <_vfprintf_r+0x324>
   113fe:	87a6                	mv	a5,s1
   11400:	bf6d                	j	113ba <_vfprintf_r+0xc88>
   11402:	40047c13          	andi	s8,s0,1024
   11406:	4a01                	li	s4,0
   11408:	1afc                	addi	a5,sp,380
   1140a:	46a9                	li	a3,10
   1140c:	2c01                	sext.w	s8,s8
   1140e:	0ff00813          	li	a6,255
   11412:	4d25                	li	s10,9
   11414:	02dbf733          	remu	a4,s7,a3
   11418:	fff78493          	addi	s1,a5,-1
   1141c:	2a05                	addiw	s4,s4,1
   1141e:	0307071b          	addiw	a4,a4,48
   11422:	fee78fa3          	sb	a4,-1(a5)
   11426:	020c0d63          	beqz	s8,11460 <_vfprintf_r+0xd2e>
   1142a:	6782                	ld	a5,0(sp)
   1142c:	0007c783          	lbu	a5,0(a5)
   11430:	02fa1863          	bne	s4,a5,11460 <_vfprintf_r+0xd2e>
   11434:	03078663          	beq	a5,a6,11460 <_vfprintf_r+0xd2e>
   11438:	037d7463          	bleu	s7,s10,11460 <_vfprintf_r+0xd2e>
   1143c:	6786                	ld	a5,64(sp)
   1143e:	65c6                	ld	a1,80(sp)
   11440:	4a01                	li	s4,0
   11442:	8c9d                	sub	s1,s1,a5
   11444:	863e                	mv	a2,a5
   11446:	8526                	mv	a0,s1
   11448:	3b2040ef          	jal	ra,157fa <strncpy>
   1144c:	6782                	ld	a5,0(sp)
   1144e:	46a9                	li	a3,10
   11450:	0ff00813          	li	a6,255
   11454:	0017c783          	lbu	a5,1(a5)
   11458:	c781                	beqz	a5,11460 <_vfprintf_r+0xd2e>
   1145a:	6782                	ld	a5,0(sp)
   1145c:	0785                	addi	a5,a5,1
   1145e:	e03e                	sd	a5,0(sp)
   11460:	02dbd7b3          	divu	a5,s7,a3
   11464:	f97d72e3          	bleu	s7,s10,113e8 <_vfprintf_r+0xcb6>
   11468:	8bbe                	mv	s7,a5
   1146a:	87a6                	mv	a5,s1
   1146c:	b765                	j	11414 <_vfprintf_r+0xce2>
   1146e:	1ae4                	addi	s1,sp,380
   11470:	7706                	ld	a4,96(sp)
   11472:	00fbf793          	andi	a5,s7,15
   11476:	14fd                	addi	s1,s1,-1
   11478:	97ba                	add	a5,a5,a4
   1147a:	0007c783          	lbu	a5,0(a5)
   1147e:	004bdb93          	srli	s7,s7,0x4
   11482:	00f48023          	sb	a5,0(s1)
   11486:	fe0b95e3          	bnez	s7,11470 <_vfprintf_r+0xd3e>
   1148a:	bfb9                	j	113e8 <_vfprintf_r+0xcb6>
   1148c:	1ae4                	addi	s1,sp,380
   1148e:	ffa9                	bnez	a5,113e8 <_vfprintf_r+0xcb6>
   11490:	8b05                	andi	a4,a4,1
   11492:	db39                	beqz	a4,113e8 <_vfprintf_r+0xcb6>
   11494:	03000793          	li	a5,48
   11498:	16f10da3          	sb	a5,379(sp)
   1149c:	0590006f          	j	11cf4 <_vfprintf_r+0x15c2>
   114a0:	020b06e3          	beqz	s6,11ccc <_vfprintf_r+0x159a>
   114a4:	11610c23          	sb	s6,280(sp)
   114a8:	0c0107a3          	sb	zero,207(sp)
   114ac:	f85e                	sd	s7,48(sp)
   114ae:	d9aff06f          	j	10a48 <_vfprintf_r+0x316>
   114b2:	0641                	addi	a2,a2,16
   114b4:	011cb423          	sd	a7,8(s9)
   114b8:	ea32                	sd	a2,272(sp)
   114ba:	10b12423          	sw	a1,264(sp)
   114be:	02aed463          	ble	a0,t4,114e6 <_vfprintf_r+0xdb4>
   114c2:	0210                	addi	a2,sp,256
   114c4:	85ca                	mv	a1,s2
   114c6:	854e                	mv	a0,s3
   114c8:	e13a                	sd	a4,128(sp)
   114ca:	fcb6                	sd	a3,120(sp)
   114cc:	0e1050ef          	jal	ra,16dac <__sprint_r>
   114d0:	7a051f63          	bnez	a0,11c8e <_vfprintf_r+0x155c>
   114d4:	670a                	ld	a4,128(sp)
   114d6:	76e6                	ld	a3,120(sp)
   114d8:	0005a7b7          	lui	a5,0x5a
   114dc:	8f56                	mv	t5,s5
   114de:	4e9d                	li	t4,7
   114e0:	e1878813          	addi	a6,a5,-488 # 59e18 <blanks.4549>
   114e4:	48c1                	li	a7,16
   114e6:	36c1                	addiw	a3,a3,-16
   114e8:	8cfa                	mv	s9,t5
   114ea:	db8ff06f          	j	10aa2 <_vfprintf_r+0x370>
   114ee:	0641                	addi	a2,a2,16
   114f0:	011cb423          	sd	a7,8(s9)
   114f4:	ea32                	sd	a2,272(sp)
   114f6:	10b12423          	sw	a1,264(sp)
   114fa:	02aed463          	ble	a0,t4,11522 <_vfprintf_r+0xdf0>
   114fe:	0210                	addi	a2,sp,256
   11500:	85ca                	mv	a1,s2
   11502:	854e                	mv	a0,s3
   11504:	f8ba                	sd	a4,112(sp)
   11506:	f4b6                	sd	a3,104(sp)
   11508:	0a5050ef          	jal	ra,16dac <__sprint_r>
   1150c:	78051163          	bnez	a0,11c8e <_vfprintf_r+0x155c>
   11510:	7746                	ld	a4,112(sp)
   11512:	76a6                	ld	a3,104(sp)
   11514:	0005a7b7          	lui	a5,0x5a
   11518:	8f56                	mv	t5,s5
   1151a:	4e9d                	li	t4,7
   1151c:	e2878813          	addi	a6,a5,-472 # 59e28 <zeroes.4550>
   11520:	48c1                	li	a7,16
   11522:	36c1                	addiw	a3,a3,-16
   11524:	8cfa                	mv	s9,t5
   11526:	e64ff06f          	j	10b8a <_vfprintf_r+0x458>
   1152a:	06c1                	addi	a3,a3,16
   1152c:	011cb423          	sd	a7,8(s9)
   11530:	ea36                	sd	a3,272(sp)
   11532:	10c12423          	sw	a2,264(sp)
   11536:	02bed263          	ble	a1,t4,1155a <_vfprintf_r+0xe28>
   1153a:	0210                	addi	a2,sp,256
   1153c:	85ca                	mv	a1,s2
   1153e:	854e                	mv	a0,s3
   11540:	f4ba                	sd	a4,104(sp)
   11542:	06b050ef          	jal	ra,16dac <__sprint_r>
   11546:	74051463          	bnez	a0,11c8e <_vfprintf_r+0x155c>
   1154a:	7726                	ld	a4,104(sp)
   1154c:	0005a7b7          	lui	a5,0x5a
   11550:	8556                	mv	a0,s5
   11552:	4e9d                	li	t4,7
   11554:	e2878813          	addi	a6,a5,-472 # 59e28 <zeroes.4550>
   11558:	48c1                	li	a7,16
   1155a:	3741                	addiw	a4,a4,-16
   1155c:	8caa                	mv	s9,a0
   1155e:	e82ff06f          	j	10be0 <_vfprintf_r+0x4ae>
   11562:	06500693          	li	a3,101
   11566:	5966d163          	ble	s6,a3,11ae8 <_vfprintf_r+0x13b6>
   1156a:	754e                	ld	a0,240(sp)
   1156c:	75ee                	ld	a1,248(sp)
   1156e:	4601                	li	a2,0
   11570:	4681                	li	a3,0
   11572:	f4ba                	sd	a4,104(sp)
   11574:	2e0070ef          	jal	ra,18854 <__eqtf2>
   11578:	7726                	ld	a4,104(sp)
   1157a:	10051f63          	bnez	a0,11698 <_vfprintf_r+0xf66>
   1157e:	0005a7b7          	lui	a5,0x5a
   11582:	ec078793          	addi	a5,a5,-320 # 59ec0 <zeroes.4550+0x98>
   11586:	00fcb023          	sd	a5,0(s9)
   1158a:	4785                	li	a5,1
   1158c:	00fcb423          	sd	a5,8(s9)
   11590:	10812783          	lw	a5,264(sp)
   11594:	0705                	addi	a4,a4,1
   11596:	ea3a                	sd	a4,272(sp)
   11598:	0017871b          	addiw	a4,a5,1
   1159c:	10e12423          	sw	a4,264(sp)
   115a0:	479d                	li	a5,7
   115a2:	0cc1                	addi	s9,s9,16
   115a4:	00e7da63          	ble	a4,a5,115b8 <_vfprintf_r+0xe86>
   115a8:	0210                	addi	a2,sp,256
   115aa:	85ca                	mv	a1,s2
   115ac:	854e                	mv	a0,s3
   115ae:	7fe050ef          	jal	ra,16dac <__sprint_r>
   115b2:	6c051e63          	bnez	a0,11c8e <_vfprintf_r+0x155c>
   115b6:	8cd6                	mv	s9,s5
   115b8:	47ee                	lw	a5,216(sp)
   115ba:	0147c563          	blt	a5,s4,115c4 <_vfprintf_r+0xe92>
   115be:	00147793          	andi	a5,s0,1
   115c2:	cfad                	beqz	a5,1163c <_vfprintf_r+0xf0a>
   115c4:	67a6                	ld	a5,72(sp)
   115c6:	6762                	ld	a4,24(sp)
   115c8:	0cc1                	addi	s9,s9,16
   115ca:	fefcb823          	sd	a5,-16(s9)
   115ce:	67e2                	ld	a5,24(sp)
   115d0:	fefcbc23          	sd	a5,-8(s9)
   115d4:	67d2                	ld	a5,272(sp)
   115d6:	97ba                	add	a5,a5,a4
   115d8:	ea3e                	sd	a5,272(sp)
   115da:	10812783          	lw	a5,264(sp)
   115de:	0017871b          	addiw	a4,a5,1
   115e2:	10e12423          	sw	a4,264(sp)
   115e6:	479d                	li	a5,7
   115e8:	00e7da63          	ble	a4,a5,115fc <_vfprintf_r+0xeca>
   115ec:	0210                	addi	a2,sp,256
   115ee:	85ca                	mv	a1,s2
   115f0:	854e                	mv	a0,s3
   115f2:	7ba050ef          	jal	ra,16dac <__sprint_r>
   115f6:	68051c63          	bnez	a0,11c8e <_vfprintf_r+0x155c>
   115fa:	8cd6                	mv	s9,s5
   115fc:	fffa049b          	addiw	s1,s4,-1
   11600:	02905e63          	blez	s1,1163c <_vfprintf_r+0xf0a>
   11604:	0005ab37          	lui	s6,0x5a
   11608:	4c41                	li	s8,16
   1160a:	e28b0b13          	addi	s6,s6,-472 # 59e28 <zeroes.4550>
   1160e:	4d1d                	li	s10,7
   11610:	10812703          	lw	a4,264(sp)
   11614:	016cb023          	sd	s6,0(s9)
   11618:	67d2                	ld	a5,272(sp)
   1161a:	0017069b          	addiw	a3,a4,1
   1161e:	8736                	mv	a4,a3
   11620:	010c8613          	addi	a2,s9,16
   11624:	049c4763          	blt	s8,s1,11672 <_vfprintf_r+0xf40>
   11628:	009cb423          	sd	s1,8(s9)
   1162c:	94be                	add	s1,s1,a5
   1162e:	ea26                	sd	s1,272(sp)
   11630:	10d12423          	sw	a3,264(sp)
   11634:	479d                	li	a5,7
   11636:	8cb2                	mv	s9,a2
   11638:	e0d7c963          	blt	a5,a3,10c4a <_vfprintf_r+0x518>
   1163c:	8811                	andi	s0,s0,4
   1163e:	60041263          	bnez	s0,11c42 <_vfprintf_r+0x1510>
   11642:	7702                	ld	a4,32(sp)
   11644:	76e2                	ld	a3,56(sp)
   11646:	5782                	lw	a5,32(sp)
   11648:	00d75363          	ble	a3,a4,1164e <_vfprintf_r+0xf1c>
   1164c:	57e2                	lw	a5,56(sp)
   1164e:	7722                	ld	a4,40(sp)
   11650:	9fb9                	addw	a5,a5,a4
   11652:	f43e                	sd	a5,40(sp)
   11654:	67d2                	ld	a5,272(sp)
   11656:	cb81                	beqz	a5,11666 <_vfprintf_r+0xf34>
   11658:	0210                	addi	a2,sp,256
   1165a:	85ca                	mv	a1,s2
   1165c:	854e                	mv	a0,s3
   1165e:	74e050ef          	jal	ra,16dac <__sprint_r>
   11662:	62051663          	bnez	a0,11c8e <_vfprintf_r+0x155c>
   11666:	10012423          	sw	zero,264(sp)
   1166a:	640b9c63          	bnez	s7,11cc2 <_vfprintf_r+0x1590>
   1166e:	8cd6                	mv	s9,s5
   11670:	be61                	j	11208 <_vfprintf_r+0xad6>
   11672:	07c1                	addi	a5,a5,16
   11674:	018cb423          	sd	s8,8(s9)
   11678:	ea3e                	sd	a5,272(sp)
   1167a:	10e12423          	sw	a4,264(sp)
   1167e:	00dd5a63          	ble	a3,s10,11692 <_vfprintf_r+0xf60>
   11682:	0210                	addi	a2,sp,256
   11684:	85ca                	mv	a1,s2
   11686:	854e                	mv	a0,s3
   11688:	724050ef          	jal	ra,16dac <__sprint_r>
   1168c:	60051163          	bnez	a0,11c8e <_vfprintf_r+0x155c>
   11690:	8656                	mv	a2,s5
   11692:	34c1                	addiw	s1,s1,-16
   11694:	8cb2                	mv	s9,a2
   11696:	bfad                	j	11610 <_vfprintf_r+0xede>
   11698:	46ee                	lw	a3,216(sp)
   1169a:	12d04263          	bgtz	a3,117be <_vfprintf_r+0x108c>
   1169e:	0005a7b7          	lui	a5,0x5a
   116a2:	ec078793          	addi	a5,a5,-320 # 59ec0 <zeroes.4550+0x98>
   116a6:	00fcb023          	sd	a5,0(s9)
   116aa:	4785                	li	a5,1
   116ac:	00fcb423          	sd	a5,8(s9)
   116b0:	10812783          	lw	a5,264(sp)
   116b4:	0705                	addi	a4,a4,1
   116b6:	ea3a                	sd	a4,272(sp)
   116b8:	0017871b          	addiw	a4,a5,1
   116bc:	10e12423          	sw	a4,264(sp)
   116c0:	479d                	li	a5,7
   116c2:	0cc1                	addi	s9,s9,16
   116c4:	00e7da63          	ble	a4,a5,116d8 <_vfprintf_r+0xfa6>
   116c8:	0210                	addi	a2,sp,256
   116ca:	85ca                	mv	a1,s2
   116cc:	854e                	mv	a0,s3
   116ce:	6de050ef          	jal	ra,16dac <__sprint_r>
   116d2:	5a051e63          	bnez	a0,11c8e <_vfprintf_r+0x155c>
   116d6:	8cd6                	mv	s9,s5
   116d8:	47ee                	lw	a5,216(sp)
   116da:	00147693          	andi	a3,s0,1
   116de:	6752                	ld	a4,272(sp)
   116e0:	00fa67b3          	or	a5,s4,a5
   116e4:	8fd5                	or	a5,a5,a3
   116e6:	2781                	sext.w	a5,a5
   116e8:	dbb1                	beqz	a5,1163c <_vfprintf_r+0xf0a>
   116ea:	67a6                	ld	a5,72(sp)
   116ec:	010c8313          	addi	t1,s9,16
   116f0:	00fcb023          	sd	a5,0(s9)
   116f4:	67e2                	ld	a5,24(sp)
   116f6:	00fcb423          	sd	a5,8(s9)
   116fa:	97ba                	add	a5,a5,a4
   116fc:	ea3e                	sd	a5,272(sp)
   116fe:	10812783          	lw	a5,264(sp)
   11702:	0017871b          	addiw	a4,a5,1
   11706:	10e12423          	sw	a4,264(sp)
   1170a:	479d                	li	a5,7
   1170c:	00e7da63          	ble	a4,a5,11720 <_vfprintf_r+0xfee>
   11710:	0210                	addi	a2,sp,256
   11712:	85ca                	mv	a1,s2
   11714:	854e                	mv	a0,s3
   11716:	696050ef          	jal	ra,16dac <__sprint_r>
   1171a:	56051a63          	bnez	a0,11c8e <_vfprintf_r+0x155c>
   1171e:	8356                	mv	t1,s5
   11720:	4b6e                	lw	s6,216(sp)
   11722:	040b5763          	bgez	s6,11770 <_vfprintf_r+0x103e>
   11726:	0005ac37          	lui	s8,0x5a
   1172a:	41600b3b          	negw	s6,s6
   1172e:	879a                	mv	a5,t1
   11730:	4d41                	li	s10,16
   11732:	e28c0c13          	addi	s8,s8,-472 # 59e28 <zeroes.4550>
   11736:	4c9d                	li	s9,7
   11738:	10812683          	lw	a3,264(sp)
   1173c:	0187b023          	sd	s8,0(a5)
   11740:	6752                	ld	a4,272(sp)
   11742:	0016861b          	addiw	a2,a3,1
   11746:	86b2                	mv	a3,a2
   11748:	0341                	addi	t1,t1,16
   1174a:	056d4763          	blt	s10,s6,11798 <_vfprintf_r+0x1066>
   1174e:	0167b423          	sd	s6,8(a5)
   11752:	9b3a                	add	s6,s6,a4
   11754:	ea5a                	sd	s6,272(sp)
   11756:	10c12423          	sw	a2,264(sp)
   1175a:	479d                	li	a5,7
   1175c:	00c7da63          	ble	a2,a5,11770 <_vfprintf_r+0x103e>
   11760:	0210                	addi	a2,sp,256
   11762:	85ca                	mv	a1,s2
   11764:	854e                	mv	a0,s3
   11766:	646050ef          	jal	ra,16dac <__sprint_r>
   1176a:	52051263          	bnez	a0,11c8e <_vfprintf_r+0x155c>
   1176e:	8356                	mv	t1,s5
   11770:	67d2                	ld	a5,272(sp)
   11772:	00933023          	sd	s1,0(t1) # 40000 <__clzdi2+0x263ac>
   11776:	01433423          	sd	s4,8(t1)
   1177a:	97d2                	add	a5,a5,s4
   1177c:	ea3e                	sd	a5,272(sp)
   1177e:	10812783          	lw	a5,264(sp)
   11782:	01030c93          	addi	s9,t1,16
   11786:	0017871b          	addiw	a4,a5,1
   1178a:	10e12423          	sw	a4,264(sp)
   1178e:	479d                	li	a5,7
   11790:	eae7d6e3          	ble	a4,a5,1163c <_vfprintf_r+0xf0a>
   11794:	cb6ff06f          	j	10c4a <_vfprintf_r+0x518>
   11798:	0741                	addi	a4,a4,16
   1179a:	01a7b423          	sd	s10,8(a5)
   1179e:	ea3a                	sd	a4,272(sp)
   117a0:	10d12423          	sw	a3,264(sp)
   117a4:	00ccda63          	ble	a2,s9,117b8 <_vfprintf_r+0x1086>
   117a8:	0210                	addi	a2,sp,256
   117aa:	85ca                	mv	a1,s2
   117ac:	854e                	mv	a0,s3
   117ae:	5fe050ef          	jal	ra,16dac <__sprint_r>
   117b2:	4c051e63          	bnez	a0,11c8e <_vfprintf_r+0x155c>
   117b6:	8356                	mv	t1,s5
   117b8:	3b41                	addiw	s6,s6,-16
   117ba:	879a                	mv	a5,t1
   117bc:	bfb5                	j	11738 <_vfprintf_r+0x1006>
   117be:	000d0b1b          	sext.w	s6,s10
   117c2:	01aa5463          	ble	s10,s4,117ca <_vfprintf_r+0x1098>
   117c6:	000a0b1b          	sext.w	s6,s4
   117ca:	03605a63          	blez	s6,117fe <_vfprintf_r+0x10cc>
   117ce:	975a                	add	a4,a4,s6
   117d0:	ea3a                	sd	a4,272(sp)
   117d2:	10812703          	lw	a4,264(sp)
   117d6:	009cb023          	sd	s1,0(s9)
   117da:	016cb423          	sd	s6,8(s9)
   117de:	0017069b          	addiw	a3,a4,1
   117e2:	10d12423          	sw	a3,264(sp)
   117e6:	471d                	li	a4,7
   117e8:	0cc1                	addi	s9,s9,16
   117ea:	00d75a63          	ble	a3,a4,117fe <_vfprintf_r+0x10cc>
   117ee:	0210                	addi	a2,sp,256
   117f0:	85ca                	mv	a1,s2
   117f2:	854e                	mv	a0,s3
   117f4:	5b8050ef          	jal	ra,16dac <__sprint_r>
   117f8:	48051b63          	bnez	a0,11c8e <_vfprintf_r+0x155c>
   117fc:	8cd6                	mv	s9,s5
   117fe:	875a                	mv	a4,s6
   11800:	000b5363          	bgez	s6,11806 <_vfprintf_r+0x10d4>
   11804:	4701                	li	a4,0
   11806:	40ed0b3b          	subw	s6,s10,a4
   1180a:	05605663          	blez	s6,11856 <_vfprintf_r+0x1124>
   1180e:	0005a6b7          	lui	a3,0x5a
   11812:	4841                	li	a6,16
   11814:	e2868d93          	addi	s11,a3,-472 # 59e28 <zeroes.4550>
   11818:	489d                	li	a7,7
   1181a:	10812603          	lw	a2,264(sp)
   1181e:	01bcb023          	sd	s11,0(s9)
   11822:	6752                	ld	a4,272(sp)
   11824:	0016059b          	addiw	a1,a2,1
   11828:	862e                	mv	a2,a1
   1182a:	010c8513          	addi	a0,s9,16
   1182e:	15684463          	blt	a6,s6,11976 <_vfprintf_r+0x1244>
   11832:	016cb423          	sd	s6,8(s9)
   11836:	9b3a                	add	s6,s6,a4
   11838:	ea5a                	sd	s6,272(sp)
   1183a:	10b12423          	sw	a1,264(sp)
   1183e:	471d                	li	a4,7
   11840:	8caa                	mv	s9,a0
   11842:	00b75a63          	ble	a1,a4,11856 <_vfprintf_r+0x1124>
   11846:	0210                	addi	a2,sp,256
   11848:	85ca                	mv	a1,s2
   1184a:	854e                	mv	a0,s3
   1184c:	560050ef          	jal	ra,16dac <__sprint_r>
   11850:	42051f63          	bnez	a0,11c8e <_vfprintf_r+0x155c>
   11854:	8cd6                	mv	s9,s5
   11856:	40047793          	andi	a5,s0,1024
   1185a:	01a48b33          	add	s6,s1,s10
   1185e:	c785                	beqz	a5,11886 <_vfprintf_r+0x1154>
   11860:	014487b3          	add	a5,s1,s4
   11864:	f4be                	sd	a5,104(sp)
   11866:	0005a7b7          	lui	a5,0x5a
   1186a:	e2878793          	addi	a5,a5,-472 # 59e28 <zeroes.4550>
   1186e:	4d9d                	li	s11,7
   11870:	8d3e                	mv	s10,a5
   11872:	67a2                	ld	a5,8(sp)
   11874:	120c1663          	bnez	s8,119a0 <_vfprintf_r+0x126e>
   11878:	12079563          	bnez	a5,119a2 <_vfprintf_r+0x1270>
   1187c:	014487b3          	add	a5,s1,s4
   11880:	0167f363          	bleu	s6,a5,11886 <_vfprintf_r+0x1154>
   11884:	8b3e                	mv	s6,a5
   11886:	47ee                	lw	a5,216(sp)
   11888:	0147c563          	blt	a5,s4,11892 <_vfprintf_r+0x1160>
   1188c:	00147793          	andi	a5,s0,1
   11890:	cf8d                	beqz	a5,118ca <_vfprintf_r+0x1198>
   11892:	67a6                	ld	a5,72(sp)
   11894:	6762                	ld	a4,24(sp)
   11896:	0cc1                	addi	s9,s9,16
   11898:	fefcb823          	sd	a5,-16(s9)
   1189c:	67e2                	ld	a5,24(sp)
   1189e:	fefcbc23          	sd	a5,-8(s9)
   118a2:	67d2                	ld	a5,272(sp)
   118a4:	97ba                	add	a5,a5,a4
   118a6:	ea3e                	sd	a5,272(sp)
   118a8:	10812783          	lw	a5,264(sp)
   118ac:	0017871b          	addiw	a4,a5,1
   118b0:	10e12423          	sw	a4,264(sp)
   118b4:	479d                	li	a5,7
   118b6:	00e7da63          	ble	a4,a5,118ca <_vfprintf_r+0x1198>
   118ba:	0210                	addi	a2,sp,256
   118bc:	85ca                	mv	a1,s2
   118be:	854e                	mv	a0,s3
   118c0:	4ec050ef          	jal	ra,16dac <__sprint_r>
   118c4:	3c051563          	bnez	a0,11c8e <_vfprintf_r+0x155c>
   118c8:	8cd6                	mv	s9,s5
   118ca:	4c6e                	lw	s8,216(sp)
   118cc:	94d2                	add	s1,s1,s4
   118ce:	416484bb          	subw	s1,s1,s6
   118d2:	418a07bb          	subw	a5,s4,s8
   118d6:	8c3e                	mv	s8,a5
   118d8:	00f4d463          	ble	a5,s1,118e0 <_vfprintf_r+0x11ae>
   118dc:	00048c1b          	sext.w	s8,s1
   118e0:	03805b63          	blez	s8,11916 <_vfprintf_r+0x11e4>
   118e4:	67d2                	ld	a5,272(sp)
   118e6:	016cb023          	sd	s6,0(s9)
   118ea:	018cb423          	sd	s8,8(s9)
   118ee:	97e2                	add	a5,a5,s8
   118f0:	ea3e                	sd	a5,272(sp)
   118f2:	10812783          	lw	a5,264(sp)
   118f6:	0cc1                	addi	s9,s9,16
   118f8:	0017871b          	addiw	a4,a5,1
   118fc:	10e12423          	sw	a4,264(sp)
   11900:	479d                	li	a5,7
   11902:	00e7da63          	ble	a4,a5,11916 <_vfprintf_r+0x11e4>
   11906:	0210                	addi	a2,sp,256
   11908:	85ca                	mv	a1,s2
   1190a:	854e                	mv	a0,s3
   1190c:	4a0050ef          	jal	ra,16dac <__sprint_r>
   11910:	36051f63          	bnez	a0,11c8e <_vfprintf_r+0x155c>
   11914:	8cd6                	mv	s9,s5
   11916:	87e2                	mv	a5,s8
   11918:	000c5363          	bgez	s8,1191e <_vfprintf_r+0x11ec>
   1191c:	4781                	li	a5,0
   1191e:	44ee                	lw	s1,216(sp)
   11920:	409a04bb          	subw	s1,s4,s1
   11924:	9c9d                	subw	s1,s1,a5
   11926:	d0905be3          	blez	s1,1163c <_vfprintf_r+0xf0a>
   1192a:	0005ab37          	lui	s6,0x5a
   1192e:	4c41                	li	s8,16
   11930:	e28b0b13          	addi	s6,s6,-472 # 59e28 <zeroes.4550>
   11934:	4d1d                	li	s10,7
   11936:	10812703          	lw	a4,264(sp)
   1193a:	016cb023          	sd	s6,0(s9)
   1193e:	67d2                	ld	a5,272(sp)
   11940:	0017069b          	addiw	a3,a4,1
   11944:	8736                	mv	a4,a3
   11946:	010c8613          	addi	a2,s9,16
   1194a:	169c4c63          	blt	s8,s1,11ac2 <_vfprintf_r+0x1390>
   1194e:	009cb423          	sd	s1,8(s9)
   11952:	94be                	add	s1,s1,a5
   11954:	ea26                	sd	s1,272(sp)
   11956:	10d12423          	sw	a3,264(sp)
   1195a:	479d                	li	a5,7
   1195c:	8cb2                	mv	s9,a2
   1195e:	ccd7dfe3          	ble	a3,a5,1163c <_vfprintf_r+0xf0a>
   11962:	0210                	addi	a2,sp,256
   11964:	85ca                	mv	a1,s2
   11966:	854e                	mv	a0,s3
   11968:	444050ef          	jal	ra,16dac <__sprint_r>
   1196c:	32051163          	bnez	a0,11c8e <_vfprintf_r+0x155c>
   11970:	18010c93          	addi	s9,sp,384
   11974:	b1e1                	j	1163c <_vfprintf_r+0xf0a>
   11976:	0741                	addi	a4,a4,16
   11978:	010cb423          	sd	a6,8(s9)
   1197c:	ea3a                	sd	a4,272(sp)
   1197e:	10c12423          	sw	a2,264(sp)
   11982:	00b8dc63          	ble	a1,a7,1199a <_vfprintf_r+0x1268>
   11986:	0210                	addi	a2,sp,256
   11988:	85ca                	mv	a1,s2
   1198a:	854e                	mv	a0,s3
   1198c:	420050ef          	jal	ra,16dac <__sprint_r>
   11990:	2e051f63          	bnez	a0,11c8e <_vfprintf_r+0x155c>
   11994:	8556                	mv	a0,s5
   11996:	489d                	li	a7,7
   11998:	4841                	li	a6,16
   1199a:	3b41                	addiw	s6,s6,-16
   1199c:	8caa                	mv	s9,a0
   1199e:	bdb5                	j	1181a <_vfprintf_r+0x10e8>
   119a0:	c7d5                	beqz	a5,11a4c <_vfprintf_r+0x131a>
   119a2:	67a2                	ld	a5,8(sp)
   119a4:	37fd                	addiw	a5,a5,-1
   119a6:	e43e                	sd	a5,8(sp)
   119a8:	67c6                	ld	a5,80(sp)
   119aa:	6706                	ld	a4,64(sp)
   119ac:	0cc1                	addi	s9,s9,16
   119ae:	fefcb823          	sd	a5,-16(s9)
   119b2:	6786                	ld	a5,64(sp)
   119b4:	fefcbc23          	sd	a5,-8(s9)
   119b8:	67d2                	ld	a5,272(sp)
   119ba:	97ba                	add	a5,a5,a4
   119bc:	ea3e                	sd	a5,272(sp)
   119be:	10812783          	lw	a5,264(sp)
   119c2:	0017871b          	addiw	a4,a5,1
   119c6:	10e12423          	sw	a4,264(sp)
   119ca:	00edda63          	ble	a4,s11,119de <_vfprintf_r+0x12ac>
   119ce:	0210                	addi	a2,sp,256
   119d0:	85ca                	mv	a1,s2
   119d2:	854e                	mv	a0,s3
   119d4:	3d8050ef          	jal	ra,16dac <__sprint_r>
   119d8:	2a051b63          	bnez	a0,11c8e <_vfprintf_r+0x155c>
   119dc:	8cd6                	mv	s9,s5
   119de:	6702                	ld	a4,0(sp)
   119e0:	77a6                	ld	a5,104(sp)
   119e2:	00074703          	lbu	a4,0(a4)
   119e6:	416787bb          	subw	a5,a5,s6
   119ea:	00e7d463          	ble	a4,a5,119f2 <_vfprintf_r+0x12c0>
   119ee:	0007871b          	sext.w	a4,a5
   119f2:	02e05d63          	blez	a4,11a2c <_vfprintf_r+0x12fa>
   119f6:	67d2                	ld	a5,272(sp)
   119f8:	016cb023          	sd	s6,0(s9)
   119fc:	00ecb423          	sd	a4,8(s9)
   11a00:	97ba                	add	a5,a5,a4
   11a02:	ea3e                	sd	a5,272(sp)
   11a04:	10812783          	lw	a5,264(sp)
   11a08:	0cc1                	addi	s9,s9,16
   11a0a:	0017869b          	addiw	a3,a5,1
   11a0e:	10d12423          	sw	a3,264(sp)
   11a12:	00dddd63          	ble	a3,s11,11a2c <_vfprintf_r+0x12fa>
   11a16:	0210                	addi	a2,sp,256
   11a18:	85ca                	mv	a1,s2
   11a1a:	854e                	mv	a0,s3
   11a1c:	f8ba                	sd	a4,112(sp)
   11a1e:	38e050ef          	jal	ra,16dac <__sprint_r>
   11a22:	26051663          	bnez	a0,11c8e <_vfprintf_r+0x155c>
   11a26:	7746                	ld	a4,112(sp)
   11a28:	18010c93          	addi	s9,sp,384
   11a2c:	86ba                	mv	a3,a4
   11a2e:	00075363          	bgez	a4,11a34 <_vfprintf_r+0x1302>
   11a32:	4681                	li	a3,0
   11a34:	6782                	ld	a5,0(sp)
   11a36:	4841                	li	a6,16
   11a38:	0007c783          	lbu	a5,0(a5)
   11a3c:	9f95                	subw	a5,a5,a3
   11a3e:	04f04363          	bgtz	a5,11a84 <_vfprintf_r+0x1352>
   11a42:	6782                	ld	a5,0(sp)
   11a44:	0007c783          	lbu	a5,0(a5)
   11a48:	9b3e                	add	s6,s6,a5
   11a4a:	b525                	j	11872 <_vfprintf_r+0x1140>
   11a4c:	6782                	ld	a5,0(sp)
   11a4e:	3c7d                	addiw	s8,s8,-1
   11a50:	17fd                	addi	a5,a5,-1
   11a52:	e03e                	sd	a5,0(sp)
   11a54:	bf91                	j	119a8 <_vfprintf_r+0x1276>
   11a56:	0741                	addi	a4,a4,16
   11a58:	01acb023          	sd	s10,0(s9)
   11a5c:	010cb423          	sd	a6,8(s9)
   11a60:	ea3a                	sd	a4,272(sp)
   11a62:	10d12423          	sw	a3,264(sp)
   11a66:	00cddd63          	ble	a2,s11,11a80 <_vfprintf_r+0x134e>
   11a6a:	0210                	addi	a2,sp,256
   11a6c:	85ca                	mv	a1,s2
   11a6e:	854e                	mv	a0,s3
   11a70:	f8be                	sd	a5,112(sp)
   11a72:	33a050ef          	jal	ra,16dac <__sprint_r>
   11a76:	20051c63          	bnez	a0,11c8e <_vfprintf_r+0x155c>
   11a7a:	77c6                	ld	a5,112(sp)
   11a7c:	030c                	addi	a1,sp,384
   11a7e:	4841                	li	a6,16
   11a80:	37c1                	addiw	a5,a5,-16
   11a82:	8cae                	mv	s9,a1
   11a84:	10812683          	lw	a3,264(sp)
   11a88:	6752                	ld	a4,272(sp)
   11a8a:	010c8593          	addi	a1,s9,16
   11a8e:	0016861b          	addiw	a2,a3,1
   11a92:	86b2                	mv	a3,a2
   11a94:	fcf841e3          	blt	a6,a5,11a56 <_vfprintf_r+0x1324>
   11a98:	00fcb423          	sd	a5,8(s9)
   11a9c:	97ba                	add	a5,a5,a4
   11a9e:	01acb023          	sd	s10,0(s9)
   11aa2:	ea3e                	sd	a5,272(sp)
   11aa4:	10c12423          	sw	a2,264(sp)
   11aa8:	8cae                	mv	s9,a1
   11aaa:	f8cddce3          	ble	a2,s11,11a42 <_vfprintf_r+0x1310>
   11aae:	0210                	addi	a2,sp,256
   11ab0:	85ca                	mv	a1,s2
   11ab2:	854e                	mv	a0,s3
   11ab4:	2f8050ef          	jal	ra,16dac <__sprint_r>
   11ab8:	1c051b63          	bnez	a0,11c8e <_vfprintf_r+0x155c>
   11abc:	18010c93          	addi	s9,sp,384
   11ac0:	b749                	j	11a42 <_vfprintf_r+0x1310>
   11ac2:	07c1                	addi	a5,a5,16
   11ac4:	018cb423          	sd	s8,8(s9)
   11ac8:	ea3e                	sd	a5,272(sp)
   11aca:	10e12423          	sw	a4,264(sp)
   11ace:	00dd5a63          	ble	a3,s10,11ae2 <_vfprintf_r+0x13b0>
   11ad2:	0210                	addi	a2,sp,256
   11ad4:	85ca                	mv	a1,s2
   11ad6:	854e                	mv	a0,s3
   11ad8:	2d4050ef          	jal	ra,16dac <__sprint_r>
   11adc:	1a051963          	bnez	a0,11c8e <_vfprintf_r+0x155c>
   11ae0:	0310                	addi	a2,sp,384
   11ae2:	34c1                	addiw	s1,s1,-16
   11ae4:	8cb2                	mv	s9,a2
   11ae6:	bd81                	j	11936 <_vfprintf_r+0x1204>
   11ae8:	10812783          	lw	a5,264(sp)
   11aec:	4605                	li	a2,1
   11aee:	009cb023          	sd	s1,0(s9)
   11af2:	0017869b          	addiw	a3,a5,1
   11af6:	0705                	addi	a4,a4,1
   11af8:	87b6                	mv	a5,a3
   11afa:	010c8c13          	addi	s8,s9,16
   11afe:	01464663          	blt	a2,s4,11b0a <_vfprintf_r+0x13d8>
   11b02:	00147593          	andi	a1,s0,1
   11b06:	12058763          	beqz	a1,11c34 <_vfprintf_r+0x1502>
   11b0a:	4605                	li	a2,1
   11b0c:	10f12423          	sw	a5,264(sp)
   11b10:	00ccb423          	sd	a2,8(s9)
   11b14:	ea3a                	sd	a4,272(sp)
   11b16:	479d                	li	a5,7
   11b18:	00d7da63          	ble	a3,a5,11b2c <_vfprintf_r+0x13fa>
   11b1c:	0210                	addi	a2,sp,256
   11b1e:	85ca                	mv	a1,s2
   11b20:	854e                	mv	a0,s3
   11b22:	28a050ef          	jal	ra,16dac <__sprint_r>
   11b26:	16051463          	bnez	a0,11c8e <_vfprintf_r+0x155c>
   11b2a:	8c56                	mv	s8,s5
   11b2c:	67a6                	ld	a5,72(sp)
   11b2e:	6762                	ld	a4,24(sp)
   11b30:	0c41                	addi	s8,s8,16
   11b32:	fefc3823          	sd	a5,-16(s8)
   11b36:	67e2                	ld	a5,24(sp)
   11b38:	fefc3c23          	sd	a5,-8(s8)
   11b3c:	67d2                	ld	a5,272(sp)
   11b3e:	97ba                	add	a5,a5,a4
   11b40:	ea3e                	sd	a5,272(sp)
   11b42:	10812783          	lw	a5,264(sp)
   11b46:	0017871b          	addiw	a4,a5,1
   11b4a:	10e12423          	sw	a4,264(sp)
   11b4e:	479d                	li	a5,7
   11b50:	00e7da63          	ble	a4,a5,11b64 <_vfprintf_r+0x1432>
   11b54:	0210                	addi	a2,sp,256
   11b56:	85ca                	mv	a1,s2
   11b58:	854e                	mv	a0,s3
   11b5a:	252050ef          	jal	ra,16dac <__sprint_r>
   11b5e:	12051863          	bnez	a0,11c8e <_vfprintf_r+0x155c>
   11b62:	8c56                	mv	s8,s5
   11b64:	754e                	ld	a0,240(sp)
   11b66:	75ee                	ld	a1,248(sp)
   11b68:	4601                	li	a2,0
   11b6a:	4681                	li	a3,0
   11b6c:	fffa0b1b          	addiw	s6,s4,-1
   11b70:	4e5060ef          	jal	ra,18854 <__eqtf2>
   11b74:	c12d                	beqz	a0,11bd6 <_vfprintf_r+0x14a4>
   11b76:	10812783          	lw	a5,264(sp)
   11b7a:	6752                	ld	a4,272(sp)
   11b7c:	016c3423          	sd	s6,8(s8)
   11b80:	0017869b          	addiw	a3,a5,1
   11b84:	0485                	addi	s1,s1,1
   11b86:	9b3a                	add	s6,s6,a4
   11b88:	009c3023          	sd	s1,0(s8)
   11b8c:	ea5a                	sd	s6,272(sp)
   11b8e:	10d12423          	sw	a3,264(sp)
   11b92:	479d                	li	a5,7
   11b94:	0c41                	addi	s8,s8,16
   11b96:	00d7d963          	ble	a3,a5,11ba8 <_vfprintf_r+0x1476>
   11b9a:	0210                	addi	a2,sp,256
   11b9c:	85ca                	mv	a1,s2
   11b9e:	854e                	mv	a0,s3
   11ba0:	20c050ef          	jal	ra,16dac <__sprint_r>
   11ba4:	e56d                	bnez	a0,11c8e <_vfprintf_r+0x155c>
   11ba6:	8c56                	mv	s8,s5
   11ba8:	119c                	addi	a5,sp,224
   11baa:	00fc3023          	sd	a5,0(s8)
   11bae:	67e6                	ld	a5,88(sp)
   11bb0:	6766                	ld	a4,88(sp)
   11bb2:	010c0c93          	addi	s9,s8,16
   11bb6:	00fc3423          	sd	a5,8(s8)
   11bba:	67d2                	ld	a5,272(sp)
   11bbc:	97ba                	add	a5,a5,a4
   11bbe:	ea3e                	sd	a5,272(sp)
   11bc0:	10812783          	lw	a5,264(sp)
   11bc4:	0017871b          	addiw	a4,a5,1
   11bc8:	10e12423          	sw	a4,264(sp)
   11bcc:	479d                	li	a5,7
   11bce:	a6e7d7e3          	ble	a4,a5,1163c <_vfprintf_r+0xf0a>
   11bd2:	878ff06f          	j	10c4a <_vfprintf_r+0x518>
   11bd6:	fd6059e3          	blez	s6,11ba8 <_vfprintf_r+0x1476>
   11bda:	0005a4b7          	lui	s1,0x5a
   11bde:	4d41                	li	s10,16
   11be0:	e2848493          	addi	s1,s1,-472 # 59e28 <zeroes.4550>
   11be4:	4c9d                	li	s9,7
   11be6:	10812703          	lw	a4,264(sp)
   11bea:	009c3023          	sd	s1,0(s8)
   11bee:	67d2                	ld	a5,272(sp)
   11bf0:	0017069b          	addiw	a3,a4,1
   11bf4:	8736                	mv	a4,a3
   11bf6:	010c0613          	addi	a2,s8,16
   11bfa:	016d4b63          	blt	s10,s6,11c10 <_vfprintf_r+0x14de>
   11bfe:	016c3423          	sd	s6,8(s8)
   11c02:	9b3e                	add	s6,s6,a5
   11c04:	ea5a                	sd	s6,272(sp)
   11c06:	10d12423          	sw	a3,264(sp)
   11c0a:	479d                	li	a5,7
   11c0c:	8c32                	mv	s8,a2
   11c0e:	b761                	j	11b96 <_vfprintf_r+0x1464>
   11c10:	07c1                	addi	a5,a5,16
   11c12:	01ac3423          	sd	s10,8(s8)
   11c16:	ea3e                	sd	a5,272(sp)
   11c18:	10e12423          	sw	a4,264(sp)
   11c1c:	00dcd963          	ble	a3,s9,11c2e <_vfprintf_r+0x14fc>
   11c20:	0210                	addi	a2,sp,256
   11c22:	85ca                	mv	a1,s2
   11c24:	854e                	mv	a0,s3
   11c26:	186050ef          	jal	ra,16dac <__sprint_r>
   11c2a:	e135                	bnez	a0,11c8e <_vfprintf_r+0x155c>
   11c2c:	8656                	mv	a2,s5
   11c2e:	3b41                	addiw	s6,s6,-16
   11c30:	8c32                	mv	s8,a2
   11c32:	bf55                	j	11be6 <_vfprintf_r+0x14b4>
   11c34:	00ccb423          	sd	a2,8(s9)
   11c38:	ea3a                	sd	a4,272(sp)
   11c3a:	10d12423          	sw	a3,264(sp)
   11c3e:	479d                	li	a5,7
   11c40:	bf99                	j	11b96 <_vfprintf_r+0x1464>
   11c42:	7782                	ld	a5,32(sp)
   11c44:	7762                	ld	a4,56(sp)
   11c46:	40e7843b          	subw	s0,a5,a4
   11c4a:	9e805ce3          	blez	s0,11642 <_vfprintf_r+0xf10>
   11c4e:	0005a4b7          	lui	s1,0x5a
   11c52:	4b41                	li	s6,16
   11c54:	e1848493          	addi	s1,s1,-488 # 59e18 <blanks.4549>
   11c58:	4c1d                	li	s8,7
   11c5a:	10812703          	lw	a4,264(sp)
   11c5e:	009cb023          	sd	s1,0(s9)
   11c62:	67d2                	ld	a5,272(sp)
   11c64:	0017069b          	addiw	a3,a4,1
   11c68:	8736                	mv	a4,a3
   11c6a:	028b4a63          	blt	s6,s0,11c9e <_vfprintf_r+0x156c>
   11c6e:	008cb423          	sd	s0,8(s9)
   11c72:	943e                	add	s0,s0,a5
   11c74:	ea22                	sd	s0,272(sp)
   11c76:	10d12423          	sw	a3,264(sp)
   11c7a:	479d                	li	a5,7
   11c7c:	9cd7d3e3          	ble	a3,a5,11642 <_vfprintf_r+0xf10>
   11c80:	0210                	addi	a2,sp,256
   11c82:	85ca                	mv	a1,s2
   11c84:	854e                	mv	a0,s3
   11c86:	126050ef          	jal	ra,16dac <__sprint_r>
   11c8a:	9a050ce3          	beqz	a0,11642 <_vfprintf_r+0xf10>
   11c8e:	940b8263          	beqz	s7,10dd2 <_vfprintf_r+0x6a0>
   11c92:	85de                	mv	a1,s7
   11c94:	854e                	mv	a0,s3
   11c96:	73a000ef          	jal	ra,123d0 <_free_r>
   11c9a:	938ff06f          	j	10dd2 <_vfprintf_r+0x6a0>
   11c9e:	07c1                	addi	a5,a5,16
   11ca0:	016cb423          	sd	s6,8(s9)
   11ca4:	ea3e                	sd	a5,272(sp)
   11ca6:	10e12423          	sw	a4,264(sp)
   11caa:	0cc1                	addi	s9,s9,16
   11cac:	00dc5963          	ble	a3,s8,11cbe <_vfprintf_r+0x158c>
   11cb0:	0210                	addi	a2,sp,256
   11cb2:	85ca                	mv	a1,s2
   11cb4:	854e                	mv	a0,s3
   11cb6:	0f6050ef          	jal	ra,16dac <__sprint_r>
   11cba:	f971                	bnez	a0,11c8e <_vfprintf_r+0x155c>
   11cbc:	8cd6                	mv	s9,s5
   11cbe:	3441                	addiw	s0,s0,-16
   11cc0:	bf69                	j	11c5a <_vfprintf_r+0x1528>
   11cc2:	85de                	mv	a1,s7
   11cc4:	854e                	mv	a0,s3
   11cc6:	70a000ef          	jal	ra,123d0 <_free_r>
   11cca:	b255                	j	1166e <_vfprintf_r+0xf3c>
   11ccc:	67d2                	ld	a5,272(sp)
   11cce:	90078263          	beqz	a5,10dd2 <_vfprintf_r+0x6a0>
   11cd2:	0210                	addi	a2,sp,256
   11cd4:	85ca                	mv	a1,s2
   11cd6:	854e                	mv	a0,s3
   11cd8:	0d4050ef          	jal	ra,16dac <__sprint_r>
   11cdc:	8f6ff06f          	j	10dd2 <_vfprintf_r+0x6a0>
   11ce0:	57fd                	li	a5,-1
   11ce2:	ecfd9263          	bne	s11,a5,113a6 <_vfprintf_r+0xc74>
   11ce6:	47a5                	li	a5,9
   11ce8:	f177ed63          	bltu	a5,s7,11402 <_vfprintf_r+0xcd0>
   11cec:	030b8b9b          	addiw	s7,s7,48
   11cf0:	17710da3          	sb	s7,379(sp)
   11cf4:	17b10493          	addi	s1,sp,379
   11cf8:	ef0ff06f          	j	113e8 <_vfprintf_r+0xcb6>

0000000000011cfc <vfprintf>:
   11cfc:	86b2                	mv	a3,a2
   11cfe:	862e                	mv	a2,a1
   11d00:	85aa                	mv	a1,a0
   11d02:	8381b503          	ld	a0,-1992(gp) # 5caf0 <_impure_ptr>
   11d06:	a2dfe06f          	j	10732 <_vfprintf_r>

0000000000011d0a <__sbprintf>:
   11d0a:	0105d783          	lhu	a5,16(a1)
   11d0e:	b3010113          	addi	sp,sp,-1232
   11d12:	4c813023          	sd	s0,1216(sp)
   11d16:	9bf5                	andi	a5,a5,-3
   11d18:	00f11823          	sh	a5,16(sp)
   11d1c:	0ac5a783          	lw	a5,172(a1)
   11d20:	842e                	mv	s0,a1
   11d22:	4a913c23          	sd	s1,1208(sp)
   11d26:	d73e                	sw	a5,172(sp)
   11d28:	0125d783          	lhu	a5,18(a1)
   11d2c:	4b213823          	sd	s2,1200(sp)
   11d30:	4c113423          	sd	ra,1224(sp)
   11d34:	00f11923          	sh	a5,18(sp)
   11d38:	799c                	ld	a5,48(a1)
   11d3a:	892a                	mv	s2,a0
   11d3c:	d402                	sw	zero,40(sp)
   11d3e:	f83e                	sd	a5,48(sp)
   11d40:	61bc                	ld	a5,64(a1)
   11d42:	858a                	mv	a1,sp
   11d44:	e0be                	sd	a5,64(sp)
   11d46:	191c                	addi	a5,sp,176
   11d48:	e03e                	sd	a5,0(sp)
   11d4a:	ec3e                	sd	a5,24(sp)
   11d4c:	40000793          	li	a5,1024
   11d50:	c63e                	sw	a5,12(sp)
   11d52:	d03e                	sw	a5,32(sp)
   11d54:	9dffe0ef          	jal	ra,10732 <_vfprintf_r>
   11d58:	84aa                	mv	s1,a0
   11d5a:	00054863          	bltz	a0,11d6a <__sbprintf+0x60>
   11d5e:	858a                	mv	a1,sp
   11d60:	854a                	mv	a0,s2
   11d62:	384000ef          	jal	ra,120e6 <_fflush_r>
   11d66:	c111                	beqz	a0,11d6a <__sbprintf+0x60>
   11d68:	54fd                	li	s1,-1
   11d6a:	01015783          	lhu	a5,16(sp)
   11d6e:	0407f793          	andi	a5,a5,64
   11d72:	c799                	beqz	a5,11d80 <__sbprintf+0x76>
   11d74:	01045783          	lhu	a5,16(s0)
   11d78:	0407e793          	ori	a5,a5,64
   11d7c:	00f41823          	sh	a5,16(s0)
   11d80:	4c813083          	ld	ra,1224(sp)
   11d84:	4c013403          	ld	s0,1216(sp)
   11d88:	8526                	mv	a0,s1
   11d8a:	4b013903          	ld	s2,1200(sp)
   11d8e:	4b813483          	ld	s1,1208(sp)
   11d92:	4d010113          	addi	sp,sp,1232
   11d96:	8082                	ret

0000000000011d98 <__swsetup_r>:
   11d98:	1101                	addi	sp,sp,-32
   11d9a:	e426                	sd	s1,8(sp)
   11d9c:	84aa                	mv	s1,a0
   11d9e:	8381b503          	ld	a0,-1992(gp) # 5caf0 <_impure_ptr>
   11da2:	e822                	sd	s0,16(sp)
   11da4:	ec06                	sd	ra,24(sp)
   11da6:	842e                	mv	s0,a1
   11da8:	c509                	beqz	a0,11db2 <__swsetup_r+0x1a>
   11daa:	493c                	lw	a5,80(a0)
   11dac:	e399                	bnez	a5,11db2 <__swsetup_r+0x1a>
   11dae:	450000ef          	jal	ra,121fe <__sinit>
   11db2:	01041703          	lh	a4,16(s0)
   11db6:	03071793          	slli	a5,a4,0x30
   11dba:	93c1                	srli	a5,a5,0x30
   11dbc:	0087f693          	andi	a3,a5,8
   11dc0:	eea9                	bnez	a3,11e1a <__swsetup_r+0x82>
   11dc2:	0107f693          	andi	a3,a5,16
   11dc6:	ee89                	bnez	a3,11de0 <__swsetup_r+0x48>
   11dc8:	47a5                	li	a5,9
   11dca:	c09c                	sw	a5,0(s1)
   11dcc:	04076713          	ori	a4,a4,64
   11dd0:	00e41823          	sh	a4,16(s0)
   11dd4:	557d                	li	a0,-1
   11dd6:	60e2                	ld	ra,24(sp)
   11dd8:	6442                	ld	s0,16(sp)
   11dda:	64a2                	ld	s1,8(sp)
   11ddc:	6105                	addi	sp,sp,32
   11dde:	8082                	ret
   11de0:	8b91                	andi	a5,a5,4
   11de2:	c795                	beqz	a5,11e0e <__swsetup_r+0x76>
   11de4:	6c2c                	ld	a1,88(s0)
   11de6:	c991                	beqz	a1,11dfa <__swsetup_r+0x62>
   11de8:	07440793          	addi	a5,s0,116
   11dec:	00f58563          	beq	a1,a5,11df6 <__swsetup_r+0x5e>
   11df0:	8526                	mv	a0,s1
   11df2:	5de000ef          	jal	ra,123d0 <_free_r>
   11df6:	04043c23          	sd	zero,88(s0)
   11dfa:	01045783          	lhu	a5,16(s0)
   11dfe:	00042423          	sw	zero,8(s0)
   11e02:	fdb7f793          	andi	a5,a5,-37
   11e06:	00f41823          	sh	a5,16(s0)
   11e0a:	6c1c                	ld	a5,24(s0)
   11e0c:	e01c                	sd	a5,0(s0)
   11e0e:	01045783          	lhu	a5,16(s0)
   11e12:	0087e793          	ori	a5,a5,8
   11e16:	00f41823          	sh	a5,16(s0)
   11e1a:	6c1c                	ld	a5,24(s0)
   11e1c:	ef89                	bnez	a5,11e36 <__swsetup_r+0x9e>
   11e1e:	01045783          	lhu	a5,16(s0)
   11e22:	20000713          	li	a4,512
   11e26:	2807f793          	andi	a5,a5,640
   11e2a:	00e78663          	beq	a5,a4,11e36 <__swsetup_r+0x9e>
   11e2e:	85a2                	mv	a1,s0
   11e30:	8526                	mv	a0,s1
   11e32:	2dc020ef          	jal	ra,1410e <__smakebuf_r>
   11e36:	01045783          	lhu	a5,16(s0)
   11e3a:	0017f713          	andi	a4,a5,1
   11e3e:	c705                	beqz	a4,11e66 <__swsetup_r+0xce>
   11e40:	501c                	lw	a5,32(s0)
   11e42:	00042623          	sw	zero,12(s0)
   11e46:	40f007bb          	negw	a5,a5
   11e4a:	d41c                	sw	a5,40(s0)
   11e4c:	6c1c                	ld	a5,24(s0)
   11e4e:	4501                	li	a0,0
   11e50:	f3d9                	bnez	a5,11dd6 <__swsetup_r+0x3e>
   11e52:	01041783          	lh	a5,16(s0)
   11e56:	0807f713          	andi	a4,a5,128
   11e5a:	df35                	beqz	a4,11dd6 <__swsetup_r+0x3e>
   11e5c:	0407e793          	ori	a5,a5,64
   11e60:	00f41823          	sh	a5,16(s0)
   11e64:	bf85                	j	11dd4 <__swsetup_r+0x3c>
   11e66:	8b89                	andi	a5,a5,2
   11e68:	4701                	li	a4,0
   11e6a:	e391                	bnez	a5,11e6e <__swsetup_r+0xd6>
   11e6c:	5018                	lw	a4,32(s0)
   11e6e:	c458                	sw	a4,12(s0)
   11e70:	bff1                	j	11e4c <__swsetup_r+0xb4>

0000000000011e72 <__register_exitproc>:
   11e72:	8281b703          	ld	a4,-2008(gp) # 5cae0 <_global_impure_ptr>
   11e76:	832a                	mv	t1,a0
   11e78:	1f873783          	ld	a5,504(a4)
   11e7c:	e789                	bnez	a5,11e86 <__register_exitproc+0x14>
   11e7e:	20070793          	addi	a5,a4,512
   11e82:	1ef73c23          	sd	a5,504(a4)
   11e86:	4798                	lw	a4,8(a5)
   11e88:	487d                	li	a6,31
   11e8a:	557d                	li	a0,-1
   11e8c:	04e84463          	blt	a6,a4,11ed4 <__register_exitproc+0x62>
   11e90:	02030a63          	beqz	t1,11ec4 <__register_exitproc+0x52>
   11e94:	00371813          	slli	a6,a4,0x3
   11e98:	983e                	add	a6,a6,a5
   11e9a:	10c83823          	sd	a2,272(a6)
   11e9e:	3107a883          	lw	a7,784(a5)
   11ea2:	4605                	li	a2,1
   11ea4:	00e6163b          	sllw	a2,a2,a4
   11ea8:	00c8e8b3          	or	a7,a7,a2
   11eac:	3117a823          	sw	a7,784(a5)
   11eb0:	20d83823          	sd	a3,528(a6)
   11eb4:	4689                	li	a3,2
   11eb6:	00d31763          	bne	t1,a3,11ec4 <__register_exitproc+0x52>
   11eba:	3147a683          	lw	a3,788(a5)
   11ebe:	8e55                	or	a2,a2,a3
   11ec0:	30c7aa23          	sw	a2,788(a5)
   11ec4:	0017069b          	addiw	a3,a4,1
   11ec8:	0709                	addi	a4,a4,2
   11eca:	070e                	slli	a4,a4,0x3
   11ecc:	c794                	sw	a3,8(a5)
   11ece:	97ba                	add	a5,a5,a4
   11ed0:	e38c                	sd	a1,0(a5)
   11ed2:	4501                	li	a0,0
   11ed4:	8082                	ret

0000000000011ed6 <__call_exitprocs>:
   11ed6:	715d                	addi	sp,sp,-80
   11ed8:	f44e                	sd	s3,40(sp)
   11eda:	8281b983          	ld	s3,-2008(gp) # 5cae0 <_global_impure_ptr>
   11ede:	f052                	sd	s4,32(sp)
   11ee0:	ec56                	sd	s5,24(sp)
   11ee2:	e85a                	sd	s6,16(sp)
   11ee4:	e486                	sd	ra,72(sp)
   11ee6:	e0a2                	sd	s0,64(sp)
   11ee8:	fc26                	sd	s1,56(sp)
   11eea:	f84a                	sd	s2,48(sp)
   11eec:	e45e                	sd	s7,8(sp)
   11eee:	8aaa                	mv	s5,a0
   11ef0:	8a2e                	mv	s4,a1
   11ef2:	4b05                	li	s6,1
   11ef4:	1f89b483          	ld	s1,504(s3)
   11ef8:	c881                	beqz	s1,11f08 <__call_exitprocs+0x32>
   11efa:	4480                	lw	s0,8(s1)
   11efc:	fff4091b          	addiw	s2,s0,-1
   11f00:	040e                	slli	s0,s0,0x3
   11f02:	9426                	add	s0,s0,s1
   11f04:	00095d63          	bgez	s2,11f1e <__call_exitprocs+0x48>
   11f08:	60a6                	ld	ra,72(sp)
   11f0a:	6406                	ld	s0,64(sp)
   11f0c:	74e2                	ld	s1,56(sp)
   11f0e:	7942                	ld	s2,48(sp)
   11f10:	79a2                	ld	s3,40(sp)
   11f12:	7a02                	ld	s4,32(sp)
   11f14:	6ae2                	ld	s5,24(sp)
   11f16:	6b42                	ld	s6,16(sp)
   11f18:	6ba2                	ld	s7,8(sp)
   11f1a:	6161                	addi	sp,sp,80
   11f1c:	8082                	ret
   11f1e:	000a0963          	beqz	s4,11f30 <__call_exitprocs+0x5a>
   11f22:	20843783          	ld	a5,520(s0)
   11f26:	01478563          	beq	a5,s4,11f30 <__call_exitprocs+0x5a>
   11f2a:	397d                	addiw	s2,s2,-1
   11f2c:	1461                	addi	s0,s0,-8
   11f2e:	bfd9                	j	11f04 <__call_exitprocs+0x2e>
   11f30:	449c                	lw	a5,8(s1)
   11f32:	6414                	ld	a3,8(s0)
   11f34:	37fd                	addiw	a5,a5,-1
   11f36:	03279763          	bne	a5,s2,11f64 <__call_exitprocs+0x8e>
   11f3a:	0124a423          	sw	s2,8(s1)
   11f3e:	d6f5                	beqz	a3,11f2a <__call_exitprocs+0x54>
   11f40:	3104a703          	lw	a4,784(s1)
   11f44:	012b163b          	sllw	a2,s6,s2
   11f48:	0084ab83          	lw	s7,8(s1)
   11f4c:	8f71                	and	a4,a4,a2
   11f4e:	2701                	sext.w	a4,a4
   11f50:	ef09                	bnez	a4,11f6a <__call_exitprocs+0x94>
   11f52:	9682                	jalr	a3
   11f54:	449c                	lw	a5,8(s1)
   11f56:	f9779fe3          	bne	a5,s7,11ef4 <__call_exitprocs+0x1e>
   11f5a:	1f89b783          	ld	a5,504(s3)
   11f5e:	fc9786e3          	beq	a5,s1,11f2a <__call_exitprocs+0x54>
   11f62:	bf49                	j	11ef4 <__call_exitprocs+0x1e>
   11f64:	00043423          	sd	zero,8(s0)
   11f68:	bfd9                	j	11f3e <__call_exitprocs+0x68>
   11f6a:	3144a783          	lw	a5,788(s1)
   11f6e:	10843583          	ld	a1,264(s0)
   11f72:	8ff1                	and	a5,a5,a2
   11f74:	2781                	sext.w	a5,a5
   11f76:	e781                	bnez	a5,11f7e <__call_exitprocs+0xa8>
   11f78:	8556                	mv	a0,s5
   11f7a:	9682                	jalr	a3
   11f7c:	bfe1                	j	11f54 <__call_exitprocs+0x7e>
   11f7e:	852e                	mv	a0,a1
   11f80:	9682                	jalr	a3
   11f82:	bfc9                	j	11f54 <__call_exitprocs+0x7e>

0000000000011f84 <__sflush_r>:
   11f84:	01059783          	lh	a5,16(a1)
   11f88:	7179                	addi	sp,sp,-48
   11f8a:	f022                	sd	s0,32(sp)
   11f8c:	03079713          	slli	a4,a5,0x30
   11f90:	9341                	srli	a4,a4,0x30
   11f92:	ec26                	sd	s1,24(sp)
   11f94:	f406                	sd	ra,40(sp)
   11f96:	e84a                	sd	s2,16(sp)
   11f98:	e44e                	sd	s3,8(sp)
   11f9a:	00877693          	andi	a3,a4,8
   11f9e:	84aa                	mv	s1,a0
   11fa0:	842e                	mv	s0,a1
   11fa2:	10069063          	bnez	a3,120a2 <__sflush_r+0x11e>
   11fa6:	6705                	lui	a4,0x1
   11fa8:	80070713          	addi	a4,a4,-2048 # 800 <main-0xf8b0>
   11fac:	8fd9                	or	a5,a5,a4
   11fae:	4598                	lw	a4,8(a1)
   11fb0:	00f59823          	sh	a5,16(a1)
   11fb4:	00e04d63          	bgtz	a4,11fce <__sflush_r+0x4a>
   11fb8:	59b8                	lw	a4,112(a1)
   11fba:	00e04a63          	bgtz	a4,11fce <__sflush_r+0x4a>
   11fbe:	4501                	li	a0,0
   11fc0:	70a2                	ld	ra,40(sp)
   11fc2:	7402                	ld	s0,32(sp)
   11fc4:	64e2                	ld	s1,24(sp)
   11fc6:	6942                	ld	s2,16(sp)
   11fc8:	69a2                	ld	s3,8(sp)
   11fca:	6145                	addi	sp,sp,48
   11fcc:	8082                	ret
   11fce:	6438                	ld	a4,72(s0)
   11fd0:	d77d                	beqz	a4,11fbe <__sflush_r+0x3a>
   11fd2:	0004a903          	lw	s2,0(s1)
   11fd6:	03379693          	slli	a3,a5,0x33
   11fda:	0004a023          	sw	zero,0(s1)
   11fde:	0806d863          	bgez	a3,1206e <__sflush_r+0xea>
   11fe2:	6850                	ld	a2,144(s0)
   11fe4:	01045783          	lhu	a5,16(s0)
   11fe8:	8b91                	andi	a5,a5,4
   11fea:	c799                	beqz	a5,11ff8 <__sflush_r+0x74>
   11fec:	441c                	lw	a5,8(s0)
   11fee:	8e1d                	sub	a2,a2,a5
   11ff0:	6c3c                	ld	a5,88(s0)
   11ff2:	c399                	beqz	a5,11ff8 <__sflush_r+0x74>
   11ff4:	583c                	lw	a5,112(s0)
   11ff6:	8e1d                	sub	a2,a2,a5
   11ff8:	643c                	ld	a5,72(s0)
   11ffa:	780c                	ld	a1,48(s0)
   11ffc:	4681                	li	a3,0
   11ffe:	8526                	mv	a0,s1
   12000:	9782                	jalr	a5
   12002:	57fd                	li	a5,-1
   12004:	01045683          	lhu	a3,16(s0)
   12008:	00f51d63          	bne	a0,a5,12022 <__sflush_r+0x9e>
   1200c:	409c                	lw	a5,0(s1)
   1200e:	4775                	li	a4,29
   12010:	08f76363          	bltu	a4,a5,12096 <__sflush_r+0x112>
   12014:	20400737          	lui	a4,0x20400
   12018:	0705                	addi	a4,a4,1
   1201a:	00f75733          	srl	a4,a4,a5
   1201e:	8b05                	andi	a4,a4,1
   12020:	cb3d                	beqz	a4,12096 <__sflush_r+0x112>
   12022:	77fd                	lui	a5,0xfffff
   12024:	7ff78793          	addi	a5,a5,2047 # fffffffffffff7ff <__global_pointer$+0xfffffffffffa2547>
   12028:	6c18                	ld	a4,24(s0)
   1202a:	8ff5                	and	a5,a5,a3
   1202c:	0107979b          	slliw	a5,a5,0x10
   12030:	4107d79b          	sraiw	a5,a5,0x10
   12034:	e018                	sd	a4,0(s0)
   12036:	00f41823          	sh	a5,16(s0)
   1203a:	00042423          	sw	zero,8(s0)
   1203e:	03379713          	slli	a4,a5,0x33
   12042:	00075863          	bgez	a4,12052 <__sflush_r+0xce>
   12046:	57fd                	li	a5,-1
   12048:	00f51463          	bne	a0,a5,12050 <__sflush_r+0xcc>
   1204c:	409c                	lw	a5,0(s1)
   1204e:	e391                	bnez	a5,12052 <__sflush_r+0xce>
   12050:	e848                	sd	a0,144(s0)
   12052:	6c2c                	ld	a1,88(s0)
   12054:	0124a023          	sw	s2,0(s1)
   12058:	d1bd                	beqz	a1,11fbe <__sflush_r+0x3a>
   1205a:	07440793          	addi	a5,s0,116
   1205e:	00f58563          	beq	a1,a5,12068 <__sflush_r+0xe4>
   12062:	8526                	mv	a0,s1
   12064:	36c000ef          	jal	ra,123d0 <_free_r>
   12068:	04043c23          	sd	zero,88(s0)
   1206c:	bf89                	j	11fbe <__sflush_r+0x3a>
   1206e:	780c                	ld	a1,48(s0)
   12070:	4601                	li	a2,0
   12072:	4685                	li	a3,1
   12074:	8526                	mv	a0,s1
   12076:	9702                	jalr	a4
   12078:	57fd                	li	a5,-1
   1207a:	862a                	mv	a2,a0
   1207c:	f6f514e3          	bne	a0,a5,11fe4 <__sflush_r+0x60>
   12080:	409c                	lw	a5,0(s1)
   12082:	d3ad                	beqz	a5,11fe4 <__sflush_r+0x60>
   12084:	4775                	li	a4,29
   12086:	00e78563          	beq	a5,a4,12090 <__sflush_r+0x10c>
   1208a:	4759                	li	a4,22
   1208c:	04e79463          	bne	a5,a4,120d4 <__sflush_r+0x150>
   12090:	0124a023          	sw	s2,0(s1)
   12094:	b72d                	j	11fbe <__sflush_r+0x3a>
   12096:	0406e793          	ori	a5,a3,64
   1209a:	00f41823          	sh	a5,16(s0)
   1209e:	557d                	li	a0,-1
   120a0:	b705                	j	11fc0 <__sflush_r+0x3c>
   120a2:	0185b983          	ld	s3,24(a1)
   120a6:	f0098ce3          	beqz	s3,11fbe <__sflush_r+0x3a>
   120aa:	0005b903          	ld	s2,0(a1)
   120ae:	8b0d                	andi	a4,a4,3
   120b0:	0135b023          	sd	s3,0(a1)
   120b4:	4139093b          	subw	s2,s2,s3
   120b8:	4781                	li	a5,0
   120ba:	e311                	bnez	a4,120be <__sflush_r+0x13a>
   120bc:	519c                	lw	a5,32(a1)
   120be:	c45c                	sw	a5,12(s0)
   120c0:	ef205fe3          	blez	s2,11fbe <__sflush_r+0x3a>
   120c4:	603c                	ld	a5,64(s0)
   120c6:	780c                	ld	a1,48(s0)
   120c8:	86ca                	mv	a3,s2
   120ca:	864e                	mv	a2,s3
   120cc:	8526                	mv	a0,s1
   120ce:	9782                	jalr	a5
   120d0:	00a04763          	bgtz	a0,120de <__sflush_r+0x15a>
   120d4:	01045783          	lhu	a5,16(s0)
   120d8:	0407e793          	ori	a5,a5,64
   120dc:	bf7d                	j	1209a <__sflush_r+0x116>
   120de:	99aa                	add	s3,s3,a0
   120e0:	40a9093b          	subw	s2,s2,a0
   120e4:	bff1                	j	120c0 <__sflush_r+0x13c>

00000000000120e6 <_fflush_r>:
   120e6:	1101                	addi	sp,sp,-32
   120e8:	e822                	sd	s0,16(sp)
   120ea:	ec06                	sd	ra,24(sp)
   120ec:	842a                	mv	s0,a0
   120ee:	c519                	beqz	a0,120fc <_fflush_r+0x16>
   120f0:	493c                	lw	a5,80(a0)
   120f2:	e789                	bnez	a5,120fc <_fflush_r+0x16>
   120f4:	e42e                	sd	a1,8(sp)
   120f6:	108000ef          	jal	ra,121fe <__sinit>
   120fa:	65a2                	ld	a1,8(sp)
   120fc:	01059783          	lh	a5,16(a1)
   12100:	c799                	beqz	a5,1210e <_fflush_r+0x28>
   12102:	8522                	mv	a0,s0
   12104:	6442                	ld	s0,16(sp)
   12106:	60e2                	ld	ra,24(sp)
   12108:	6105                	addi	sp,sp,32
   1210a:	e7bff06f          	j	11f84 <__sflush_r>
   1210e:	60e2                	ld	ra,24(sp)
   12110:	6442                	ld	s0,16(sp)
   12112:	4501                	li	a0,0
   12114:	6105                	addi	sp,sp,32
   12116:	8082                	ret

0000000000012118 <fflush>:
   12118:	85aa                	mv	a1,a0
   1211a:	e909                	bnez	a0,1212c <fflush+0x14>
   1211c:	8281b503          	ld	a0,-2008(gp) # 5cae0 <_global_impure_ptr>
   12120:	000125b7          	lui	a1,0x12
   12124:	0e658593          	addi	a1,a1,230 # 120e6 <_fflush_r>
   12128:	7ae0006f          	j	128d6 <_fwalk_reent>
   1212c:	8381b503          	ld	a0,-1992(gp) # 5caf0 <_impure_ptr>
   12130:	fb7ff06f          	j	120e6 <_fflush_r>

0000000000012134 <__fp_lock>:
   12134:	4501                	li	a0,0
   12136:	8082                	ret

0000000000012138 <std>:
   12138:	1141                	addi	sp,sp,-16
   1213a:	e022                	sd	s0,0(sp)
   1213c:	e406                	sd	ra,8(sp)
   1213e:	842a                	mv	s0,a0
   12140:	00b51823          	sh	a1,16(a0)
   12144:	00c51923          	sh	a2,18(a0)
   12148:	00053023          	sd	zero,0(a0)
   1214c:	00053423          	sd	zero,8(a0)
   12150:	0a052623          	sw	zero,172(a0)
   12154:	00053c23          	sd	zero,24(a0)
   12158:	02052023          	sw	zero,32(a0)
   1215c:	02052423          	sw	zero,40(a0)
   12160:	4621                	li	a2,8
   12162:	4581                	li	a1,0
   12164:	0a450513          	addi	a0,a0,164
   12168:	c3efe0ef          	jal	ra,105a6 <memset>
   1216c:	000157b7          	lui	a5,0x15
   12170:	63678793          	addi	a5,a5,1590 # 15636 <__sread>
   12174:	fc1c                	sd	a5,56(s0)
   12176:	000157b7          	lui	a5,0x15
   1217a:	66c78793          	addi	a5,a5,1644 # 1566c <__swrite>
   1217e:	e03c                	sd	a5,64(s0)
   12180:	000157b7          	lui	a5,0x15
   12184:	6be78793          	addi	a5,a5,1726 # 156be <__sseek>
   12188:	e43c                	sd	a5,72(s0)
   1218a:	000157b7          	lui	a5,0x15
   1218e:	6f678793          	addi	a5,a5,1782 # 156f6 <__sclose>
   12192:	f800                	sd	s0,48(s0)
   12194:	e83c                	sd	a5,80(s0)
   12196:	60a2                	ld	ra,8(sp)
   12198:	6402                	ld	s0,0(sp)
   1219a:	0141                	addi	sp,sp,16
   1219c:	8082                	ret

000000000001219e <_cleanup_r>:
   1219e:	000185b7          	lui	a1,0x18
   121a2:	86858593          	addi	a1,a1,-1944 # 17868 <_fclose_r>
   121a6:	7300006f          	j	128d6 <_fwalk_reent>

00000000000121aa <__fp_unlock>:
   121aa:	4501                	li	a0,0
   121ac:	8082                	ret

00000000000121ae <__sfmoreglue>:
   121ae:	1101                	addi	sp,sp,-32
   121b0:	e426                	sd	s1,8(sp)
   121b2:	0b000613          	li	a2,176
   121b6:	fff5849b          	addiw	s1,a1,-1
   121ba:	02c484b3          	mul	s1,s1,a2
   121be:	e04a                	sd	s2,0(sp)
   121c0:	892e                	mv	s2,a1
   121c2:	e822                	sd	s0,16(sp)
   121c4:	ec06                	sd	ra,24(sp)
   121c6:	0c848593          	addi	a1,s1,200
   121ca:	7e7010ef          	jal	ra,141b0 <_malloc_r>
   121ce:	842a                	mv	s0,a0
   121d0:	cd01                	beqz	a0,121e8 <__sfmoreglue+0x3a>
   121d2:	00053023          	sd	zero,0(a0)
   121d6:	01252423          	sw	s2,8(a0)
   121da:	0561                	addi	a0,a0,24
   121dc:	e808                	sd	a0,16(s0)
   121de:	0b048613          	addi	a2,s1,176
   121e2:	4581                	li	a1,0
   121e4:	bc2fe0ef          	jal	ra,105a6 <memset>
   121e8:	8522                	mv	a0,s0
   121ea:	60e2                	ld	ra,24(sp)
   121ec:	6442                	ld	s0,16(sp)
   121ee:	64a2                	ld	s1,8(sp)
   121f0:	6902                	ld	s2,0(sp)
   121f2:	6105                	addi	sp,sp,32
   121f4:	8082                	ret

00000000000121f6 <_cleanup>:
   121f6:	8281b503          	ld	a0,-2008(gp) # 5cae0 <_global_impure_ptr>
   121fa:	fa5ff06f          	j	1219e <_cleanup_r>

00000000000121fe <__sinit>:
   121fe:	493c                	lw	a5,80(a0)
   12200:	eba1                	bnez	a5,12250 <__sinit+0x52>
   12202:	1141                	addi	sp,sp,-16
   12204:	000127b7          	lui	a5,0x12
   12208:	e406                	sd	ra,8(sp)
   1220a:	e022                	sd	s0,0(sp)
   1220c:	19e78793          	addi	a5,a5,414 # 1219e <_cleanup_r>
   12210:	ed3c                	sd	a5,88(a0)
   12212:	478d                	li	a5,3
   12214:	52f52423          	sw	a5,1320(a0)
   12218:	53850793          	addi	a5,a0,1336
   1221c:	842a                	mv	s0,a0
   1221e:	52f53823          	sd	a5,1328(a0)
   12222:	52053023          	sd	zero,1312(a0)
   12226:	6508                	ld	a0,8(a0)
   12228:	4601                	li	a2,0
   1222a:	4591                	li	a1,4
   1222c:	f0dff0ef          	jal	ra,12138 <std>
   12230:	6808                	ld	a0,16(s0)
   12232:	4605                	li	a2,1
   12234:	45a5                	li	a1,9
   12236:	f03ff0ef          	jal	ra,12138 <std>
   1223a:	6c08                	ld	a0,24(s0)
   1223c:	4609                	li	a2,2
   1223e:	45c9                	li	a1,18
   12240:	ef9ff0ef          	jal	ra,12138 <std>
   12244:	4785                	li	a5,1
   12246:	c83c                	sw	a5,80(s0)
   12248:	60a2                	ld	ra,8(sp)
   1224a:	6402                	ld	s0,0(sp)
   1224c:	0141                	addi	sp,sp,16
   1224e:	8082                	ret
   12250:	8082                	ret

0000000000012252 <__sfp>:
   12252:	1101                	addi	sp,sp,-32
   12254:	e426                	sd	s1,8(sp)
   12256:	8281b483          	ld	s1,-2008(gp) # 5cae0 <_global_impure_ptr>
   1225a:	e04a                	sd	s2,0(sp)
   1225c:	ec06                	sd	ra,24(sp)
   1225e:	48bc                	lw	a5,80(s1)
   12260:	e822                	sd	s0,16(sp)
   12262:	892a                	mv	s2,a0
   12264:	e781                	bnez	a5,1226c <__sfp+0x1a>
   12266:	8526                	mv	a0,s1
   12268:	f97ff0ef          	jal	ra,121fe <__sinit>
   1226c:	52048493          	addi	s1,s1,1312
   12270:	6880                	ld	s0,16(s1)
   12272:	449c                	lw	a5,8(s1)
   12274:	37fd                	addiw	a5,a5,-1
   12276:	0007d663          	bgez	a5,12282 <__sfp+0x30>
   1227a:	609c                	ld	a5,0(s1)
   1227c:	cfa9                	beqz	a5,122d6 <__sfp+0x84>
   1227e:	6084                	ld	s1,0(s1)
   12280:	bfc5                	j	12270 <__sfp+0x1e>
   12282:	01041703          	lh	a4,16(s0)
   12286:	e729                	bnez	a4,122d0 <__sfp+0x7e>
   12288:	77c1                	lui	a5,0xffff0
   1228a:	2785                	addiw	a5,a5,1
   1228c:	0a042623          	sw	zero,172(s0)
   12290:	00043023          	sd	zero,0(s0)
   12294:	00043423          	sd	zero,8(s0)
   12298:	c81c                	sw	a5,16(s0)
   1229a:	00043c23          	sd	zero,24(s0)
   1229e:	02042023          	sw	zero,32(s0)
   122a2:	02042423          	sw	zero,40(s0)
   122a6:	4621                	li	a2,8
   122a8:	4581                	li	a1,0
   122aa:	0a440513          	addi	a0,s0,164
   122ae:	af8fe0ef          	jal	ra,105a6 <memset>
   122b2:	04043c23          	sd	zero,88(s0)
   122b6:	06042023          	sw	zero,96(s0)
   122ba:	06043c23          	sd	zero,120(s0)
   122be:	08042023          	sw	zero,128(s0)
   122c2:	8522                	mv	a0,s0
   122c4:	60e2                	ld	ra,24(sp)
   122c6:	6442                	ld	s0,16(sp)
   122c8:	64a2                	ld	s1,8(sp)
   122ca:	6902                	ld	s2,0(sp)
   122cc:	6105                	addi	sp,sp,32
   122ce:	8082                	ret
   122d0:	0b040413          	addi	s0,s0,176
   122d4:	b745                	j	12274 <__sfp+0x22>
   122d6:	4591                	li	a1,4
   122d8:	854a                	mv	a0,s2
   122da:	ed5ff0ef          	jal	ra,121ae <__sfmoreglue>
   122de:	e088                	sd	a0,0(s1)
   122e0:	fd59                	bnez	a0,1227e <__sfp+0x2c>
   122e2:	47b1                	li	a5,12
   122e4:	00f92023          	sw	a5,0(s2)
   122e8:	4401                	li	s0,0
   122ea:	bfe1                	j	122c2 <__sfp+0x70>

00000000000122ec <__sfp_lock_acquire>:
   122ec:	8082                	ret

00000000000122ee <__sfp_lock_release>:
   122ee:	8082                	ret

00000000000122f0 <__sinit_lock_acquire>:
   122f0:	8082                	ret

00000000000122f2 <__sinit_lock_release>:
   122f2:	8082                	ret

00000000000122f4 <__fp_lock_all>:
   122f4:	8381b503          	ld	a0,-1992(gp) # 5caf0 <_impure_ptr>
   122f8:	000125b7          	lui	a1,0x12
   122fc:	13458593          	addi	a1,a1,308 # 12134 <__fp_lock>
   12300:	5720006f          	j	12872 <_fwalk>

0000000000012304 <__fp_unlock_all>:
   12304:	8381b503          	ld	a0,-1992(gp) # 5caf0 <_impure_ptr>
   12308:	000125b7          	lui	a1,0x12
   1230c:	1aa58593          	addi	a1,a1,426 # 121aa <__fp_unlock>
   12310:	5620006f          	j	12872 <_fwalk>

0000000000012314 <_malloc_trim_r>:
   12314:	7179                	addi	sp,sp,-48
   12316:	e84a                	sd	s2,16(sp)
   12318:	0005c937          	lui	s2,0x5c
   1231c:	f022                	sd	s0,32(sp)
   1231e:	ec26                	sd	s1,24(sp)
   12320:	e44e                	sd	s3,8(sp)
   12322:	842e                	mv	s0,a1
   12324:	f406                	sd	ra,40(sp)
   12326:	89aa                	mv	s3,a0
   12328:	2a890913          	addi	s2,s2,680 # 5c2a8 <__malloc_av_>
   1232c:	41e020ef          	jal	ra,1474a <__malloc_lock>
   12330:	01093783          	ld	a5,16(s2)
   12334:	6705                	lui	a4,0x1
   12336:	6784                	ld	s1,8(a5)
   12338:	fdf70793          	addi	a5,a4,-33 # fdf <main-0xf0d1>
   1233c:	40878433          	sub	s0,a5,s0
   12340:	98f1                	andi	s1,s1,-4
   12342:	9426                	add	s0,s0,s1
   12344:	8031                	srli	s0,s0,0xc
   12346:	147d                	addi	s0,s0,-1
   12348:	0432                	slli	s0,s0,0xc
   1234a:	00e45d63          	ble	a4,s0,12364 <_malloc_trim_r+0x50>
   1234e:	854e                	mv	a0,s3
   12350:	3fc020ef          	jal	ra,1474c <__malloc_unlock>
   12354:	4501                	li	a0,0
   12356:	70a2                	ld	ra,40(sp)
   12358:	7402                	ld	s0,32(sp)
   1235a:	64e2                	ld	s1,24(sp)
   1235c:	6942                	ld	s2,16(sp)
   1235e:	69a2                	ld	s3,8(sp)
   12360:	6145                	addi	sp,sp,48
   12362:	8082                	ret
   12364:	4581                	li	a1,0
   12366:	854e                	mv	a0,s3
   12368:	1a8030ef          	jal	ra,15510 <_sbrk_r>
   1236c:	01093783          	ld	a5,16(s2)
   12370:	97a6                	add	a5,a5,s1
   12372:	fcf51ee3          	bne	a0,a5,1234e <_malloc_trim_r+0x3a>
   12376:	408005b3          	neg	a1,s0
   1237a:	854e                	mv	a0,s3
   1237c:	194030ef          	jal	ra,15510 <_sbrk_r>
   12380:	57fd                	li	a5,-1
   12382:	02f51663          	bne	a0,a5,123ae <_malloc_trim_r+0x9a>
   12386:	4581                	li	a1,0
   12388:	854e                	mv	a0,s3
   1238a:	186030ef          	jal	ra,15510 <_sbrk_r>
   1238e:	01093703          	ld	a4,16(s2)
   12392:	46fd                	li	a3,31
   12394:	40e507b3          	sub	a5,a0,a4
   12398:	faf6dbe3          	ble	a5,a3,1234e <_malloc_trim_r+0x3a>
   1239c:	8401b683          	ld	a3,-1984(gp) # 5caf8 <__malloc_sbrk_base>
   123a0:	0017e793          	ori	a5,a5,1
   123a4:	e71c                	sd	a5,8(a4)
   123a6:	8d15                	sub	a0,a0,a3
   123a8:	8aa1a823          	sw	a0,-1872(gp) # 5cb68 <__malloc_current_mallinfo>
   123ac:	b74d                	j	1234e <_malloc_trim_r+0x3a>
   123ae:	01093783          	ld	a5,16(s2)
   123b2:	8c81                	sub	s1,s1,s0
   123b4:	0014e493          	ori	s1,s1,1
   123b8:	e784                	sd	s1,8(a5)
   123ba:	8b01a783          	lw	a5,-1872(gp) # 5cb68 <__malloc_current_mallinfo>
   123be:	854e                	mv	a0,s3
   123c0:	4087843b          	subw	s0,a5,s0
   123c4:	8a81a823          	sw	s0,-1872(gp) # 5cb68 <__malloc_current_mallinfo>
   123c8:	384020ef          	jal	ra,1474c <__malloc_unlock>
   123cc:	4505                	li	a0,1
   123ce:	b761                	j	12356 <_malloc_trim_r+0x42>

00000000000123d0 <_free_r>:
   123d0:	1a058b63          	beqz	a1,12586 <_free_r+0x1b6>
   123d4:	1101                	addi	sp,sp,-32
   123d6:	e822                	sd	s0,16(sp)
   123d8:	e426                	sd	s1,8(sp)
   123da:	842a                	mv	s0,a0
   123dc:	84ae                	mv	s1,a1
   123de:	ec06                	sd	ra,24(sp)
   123e0:	36a020ef          	jal	ra,1474a <__malloc_lock>
   123e4:	ff84b503          	ld	a0,-8(s1)
   123e8:	0005c637          	lui	a2,0x5c
   123ec:	ff048693          	addi	a3,s1,-16
   123f0:	ffe57793          	andi	a5,a0,-2
   123f4:	2a860813          	addi	a6,a2,680 # 5c2a8 <__malloc_av_>
   123f8:	00f685b3          	add	a1,a3,a5
   123fc:	6598                	ld	a4,8(a1)
   123fe:	01083803          	ld	a6,16(a6)
   12402:	2a860613          	addi	a2,a2,680
   12406:	9b71                	andi	a4,a4,-4
   12408:	8905                	andi	a0,a0,1
   1240a:	04b81063          	bne	a6,a1,1244a <_free_r+0x7a>
   1240e:	97ba                	add	a5,a5,a4
   12410:	e909                	bnez	a0,12422 <_free_r+0x52>
   12412:	ff04b703          	ld	a4,-16(s1)
   12416:	8e99                	sub	a3,a3,a4
   12418:	6a8c                	ld	a1,16(a3)
   1241a:	97ba                	add	a5,a5,a4
   1241c:	6e98                	ld	a4,24(a3)
   1241e:	ed98                	sd	a4,24(a1)
   12420:	eb0c                	sd	a1,16(a4)
   12422:	0017e713          	ori	a4,a5,1
   12426:	e698                	sd	a4,8(a3)
   12428:	8481b703          	ld	a4,-1976(gp) # 5cb00 <__malloc_trim_threshold>
   1242c:	ea14                	sd	a3,16(a2)
   1242e:	00e7e763          	bltu	a5,a4,1243c <_free_r+0x6c>
   12432:	8681b583          	ld	a1,-1944(gp) # 5cb20 <__malloc_top_pad>
   12436:	8522                	mv	a0,s0
   12438:	eddff0ef          	jal	ra,12314 <_malloc_trim_r>
   1243c:	8522                	mv	a0,s0
   1243e:	6442                	ld	s0,16(sp)
   12440:	60e2                	ld	ra,24(sp)
   12442:	64a2                	ld	s1,8(sp)
   12444:	6105                	addi	sp,sp,32
   12446:	3060206f          	j	1474c <__malloc_unlock>
   1244a:	e598                	sd	a4,8(a1)
   1244c:	4801                	li	a6,0
   1244e:	e115                	bnez	a0,12472 <_free_r+0xa2>
   12450:	ff04b503          	ld	a0,-16(s1)
   12454:	0005c8b7          	lui	a7,0x5c
   12458:	2b888893          	addi	a7,a7,696 # 5c2b8 <__malloc_av_+0x10>
   1245c:	8e89                	sub	a3,a3,a0
   1245e:	97aa                	add	a5,a5,a0
   12460:	6a88                	ld	a0,16(a3)
   12462:	07150f63          	beq	a0,a7,124e0 <_free_r+0x110>
   12466:	0186b883          	ld	a7,24(a3)
   1246a:	01153c23          	sd	a7,24(a0)
   1246e:	00a8b823          	sd	a0,16(a7)
   12472:	00e58533          	add	a0,a1,a4
   12476:	6508                	ld	a0,8(a0)
   12478:	8905                	andi	a0,a0,1
   1247a:	e105                	bnez	a0,1249a <_free_r+0xca>
   1247c:	97ba                	add	a5,a5,a4
   1247e:	6998                	ld	a4,16(a1)
   12480:	06081263          	bnez	a6,124e4 <_free_r+0x114>
   12484:	0005c537          	lui	a0,0x5c
   12488:	2b850513          	addi	a0,a0,696 # 5c2b8 <__malloc_av_+0x10>
   1248c:	04a71c63          	bne	a4,a0,124e4 <_free_r+0x114>
   12490:	f614                	sd	a3,40(a2)
   12492:	f214                	sd	a3,32(a2)
   12494:	ee98                	sd	a4,24(a3)
   12496:	ea98                	sd	a4,16(a3)
   12498:	4805                	li	a6,1
   1249a:	0017e713          	ori	a4,a5,1
   1249e:	e698                	sd	a4,8(a3)
   124a0:	00f68733          	add	a4,a3,a5
   124a4:	e31c                	sd	a5,0(a4)
   124a6:	f8081be3          	bnez	a6,1243c <_free_r+0x6c>
   124aa:	1ff00713          	li	a4,511
   124ae:	02f76f63          	bltu	a4,a5,124ec <_free_r+0x11c>
   124b2:	838d                	srli	a5,a5,0x3
   124b4:	2781                	sext.w	a5,a5
   124b6:	4027d59b          	sraiw	a1,a5,0x2
   124ba:	4705                	li	a4,1
   124bc:	00b71733          	sll	a4,a4,a1
   124c0:	2785                	addiw	a5,a5,1
   124c2:	660c                	ld	a1,8(a2)
   124c4:	0017979b          	slliw	a5,a5,0x1
   124c8:	078e                	slli	a5,a5,0x3
   124ca:	97b2                	add	a5,a5,a2
   124cc:	8f4d                	or	a4,a4,a1
   124ce:	e618                	sd	a4,8(a2)
   124d0:	6398                	ld	a4,0(a5)
   124d2:	ff078613          	addi	a2,a5,-16 # fffffffffffefff0 <__global_pointer$+0xfffffffffff92d38>
   124d6:	ee90                	sd	a2,24(a3)
   124d8:	ea98                	sd	a4,16(a3)
   124da:	e394                	sd	a3,0(a5)
   124dc:	ef14                	sd	a3,24(a4)
   124de:	bfb9                	j	1243c <_free_r+0x6c>
   124e0:	4805                	li	a6,1
   124e2:	bf41                	j	12472 <_free_r+0xa2>
   124e4:	6d8c                	ld	a1,24(a1)
   124e6:	ef0c                	sd	a1,24(a4)
   124e8:	e998                	sd	a4,16(a1)
   124ea:	bf45                	j	1249a <_free_r+0xca>
   124ec:	0097d593          	srli	a1,a5,0x9
   124f0:	4711                	li	a4,4
   124f2:	02b76e63          	bltu	a4,a1,1252e <_free_r+0x15e>
   124f6:	0067d713          	srli	a4,a5,0x6
   124fa:	0387071b          	addiw	a4,a4,56
   124fe:	0017059b          	addiw	a1,a4,1
   12502:	0015959b          	slliw	a1,a1,0x1
   12506:	058e                	slli	a1,a1,0x3
   12508:	95b2                	add	a1,a1,a2
   1250a:	ff058513          	addi	a0,a1,-16
   1250e:	618c                	ld	a1,0(a1)
   12510:	06b51563          	bne	a0,a1,1257a <_free_r+0x1aa>
   12514:	4785                	li	a5,1
   12516:	4027571b          	sraiw	a4,a4,0x2
   1251a:	00e79733          	sll	a4,a5,a4
   1251e:	661c                	ld	a5,8(a2)
   12520:	8f5d                	or	a4,a4,a5
   12522:	e618                	sd	a4,8(a2)
   12524:	ee88                	sd	a0,24(a3)
   12526:	ea8c                	sd	a1,16(a3)
   12528:	e914                	sd	a3,16(a0)
   1252a:	ed94                	sd	a3,24(a1)
   1252c:	bf01                	j	1243c <_free_r+0x6c>
   1252e:	4751                	li	a4,20
   12530:	00b76563          	bltu	a4,a1,1253a <_free_r+0x16a>
   12534:	05b5871b          	addiw	a4,a1,91
   12538:	b7d9                	j	124fe <_free_r+0x12e>
   1253a:	05400713          	li	a4,84
   1253e:	00b76763          	bltu	a4,a1,1254c <_free_r+0x17c>
   12542:	00c7d713          	srli	a4,a5,0xc
   12546:	06e7071b          	addiw	a4,a4,110
   1254a:	bf55                	j	124fe <_free_r+0x12e>
   1254c:	15400713          	li	a4,340
   12550:	00b76763          	bltu	a4,a1,1255e <_free_r+0x18e>
   12554:	00f7d713          	srli	a4,a5,0xf
   12558:	0777071b          	addiw	a4,a4,119
   1255c:	b74d                	j	124fe <_free_r+0x12e>
   1255e:	55400513          	li	a0,1364
   12562:	07e00713          	li	a4,126
   12566:	f8b56ce3          	bltu	a0,a1,124fe <_free_r+0x12e>
   1256a:	0127d713          	srli	a4,a5,0x12
   1256e:	07c7071b          	addiw	a4,a4,124
   12572:	b771                	j	124fe <_free_r+0x12e>
   12574:	698c                	ld	a1,16(a1)
   12576:	00b50663          	beq	a0,a1,12582 <_free_r+0x1b2>
   1257a:	6598                	ld	a4,8(a1)
   1257c:	9b71                	andi	a4,a4,-4
   1257e:	fee7ebe3          	bltu	a5,a4,12574 <_free_r+0x1a4>
   12582:	6d88                	ld	a0,24(a1)
   12584:	b745                	j	12524 <_free_r+0x154>
   12586:	8082                	ret

0000000000012588 <__sfvwrite_r>:
   12588:	6a1c                	ld	a5,16(a2)
   1258a:	e781                	bnez	a5,12592 <__sfvwrite_r+0xa>
   1258c:	4781                	li	a5,0
   1258e:	853e                	mv	a0,a5
   12590:	8082                	ret
   12592:	0105d783          	lhu	a5,16(a1)
   12596:	7119                	addi	sp,sp,-128
   12598:	f8a2                	sd	s0,112(sp)
   1259a:	f0ca                	sd	s2,96(sp)
   1259c:	e8d2                	sd	s4,80(sp)
   1259e:	fc86                	sd	ra,120(sp)
   125a0:	f4a6                	sd	s1,104(sp)
   125a2:	ecce                	sd	s3,88(sp)
   125a4:	e4d6                	sd	s5,72(sp)
   125a6:	e0da                	sd	s6,64(sp)
   125a8:	fc5e                	sd	s7,56(sp)
   125aa:	f862                	sd	s8,48(sp)
   125ac:	f466                	sd	s9,40(sp)
   125ae:	f06a                	sd	s10,32(sp)
   125b0:	ec6e                	sd	s11,24(sp)
   125b2:	8ba1                	andi	a5,a5,8
   125b4:	8a32                	mv	s4,a2
   125b6:	842e                	mv	s0,a1
   125b8:	892a                	mv	s2,a0
   125ba:	cfd1                	beqz	a5,12656 <__sfvwrite_r+0xce>
   125bc:	6d9c                	ld	a5,24(a1)
   125be:	cfc1                	beqz	a5,12656 <__sfvwrite_r+0xce>
   125c0:	01045783          	lhu	a5,16(s0)
   125c4:	000a3983          	ld	s3,0(s4)
   125c8:	0027f713          	andi	a4,a5,2
   125cc:	0e071863          	bnez	a4,126bc <__sfvwrite_r+0x134>
   125d0:	8b85                	andi	a5,a5,1
   125d2:	4a81                	li	s5,0
   125d4:	16078463          	beqz	a5,1273c <__sfvwrite_r+0x1b4>
   125d8:	4501                	li	a0,0
   125da:	4b81                	li	s7,0
   125dc:	4b01                	li	s6,0
   125de:	240b0863          	beqz	s6,1282e <__sfvwrite_r+0x2a6>
   125e2:	e919                	bnez	a0,125f8 <__sfvwrite_r+0x70>
   125e4:	865a                	mv	a2,s6
   125e6:	45a9                	li	a1,10
   125e8:	855e                	mv	a0,s7
   125ea:	0fc020ef          	jal	ra,146e6 <memchr>
   125ee:	24050763          	beqz	a0,1283c <__sfvwrite_r+0x2b4>
   125f2:	0505                	addi	a0,a0,1
   125f4:	41750abb          	subw	s5,a0,s7
   125f8:	8c56                	mv	s8,s5
   125fa:	015b7363          	bleu	s5,s6,12600 <__sfvwrite_r+0x78>
   125fe:	8c5a                	mv	s8,s6
   12600:	6008                	ld	a0,0(s0)
   12602:	6c1c                	ld	a5,24(s0)
   12604:	5014                	lw	a3,32(s0)
   12606:	22a7fe63          	bleu	a0,a5,12842 <__sfvwrite_r+0x2ba>
   1260a:	4444                	lw	s1,12(s0)
   1260c:	9cb5                	addw	s1,s1,a3
   1260e:	2384da63          	ble	s8,s1,12842 <__sfvwrite_r+0x2ba>
   12612:	85de                	mv	a1,s7
   12614:	8626                	mv	a2,s1
   12616:	0ea020ef          	jal	ra,14700 <memmove>
   1261a:	601c                	ld	a5,0(s0)
   1261c:	85a2                	mv	a1,s0
   1261e:	854a                	mv	a0,s2
   12620:	97a6                	add	a5,a5,s1
   12622:	e01c                	sd	a5,0(s0)
   12624:	ac3ff0ef          	jal	ra,120e6 <_fflush_r>
   12628:	10051263          	bnez	a0,1272c <__sfvwrite_r+0x1a4>
   1262c:	409a8abb          	subw	s5,s5,s1
   12630:	4505                	li	a0,1
   12632:	000a9763          	bnez	s5,12640 <__sfvwrite_r+0xb8>
   12636:	85a2                	mv	a1,s0
   12638:	854a                	mv	a0,s2
   1263a:	aadff0ef          	jal	ra,120e6 <_fflush_r>
   1263e:	e57d                	bnez	a0,1272c <__sfvwrite_r+0x1a4>
   12640:	010a3783          	ld	a5,16(s4)
   12644:	9ba6                	add	s7,s7,s1
   12646:	409b0b33          	sub	s6,s6,s1
   1264a:	409784b3          	sub	s1,a5,s1
   1264e:	009a3823          	sd	s1,16(s4)
   12652:	f4d1                	bnez	s1,125de <__sfvwrite_r+0x56>
   12654:	a099                	j	1269a <__sfvwrite_r+0x112>
   12656:	85a2                	mv	a1,s0
   12658:	854a                	mv	a0,s2
   1265a:	f3eff0ef          	jal	ra,11d98 <__swsetup_r>
   1265e:	57fd                	li	a5,-1
   12660:	d125                	beqz	a0,125c0 <__sfvwrite_r+0x38>
   12662:	a82d                	j	1269c <__sfvwrite_r+0x114>
   12664:	0009ba83          	ld	s5,0(s3)
   12668:	0089b483          	ld	s1,8(s3)
   1266c:	09c1                	addi	s3,s3,16
   1266e:	d8fd                	beqz	s1,12664 <__sfvwrite_r+0xdc>
   12670:	86a6                	mv	a3,s1
   12672:	009b7363          	bleu	s1,s6,12678 <__sfvwrite_r+0xf0>
   12676:	86da                	mv	a3,s6
   12678:	603c                	ld	a5,64(s0)
   1267a:	780c                	ld	a1,48(s0)
   1267c:	2681                	sext.w	a3,a3
   1267e:	8656                	mv	a2,s5
   12680:	854a                	mv	a0,s2
   12682:	9782                	jalr	a5
   12684:	0aa05463          	blez	a0,1272c <__sfvwrite_r+0x1a4>
   12688:	010a3783          	ld	a5,16(s4)
   1268c:	9aaa                	add	s5,s5,a0
   1268e:	8c89                	sub	s1,s1,a0
   12690:	40a78533          	sub	a0,a5,a0
   12694:	00aa3823          	sd	a0,16(s4)
   12698:	f979                	bnez	a0,1266e <__sfvwrite_r+0xe6>
   1269a:	4781                	li	a5,0
   1269c:	70e6                	ld	ra,120(sp)
   1269e:	7446                	ld	s0,112(sp)
   126a0:	74a6                	ld	s1,104(sp)
   126a2:	7906                	ld	s2,96(sp)
   126a4:	69e6                	ld	s3,88(sp)
   126a6:	6a46                	ld	s4,80(sp)
   126a8:	6aa6                	ld	s5,72(sp)
   126aa:	6b06                	ld	s6,64(sp)
   126ac:	7be2                	ld	s7,56(sp)
   126ae:	7c42                	ld	s8,48(sp)
   126b0:	7ca2                	ld	s9,40(sp)
   126b2:	7d02                	ld	s10,32(sp)
   126b4:	6de2                	ld	s11,24(sp)
   126b6:	853e                	mv	a0,a5
   126b8:	6109                	addi	sp,sp,128
   126ba:	8082                	ret
   126bc:	80000b37          	lui	s6,0x80000
   126c0:	4a81                	li	s5,0
   126c2:	4481                	li	s1,0
   126c4:	c00b4b13          	xori	s6,s6,-1024
   126c8:	b75d                	j	1266e <__sfvwrite_r+0xe6>
   126ca:	0009ba83          	ld	s5,0(s3)
   126ce:	0089bd03          	ld	s10,8(s3)
   126d2:	09c1                	addi	s3,s3,16
   126d4:	4444                	lw	s1,12(s0)
   126d6:	87a6                	mv	a5,s1
   126d8:	fe0d09e3          	beqz	s10,126ca <__sfvwrite_r+0x142>
   126dc:	01045703          	lhu	a4,16(s0)
   126e0:	6008                	ld	a0,0(s0)
   126e2:	20077693          	andi	a3,a4,512
   126e6:	0e068863          	beqz	a3,127d6 <__sfvwrite_r+0x24e>
   126ea:	089d6963          	bltu	s10,s1,1277c <__sfvwrite_r+0x1f4>
   126ee:	48077693          	andi	a3,a4,1152
   126f2:	c6c9                	beqz	a3,1277c <__sfvwrite_r+0x1f4>
   126f4:	5004                	lw	s1,32(s0)
   126f6:	6c0c                	ld	a1,24(s0)
   126f8:	029c04bb          	mulw	s1,s8,s1
   126fc:	8d0d                	sub	a0,a0,a1
   126fe:	00050d9b          	sext.w	s11,a0
   12702:	001d8793          	addi	a5,s11,1
   12706:	97ea                	add	a5,a5,s10
   12708:	0394c4bb          	divw	s1,s1,s9
   1270c:	00f4f563          	bleu	a5,s1,12716 <__sfvwrite_r+0x18e>
   12710:	2505                	addiw	a0,a0,1
   12712:	01a504bb          	addw	s1,a0,s10
   12716:	40077713          	andi	a4,a4,1024
   1271a:	cf49                	beqz	a4,127b4 <__sfvwrite_r+0x22c>
   1271c:	85a6                	mv	a1,s1
   1271e:	854a                	mv	a0,s2
   12720:	291010ef          	jal	ra,141b0 <_malloc_r>
   12724:	e515                	bnez	a0,12750 <__sfvwrite_r+0x1c8>
   12726:	47b1                	li	a5,12
   12728:	00f92023          	sw	a5,0(s2)
   1272c:	01045783          	lhu	a5,16(s0)
   12730:	0407e793          	ori	a5,a5,64
   12734:	00f41823          	sh	a5,16(s0)
   12738:	57fd                	li	a5,-1
   1273a:	b78d                	j	1269c <__sfvwrite_r+0x114>
   1273c:	80000b37          	lui	s6,0x80000
   12740:	ffeb4b93          	xori	s7,s6,-2
   12744:	4d01                	li	s10,0
   12746:	fffb4b13          	not	s6,s6
   1274a:	4c0d                	li	s8,3
   1274c:	4c89                	li	s9,2
   1274e:	b759                	j	126d4 <__sfvwrite_r+0x14c>
   12750:	6c0c                	ld	a1,24(s0)
   12752:	866e                	mv	a2,s11
   12754:	e42a                	sd	a0,8(sp)
   12756:	d9bfd0ef          	jal	ra,104f0 <memcpy>
   1275a:	01045703          	lhu	a4,16(s0)
   1275e:	67a2                	ld	a5,8(sp)
   12760:	b7f77713          	andi	a4,a4,-1153
   12764:	08076713          	ori	a4,a4,128
   12768:	00e41823          	sh	a4,16(s0)
   1276c:	ec1c                	sd	a5,24(s0)
   1276e:	d004                	sw	s1,32(s0)
   12770:	97ee                	add	a5,a5,s11
   12772:	41b484bb          	subw	s1,s1,s11
   12776:	e01c                	sd	a5,0(s0)
   12778:	c444                	sw	s1,12(s0)
   1277a:	87ea                	mv	a5,s10
   1277c:	84ea                	mv	s1,s10
   1277e:	00fd7363          	bleu	a5,s10,12784 <__sfvwrite_r+0x1fc>
   12782:	87ea                	mv	a5,s10
   12784:	6008                	ld	a0,0(s0)
   12786:	863e                	mv	a2,a5
   12788:	85d6                	mv	a1,s5
   1278a:	e43e                	sd	a5,8(sp)
   1278c:	775010ef          	jal	ra,14700 <memmove>
   12790:	4458                	lw	a4,12(s0)
   12792:	67a2                	ld	a5,8(sp)
   12794:	9f1d                	subw	a4,a4,a5
   12796:	c458                	sw	a4,12(s0)
   12798:	6018                	ld	a4,0(s0)
   1279a:	97ba                	add	a5,a5,a4
   1279c:	e01c                	sd	a5,0(s0)
   1279e:	010a3783          	ld	a5,16(s4)
   127a2:	9aa6                	add	s5,s5,s1
   127a4:	409d0d33          	sub	s10,s10,s1
   127a8:	409784b3          	sub	s1,a5,s1
   127ac:	009a3823          	sd	s1,16(s4)
   127b0:	f095                	bnez	s1,126d4 <__sfvwrite_r+0x14c>
   127b2:	b5e5                	j	1269a <__sfvwrite_r+0x112>
   127b4:	8626                	mv	a2,s1
   127b6:	854a                	mv	a0,s2
   127b8:	18f020ef          	jal	ra,15146 <_realloc_r>
   127bc:	87aa                	mv	a5,a0
   127be:	f55d                	bnez	a0,1276c <__sfvwrite_r+0x1e4>
   127c0:	6c0c                	ld	a1,24(s0)
   127c2:	854a                	mv	a0,s2
   127c4:	c0dff0ef          	jal	ra,123d0 <_free_r>
   127c8:	01045783          	lhu	a5,16(s0)
   127cc:	f7f7f793          	andi	a5,a5,-129
   127d0:	00f41823          	sh	a5,16(s0)
   127d4:	bf89                	j	12726 <__sfvwrite_r+0x19e>
   127d6:	6c1c                	ld	a5,24(s0)
   127d8:	00a7e563          	bltu	a5,a0,127e2 <__sfvwrite_r+0x25a>
   127dc:	5014                	lw	a3,32(s0)
   127de:	02dd7763          	bleu	a3,s10,1280c <__sfvwrite_r+0x284>
   127e2:	009d7363          	bleu	s1,s10,127e8 <__sfvwrite_r+0x260>
   127e6:	84ea                	mv	s1,s10
   127e8:	8626                	mv	a2,s1
   127ea:	85d6                	mv	a1,s5
   127ec:	715010ef          	jal	ra,14700 <memmove>
   127f0:	445c                	lw	a5,12(s0)
   127f2:	4097873b          	subw	a4,a5,s1
   127f6:	601c                	ld	a5,0(s0)
   127f8:	c458                	sw	a4,12(s0)
   127fa:	97a6                	add	a5,a5,s1
   127fc:	e01c                	sd	a5,0(s0)
   127fe:	f345                	bnez	a4,1279e <__sfvwrite_r+0x216>
   12800:	85a2                	mv	a1,s0
   12802:	854a                	mv	a0,s2
   12804:	8e3ff0ef          	jal	ra,120e6 <_fflush_r>
   12808:	d959                	beqz	a0,1279e <__sfvwrite_r+0x216>
   1280a:	b70d                	j	1272c <__sfvwrite_r+0x1a4>
   1280c:	87ea                	mv	a5,s10
   1280e:	01abf363          	bleu	s10,s7,12814 <__sfvwrite_r+0x28c>
   12812:	87da                	mv	a5,s6
   12814:	02d7c7bb          	divw	a5,a5,a3
   12818:	6038                	ld	a4,64(s0)
   1281a:	780c                	ld	a1,48(s0)
   1281c:	8656                	mv	a2,s5
   1281e:	854a                	mv	a0,s2
   12820:	02d786bb          	mulw	a3,a5,a3
   12824:	9702                	jalr	a4
   12826:	84aa                	mv	s1,a0
   12828:	f6a04be3          	bgtz	a0,1279e <__sfvwrite_r+0x216>
   1282c:	b701                	j	1272c <__sfvwrite_r+0x1a4>
   1282e:	0009bb83          	ld	s7,0(s3)
   12832:	0089bb03          	ld	s6,8(s3)
   12836:	4501                	li	a0,0
   12838:	09c1                	addi	s3,s3,16
   1283a:	b355                	j	125de <__sfvwrite_r+0x56>
   1283c:	001b0a9b          	addiw	s5,s6,1
   12840:	bb65                	j	125f8 <__sfvwrite_r+0x70>
   12842:	00dc4b63          	blt	s8,a3,12858 <__sfvwrite_r+0x2d0>
   12846:	603c                	ld	a5,64(s0)
   12848:	780c                	ld	a1,48(s0)
   1284a:	865e                	mv	a2,s7
   1284c:	854a                	mv	a0,s2
   1284e:	9782                	jalr	a5
   12850:	84aa                	mv	s1,a0
   12852:	dca04de3          	bgtz	a0,1262c <__sfvwrite_r+0xa4>
   12856:	bdd9                	j	1272c <__sfvwrite_r+0x1a4>
   12858:	8662                	mv	a2,s8
   1285a:	85de                	mv	a1,s7
   1285c:	6a5010ef          	jal	ra,14700 <memmove>
   12860:	445c                	lw	a5,12(s0)
   12862:	84e2                	mv	s1,s8
   12864:	418787bb          	subw	a5,a5,s8
   12868:	c45c                	sw	a5,12(s0)
   1286a:	601c                	ld	a5,0(s0)
   1286c:	97e2                	add	a5,a5,s8
   1286e:	e01c                	sd	a5,0(s0)
   12870:	bb75                	j	1262c <__sfvwrite_r+0xa4>

0000000000012872 <_fwalk>:
   12872:	715d                	addi	sp,sp,-80
   12874:	e0a2                	sd	s0,64(sp)
   12876:	fc26                	sd	s1,56(sp)
   12878:	f052                	sd	s4,32(sp)
   1287a:	ec56                	sd	s5,24(sp)
   1287c:	e486                	sd	ra,72(sp)
   1287e:	f84a                	sd	s2,48(sp)
   12880:	f44e                	sd	s3,40(sp)
   12882:	52050493          	addi	s1,a0,1312
   12886:	4401                	li	s0,0
   12888:	4a05                	li	s4,1
   1288a:	5afd                	li	s5,-1
   1288c:	e899                	bnez	s1,128a2 <_fwalk+0x30>
   1288e:	8522                	mv	a0,s0
   12890:	60a6                	ld	ra,72(sp)
   12892:	6406                	ld	s0,64(sp)
   12894:	74e2                	ld	s1,56(sp)
   12896:	7942                	ld	s2,48(sp)
   12898:	79a2                	ld	s3,40(sp)
   1289a:	7a02                	ld	s4,32(sp)
   1289c:	6ae2                	ld	s5,24(sp)
   1289e:	6161                	addi	sp,sp,80
   128a0:	8082                	ret
   128a2:	0104b903          	ld	s2,16(s1)
   128a6:	0084a983          	lw	s3,8(s1)
   128aa:	39fd                	addiw	s3,s3,-1
   128ac:	0009d463          	bgez	s3,128b4 <_fwalk+0x42>
   128b0:	6084                	ld	s1,0(s1)
   128b2:	bfe9                	j	1288c <_fwalk+0x1a>
   128b4:	01095783          	lhu	a5,16(s2)
   128b8:	00fa7c63          	bleu	a5,s4,128d0 <_fwalk+0x5e>
   128bc:	01291783          	lh	a5,18(s2)
   128c0:	01578863          	beq	a5,s5,128d0 <_fwalk+0x5e>
   128c4:	854a                	mv	a0,s2
   128c6:	e42e                	sd	a1,8(sp)
   128c8:	9582                	jalr	a1
   128ca:	65a2                	ld	a1,8(sp)
   128cc:	8c49                	or	s0,s0,a0
   128ce:	2401                	sext.w	s0,s0
   128d0:	0b090913          	addi	s2,s2,176
   128d4:	bfd9                	j	128aa <_fwalk+0x38>

00000000000128d6 <_fwalk_reent>:
   128d6:	715d                	addi	sp,sp,-80
   128d8:	e0a2                	sd	s0,64(sp)
   128da:	fc26                	sd	s1,56(sp)
   128dc:	f052                	sd	s4,32(sp)
   128de:	ec56                	sd	s5,24(sp)
   128e0:	e85a                	sd	s6,16(sp)
   128e2:	e45e                	sd	s7,8(sp)
   128e4:	e486                	sd	ra,72(sp)
   128e6:	f84a                	sd	s2,48(sp)
   128e8:	f44e                	sd	s3,40(sp)
   128ea:	8a2a                	mv	s4,a0
   128ec:	8aae                	mv	s5,a1
   128ee:	52050493          	addi	s1,a0,1312
   128f2:	4401                	li	s0,0
   128f4:	4b05                	li	s6,1
   128f6:	5bfd                	li	s7,-1
   128f8:	ec89                	bnez	s1,12912 <_fwalk_reent+0x3c>
   128fa:	8522                	mv	a0,s0
   128fc:	60a6                	ld	ra,72(sp)
   128fe:	6406                	ld	s0,64(sp)
   12900:	74e2                	ld	s1,56(sp)
   12902:	7942                	ld	s2,48(sp)
   12904:	79a2                	ld	s3,40(sp)
   12906:	7a02                	ld	s4,32(sp)
   12908:	6ae2                	ld	s5,24(sp)
   1290a:	6b42                	ld	s6,16(sp)
   1290c:	6ba2                	ld	s7,8(sp)
   1290e:	6161                	addi	sp,sp,80
   12910:	8082                	ret
   12912:	0104b903          	ld	s2,16(s1)
   12916:	0084a983          	lw	s3,8(s1)
   1291a:	39fd                	addiw	s3,s3,-1
   1291c:	0009d463          	bgez	s3,12924 <_fwalk_reent+0x4e>
   12920:	6084                	ld	s1,0(s1)
   12922:	bfd9                	j	128f8 <_fwalk_reent+0x22>
   12924:	01095783          	lhu	a5,16(s2)
   12928:	00fb7b63          	bleu	a5,s6,1293e <_fwalk_reent+0x68>
   1292c:	01291783          	lh	a5,18(s2)
   12930:	01778763          	beq	a5,s7,1293e <_fwalk_reent+0x68>
   12934:	85ca                	mv	a1,s2
   12936:	8552                	mv	a0,s4
   12938:	9a82                	jalr	s5
   1293a:	8c49                	or	s0,s0,a0
   1293c:	2401                	sext.w	s0,s0
   1293e:	0b090913          	addi	s2,s2,176
   12942:	bfe1                	j	1291a <_fwalk_reent+0x44>

0000000000012944 <eclear>:
   12944:	01450793          	addi	a5,a0,20
   12948:	0509                	addi	a0,a0,2
   1294a:	fe051f23          	sh	zero,-2(a0)
   1294e:	fef51de3          	bne	a0,a5,12948 <eclear+0x4>
   12952:	8082                	ret

0000000000012954 <emov>:
   12954:	4781                	li	a5,0
   12956:	4751                	li	a4,20
   12958:	00f506b3          	add	a3,a0,a5
   1295c:	0006d603          	lhu	a2,0(a3)
   12960:	00f586b3          	add	a3,a1,a5
   12964:	0789                	addi	a5,a5,2
   12966:	00c69023          	sh	a2,0(a3)
   1296a:	fee797e3          	bne	a5,a4,12958 <emov+0x4>
   1296e:	8082                	ret

0000000000012970 <ecleaz>:
   12970:	01a50793          	addi	a5,a0,26
   12974:	0509                	addi	a0,a0,2
   12976:	fe051f23          	sh	zero,-2(a0)
   1297a:	fef51de3          	bne	a0,a5,12974 <ecleaz+0x4>
   1297e:	8082                	ret

0000000000012980 <emovz>:
   12980:	4781                	li	a5,0
   12982:	4761                	li	a4,24
   12984:	00f506b3          	add	a3,a0,a5
   12988:	0006d603          	lhu	a2,0(a3)
   1298c:	00f586b3          	add	a3,a1,a5
   12990:	0789                	addi	a5,a5,2
   12992:	00c69023          	sh	a2,0(a3)
   12996:	fee797e3          	bne	a5,a4,12984 <emovz+0x4>
   1299a:	00059c23          	sh	zero,24(a1)
   1299e:	8082                	ret

00000000000129a0 <ecmpm>:
   129a0:	4791                	li	a5,4
   129a2:	4669                	li	a2,26
   129a4:	00f506b3          	add	a3,a0,a5
   129a8:	00f58733          	add	a4,a1,a5
   129ac:	0006d683          	lhu	a3,0(a3)
   129b0:	00075703          	lhu	a4,0(a4)
   129b4:	00e68763          	beq	a3,a4,129c2 <ecmpm+0x22>
   129b8:	4505                	li	a0,1
   129ba:	00d76863          	bltu	a4,a3,129ca <ecmpm+0x2a>
   129be:	557d                	li	a0,-1
   129c0:	8082                	ret
   129c2:	0789                	addi	a5,a5,2
   129c4:	fec790e3          	bne	a5,a2,129a4 <ecmpm+0x4>
   129c8:	4501                	li	a0,0
   129ca:	8082                	ret

00000000000129cc <eshdn1>:
   129cc:	00450693          	addi	a3,a0,4
   129d0:	4781                	li	a5,0
   129d2:	0569                	addi	a0,a0,26
   129d4:	7661                	lui	a2,0xffff8
   129d6:	0006d703          	lhu	a4,0(a3)
   129da:	00177593          	andi	a1,a4,1
   129de:	c199                	beqz	a1,129e4 <eshdn1+0x18>
   129e0:	0017e793          	ori	a5,a5,1
   129e4:	0027f593          	andi	a1,a5,2
   129e8:	8305                	srli	a4,a4,0x1
   129ea:	e999                	bnez	a1,12a00 <eshdn1+0x34>
   129ec:	0017979b          	slliw	a5,a5,0x1
   129f0:	00e69023          	sh	a4,0(a3)
   129f4:	17c2                	slli	a5,a5,0x30
   129f6:	0689                	addi	a3,a3,2
   129f8:	93c1                	srli	a5,a5,0x30
   129fa:	fcd51ee3          	bne	a0,a3,129d6 <eshdn1+0xa>
   129fe:	8082                	ret
   12a00:	8f51                	or	a4,a4,a2
   12a02:	b7ed                	j	129ec <eshdn1+0x20>

0000000000012a04 <eshup1>:
   12a04:	01650693          	addi	a3,a0,22
   12a08:	4701                	li	a4,0
   12a0a:	0026d783          	lhu	a5,2(a3)
   12a0e:	0107961b          	slliw	a2,a5,0x10
   12a12:	4106561b          	sraiw	a2,a2,0x10
   12a16:	02061593          	slli	a1,a2,0x20
   12a1a:	0005d463          	bgez	a1,12a22 <eshup1+0x1e>
   12a1e:	00176713          	ori	a4,a4,1
   12a22:	0017979b          	slliw	a5,a5,0x1
   12a26:	17c2                	slli	a5,a5,0x30
   12a28:	00277613          	andi	a2,a4,2
   12a2c:	93c1                	srli	a5,a5,0x30
   12a2e:	ea19                	bnez	a2,12a44 <eshup1+0x40>
   12a30:	0017171b          	slliw	a4,a4,0x1
   12a34:	00f69123          	sh	a5,2(a3)
   12a38:	1742                	slli	a4,a4,0x30
   12a3a:	16f9                	addi	a3,a3,-2
   12a3c:	9341                	srli	a4,a4,0x30
   12a3e:	fcd516e3          	bne	a0,a3,12a0a <eshup1+0x6>
   12a42:	8082                	ret
   12a44:	0017e793          	ori	a5,a5,1
   12a48:	b7e5                	j	12a30 <eshup1+0x2c>

0000000000012a4a <eshdn8>:
   12a4a:	00450793          	addi	a5,a0,4
   12a4e:	4701                	li	a4,0
   12a50:	0569                	addi	a0,a0,26
   12a52:	0007d683          	lhu	a3,0(a5)
   12a56:	0789                	addi	a5,a5,2
   12a58:	0086d61b          	srliw	a2,a3,0x8
   12a5c:	8f51                	or	a4,a4,a2
   12a5e:	fee79f23          	sh	a4,-2(a5)
   12a62:	0086971b          	slliw	a4,a3,0x8
   12a66:	1742                	slli	a4,a4,0x30
   12a68:	9341                	srli	a4,a4,0x30
   12a6a:	fef514e3          	bne	a0,a5,12a52 <eshdn8+0x8>
   12a6e:	8082                	ret

0000000000012a70 <eshup8>:
   12a70:	01650793          	addi	a5,a0,22
   12a74:	4701                	li	a4,0
   12a76:	0027d683          	lhu	a3,2(a5)
   12a7a:	17f9                	addi	a5,a5,-2
   12a7c:	00869613          	slli	a2,a3,0x8
   12a80:	8f51                	or	a4,a4,a2
   12a82:	00e79223          	sh	a4,4(a5)
   12a86:	0086d713          	srli	a4,a3,0x8
   12a8a:	fef516e3          	bne	a0,a5,12a76 <eshup8+0x6>
   12a8e:	8082                	ret

0000000000012a90 <eshup6>:
   12a90:	00450793          	addi	a5,a0,4
   12a94:	01850713          	addi	a4,a0,24
   12a98:	0789                	addi	a5,a5,2
   12a9a:	0007d683          	lhu	a3,0(a5)
   12a9e:	fed79f23          	sh	a3,-2(a5)
   12aa2:	fef71be3          	bne	a4,a5,12a98 <eshup6+0x8>
   12aa6:	00051c23          	sh	zero,24(a0)
   12aaa:	8082                	ret

0000000000012aac <eshdn6>:
   12aac:	01850793          	addi	a5,a0,24
   12ab0:	00450713          	addi	a4,a0,4
   12ab4:	17f9                	addi	a5,a5,-2
   12ab6:	0007d683          	lhu	a3,0(a5)
   12aba:	00d79123          	sh	a3,2(a5)
   12abe:	fef71be3          	bne	a4,a5,12ab4 <eshdn6+0x8>
   12ac2:	00051223          	sh	zero,4(a0)
   12ac6:	8082                	ret

0000000000012ac8 <eaddm>:
   12ac8:	05e1                	addi	a1,a1,24
   12aca:	01650713          	addi	a4,a0,22
   12ace:	4681                	li	a3,0
   12ad0:	0005d783          	lhu	a5,0(a1)
   12ad4:	1779                	addi	a4,a4,-2
   12ad6:	15f9                	addi	a1,a1,-2
   12ad8:	97b6                	add	a5,a5,a3
   12ada:	00475683          	lhu	a3,4(a4)
   12ade:	97b6                	add	a5,a5,a3
   12ae0:	00f59123          	sh	a5,2(a1)
   12ae4:	83c1                	srli	a5,a5,0x10
   12ae6:	0017f693          	andi	a3,a5,1
   12aea:	fee513e3          	bne	a0,a4,12ad0 <eaddm+0x8>
   12aee:	8082                	ret

0000000000012af0 <esubm>:
   12af0:	05e1                	addi	a1,a1,24
   12af2:	01650713          	addi	a4,a0,22
   12af6:	4681                	li	a3,0
   12af8:	0005d783          	lhu	a5,0(a1)
   12afc:	1779                	addi	a4,a4,-2
   12afe:	15f9                	addi	a1,a1,-2
   12b00:	8f95                	sub	a5,a5,a3
   12b02:	00475683          	lhu	a3,4(a4)
   12b06:	8f95                	sub	a5,a5,a3
   12b08:	00f59123          	sh	a5,2(a1)
   12b0c:	83c1                	srli	a5,a5,0x10
   12b0e:	0017f693          	andi	a3,a5,1
   12b12:	fee513e3          	bne	a0,a4,12af8 <esubm+0x8>
   12b16:	8082                	ret

0000000000012b18 <m16m>:
   12b18:	1101                	addi	sp,sp,-32
   12b1a:	6341                	lui	t1,0x10
   12b1c:	01858893          	addi	a7,a1,24
   12b20:	00011b23          	sh	zero,22(sp)
   12b24:	00011c23          	sh	zero,24(sp)
   12b28:	0591                	addi	a1,a1,4
   12b2a:	0834                	addi	a3,sp,24
   12b2c:	137d                	addi	t1,t1,-1
   12b2e:	0008d703          	lhu	a4,0(a7)
   12b32:	16f9                	addi	a3,a3,-2
   12b34:	18f9                	addi	a7,a7,-2
   12b36:	e705                	bnez	a4,12b5e <m16m+0x46>
   12b38:	fe069f23          	sh	zero,-2(a3)
   12b3c:	ff1599e3          	bne	a1,a7,12b2e <m16m+0x16>
   12b40:	4791                	li	a5,4
   12b42:	4769                	li	a4,26
   12b44:	00f105b3          	add	a1,sp,a5
   12b48:	0005d583          	lhu	a1,0(a1)
   12b4c:	00f606b3          	add	a3,a2,a5
   12b50:	0789                	addi	a5,a5,2
   12b52:	00b69023          	sh	a1,0(a3)
   12b56:	fee797e3          	bne	a5,a4,12b44 <m16m+0x2c>
   12b5a:	6105                	addi	sp,sp,32
   12b5c:	8082                	ret
   12b5e:	02a70733          	mul	a4,a4,a0
   12b62:	0026d803          	lhu	a6,2(a3)
   12b66:	006777b3          	and	a5,a4,t1
   12b6a:	97c2                	add	a5,a5,a6
   12b6c:	0107d813          	srli	a6,a5,0x10
   12b70:	00f69123          	sh	a5,2(a3)
   12b74:	01075793          	srli	a5,a4,0x10
   12b78:	0006d703          	lhu	a4,0(a3)
   12b7c:	97ba                	add	a5,a5,a4
   12b7e:	97c2                	add	a5,a5,a6
   12b80:	00f69023          	sh	a5,0(a3)
   12b84:	83c1                	srli	a5,a5,0x10
   12b86:	fef69f23          	sh	a5,-2(a3)
   12b8a:	bf4d                	j	12b3c <m16m+0x24>

0000000000012b8c <eisnan>:
   12b8c:	01255783          	lhu	a5,18(a0)
   12b90:	fff7c793          	not	a5,a5
   12b94:	03179713          	slli	a4,a5,0x31
   12b98:	eb09                	bnez	a4,12baa <eisnan+0x1e>
   12b9a:	01250793          	addi	a5,a0,18
   12b9e:	0509                	addi	a0,a0,2
   12ba0:	ffe55703          	lhu	a4,-2(a0)
   12ba4:	e709                	bnez	a4,12bae <eisnan+0x22>
   12ba6:	fea79ce3          	bne	a5,a0,12b9e <eisnan+0x12>
   12baa:	4501                	li	a0,0
   12bac:	8082                	ret
   12bae:	4505                	li	a0,1
   12bb0:	8082                	ret

0000000000012bb2 <eisneg>:
   12bb2:	1141                	addi	sp,sp,-16
   12bb4:	e022                	sd	s0,0(sp)
   12bb6:	e406                	sd	ra,8(sp)
   12bb8:	842a                	mv	s0,a0
   12bba:	fd3ff0ef          	jal	ra,12b8c <eisnan>
   12bbe:	e909                	bnez	a0,12bd0 <eisneg+0x1e>
   12bc0:	01241503          	lh	a0,18(s0)
   12bc4:	01f5551b          	srliw	a0,a0,0x1f
   12bc8:	60a2                	ld	ra,8(sp)
   12bca:	6402                	ld	s0,0(sp)
   12bcc:	0141                	addi	sp,sp,16
   12bce:	8082                	ret
   12bd0:	4501                	li	a0,0
   12bd2:	bfdd                	j	12bc8 <eisneg+0x16>

0000000000012bd4 <emovi>:
   12bd4:	01251783          	lh	a5,18(a0)
   12bd8:	1101                	addi	sp,sp,-32
   12bda:	ec06                	sd	ra,24(sp)
   12bdc:	e822                	sd	s0,16(sp)
   12bde:	e426                	sd	s1,8(sp)
   12be0:	e04a                	sd	s2,0(sp)
   12be2:	0407d963          	bgez	a5,12c34 <emovi+0x60>
   12be6:	57fd                	li	a5,-1
   12be8:	00f59023          	sh	a5,0(a1)
   12bec:	01255703          	lhu	a4,18(a0)
   12bf0:	67a1                	lui	a5,0x8
   12bf2:	17fd                	addi	a5,a5,-1
   12bf4:	8f7d                	and	a4,a4,a5
   12bf6:	00e59123          	sh	a4,2(a1)
   12bfa:	01050913          	addi	s2,a0,16
   12bfe:	04f71863          	bne	a4,a5,12c4e <emovi+0x7a>
   12c02:	842e                	mv	s0,a1
   12c04:	84aa                	mv	s1,a0
   12c06:	f87ff0ef          	jal	ra,12b8c <eisnan>
   12c0a:	c905                	beqz	a0,12c3a <emovi+0x66>
   12c0c:	00640793          	addi	a5,s0,6
   12c10:	00041223          	sh	zero,4(s0)
   12c14:	ffc48513          	addi	a0,s1,-4
   12c18:	1979                	addi	s2,s2,-2
   12c1a:	00295703          	lhu	a4,2(s2)
   12c1e:	0789                	addi	a5,a5,2
   12c20:	fee79f23          	sh	a4,-2(a5) # 7ffe <main-0x80b2>
   12c24:	fea91ae3          	bne	s2,a0,12c18 <emovi+0x44>
   12c28:	60e2                	ld	ra,24(sp)
   12c2a:	6442                	ld	s0,16(sp)
   12c2c:	64a2                	ld	s1,8(sp)
   12c2e:	6902                	ld	s2,0(sp)
   12c30:	6105                	addi	sp,sp,32
   12c32:	8082                	ret
   12c34:	00059023          	sh	zero,0(a1)
   12c38:	bf55                	j	12bec <emovi+0x18>
   12c3a:	00440793          	addi	a5,s0,4
   12c3e:	01a40593          	addi	a1,s0,26
   12c42:	0789                	addi	a5,a5,2
   12c44:	fe079f23          	sh	zero,-2(a5)
   12c48:	feb79de3          	bne	a5,a1,12c42 <emovi+0x6e>
   12c4c:	bff1                	j	12c28 <emovi+0x54>
   12c4e:	00658793          	addi	a5,a1,6
   12c52:	00059223          	sh	zero,4(a1)
   12c56:	1579                	addi	a0,a0,-2
   12c58:	1979                	addi	s2,s2,-2
   12c5a:	00295703          	lhu	a4,2(s2)
   12c5e:	0789                	addi	a5,a5,2
   12c60:	fee79f23          	sh	a4,-2(a5)
   12c64:	fea91ae3          	bne	s2,a0,12c58 <emovi+0x84>
   12c68:	00059c23          	sh	zero,24(a1)
   12c6c:	bf75                	j	12c28 <emovi+0x54>

0000000000012c6e <ecmp>:
   12c6e:	711d                	addi	sp,sp,-96
   12c70:	e4a6                	sd	s1,72(sp)
   12c72:	e0ca                	sd	s2,64(sp)
   12c74:	ec86                	sd	ra,88(sp)
   12c76:	e8a2                	sd	s0,80(sp)
   12c78:	892a                	mv	s2,a0
   12c7a:	84ae                	mv	s1,a1
   12c7c:	f11ff0ef          	jal	ra,12b8c <eisnan>
   12c80:	e559                	bnez	a0,12d0e <ecmp+0xa0>
   12c82:	8526                	mv	a0,s1
   12c84:	f09ff0ef          	jal	ra,12b8c <eisnan>
   12c88:	842a                	mv	s0,a0
   12c8a:	e151                	bnez	a0,12d0e <ecmp+0xa0>
   12c8c:	858a                	mv	a1,sp
   12c8e:	854a                	mv	a0,s2
   12c90:	f45ff0ef          	jal	ra,12bd4 <emovi>
   12c94:	100c                	addi	a1,sp,32
   12c96:	8526                	mv	a0,s1
   12c98:	f3dff0ef          	jal	ra,12bd4 <emovi>
   12c9c:	00015703          	lhu	a4,0(sp)
   12ca0:	02015783          	lhu	a5,32(sp)
   12ca4:	02e78c63          	beq	a5,a4,12cdc <ecmp+0x6e>
   12ca8:	4789                	li	a5,2
   12caa:	46e1                	li	a3,24
   12cac:	00f10633          	add	a2,sp,a5
   12cb0:	00065603          	lhu	a2,0(a2) # ffffffffffff8000 <__global_pointer$+0xfffffffffff9ad48>
   12cb4:	e205                	bnez	a2,12cd4 <ecmp+0x66>
   12cb6:	1010                	addi	a2,sp,32
   12cb8:	963e                	add	a2,a2,a5
   12cba:	00065603          	lhu	a2,0(a2)
   12cbe:	ea19                	bnez	a2,12cd4 <ecmp+0x66>
   12cc0:	0789                	addi	a5,a5,2
   12cc2:	fed795e3          	bne	a5,a3,12cac <ecmp+0x3e>
   12cc6:	8522                	mv	a0,s0
   12cc8:	60e6                	ld	ra,88(sp)
   12cca:	6446                	ld	s0,80(sp)
   12ccc:	64a6                	ld	s1,72(sp)
   12cce:	6906                	ld	s2,64(sp)
   12cd0:	6125                	addi	sp,sp,96
   12cd2:	8082                	ret
   12cd4:	4405                	li	s0,1
   12cd6:	db65                	beqz	a4,12cc6 <ecmp+0x58>
   12cd8:	547d                	li	s0,-1
   12cda:	b7f5                	j	12cc6 <ecmp+0x58>
   12cdc:	4685                	li	a3,1
   12cde:	c311                	beqz	a4,12ce2 <ecmp+0x74>
   12ce0:	56fd                	li	a3,-1
   12ce2:	4781                	li	a5,0
   12ce4:	45e1                	li	a1,24
   12ce6:	00f10733          	add	a4,sp,a5
   12cea:	00075603          	lhu	a2,0(a4)
   12cee:	1018                	addi	a4,sp,32
   12cf0:	973e                	add	a4,a4,a5
   12cf2:	00075703          	lhu	a4,0(a4)
   12cf6:	00e60863          	beq	a2,a4,12d06 <ecmp+0x98>
   12cfa:	8436                	mv	s0,a3
   12cfc:	fcc765e3          	bltu	a4,a2,12cc6 <ecmp+0x58>
   12d00:	40d0043b          	negw	s0,a3
   12d04:	b7c9                	j	12cc6 <ecmp+0x58>
   12d06:	0789                	addi	a5,a5,2
   12d08:	fcb79fe3          	bne	a5,a1,12ce6 <ecmp+0x78>
   12d0c:	bf6d                	j	12cc6 <ecmp+0x58>
   12d0e:	5479                	li	s0,-2
   12d10:	bf5d                	j	12cc6 <ecmp+0x58>

0000000000012d12 <eisinf>:
   12d12:	01255783          	lhu	a5,18(a0)
   12d16:	fff7c793          	not	a5,a5
   12d1a:	03179713          	slli	a4,a5,0x31
   12d1e:	eb11                	bnez	a4,12d32 <eisinf+0x20>
   12d20:	1141                	addi	sp,sp,-16
   12d22:	e406                	sd	ra,8(sp)
   12d24:	e69ff0ef          	jal	ra,12b8c <eisnan>
   12d28:	60a2                	ld	ra,8(sp)
   12d2a:	00153513          	seqz	a0,a0
   12d2e:	0141                	addi	sp,sp,16
   12d30:	8082                	ret
   12d32:	4501                	li	a0,0
   12d34:	8082                	ret

0000000000012d36 <einfin.isra.2>:
   12d36:	01250713          	addi	a4,a0,18
   12d3a:	87aa                	mv	a5,a0
   12d3c:	0789                	addi	a5,a5,2
   12d3e:	fe079f23          	sh	zero,-2(a5)
   12d42:	fee79de3          	bne	a5,a4,12d3c <einfin.isra.2+0x6>
   12d46:	01255783          	lhu	a5,18(a0)
   12d4a:	6721                	lui	a4,0x8
   12d4c:	177d                	addi	a4,a4,-1
   12d4e:	8fd9                	or	a5,a5,a4
   12d50:	00f51923          	sh	a5,18(a0)
   12d54:	8082                	ret

0000000000012d56 <eshift.part.3>:
   12d56:	7139                	addi	sp,sp,-64
   12d58:	f822                	sd	s0,48(sp)
   12d5a:	ec4e                	sd	s3,24(sp)
   12d5c:	fc06                	sd	ra,56(sp)
   12d5e:	f426                	sd	s1,40(sp)
   12d60:	f04a                	sd	s2,32(sp)
   12d62:	e852                	sd	s4,16(sp)
   12d64:	e456                	sd	s5,8(sp)
   12d66:	89aa                	mv	s3,a0
   12d68:	842e                	mv	s0,a1
   12d6a:	0a05d963          	bgez	a1,12e1c <eshift.part.3+0xc6>
   12d6e:	40b00a3b          	negw	s4,a1
   12d72:	8952                	mv	s2,s4
   12d74:	4481                	li	s1,0
   12d76:	4abd                	li	s5,15
   12d78:	034ac763          	blt	s5,s4,12da6 <eshift.part.3+0x50>
   12d7c:	0049591b          	srliw	s2,s2,0x4
   12d80:	55c1                	li	a1,-16
   12d82:	02b905bb          	mulw	a1,s2,a1
   12d86:	4a1d                	li	s4,7
   12d88:	4085893b          	subw	s2,a1,s0
   12d8c:	844a                	mv	s0,s2
   12d8e:	032a4463          	blt	s4,s2,12db6 <eshift.part.3+0x60>
   12d92:	0034559b          	srliw	a1,s0,0x3
   12d96:	57e1                	li	a5,-8
   12d98:	02f585bb          	mulw	a1,a1,a5
   12d9c:	9c2d                	addw	s0,s0,a1
   12d9e:	e405                	bnez	s0,12dc6 <eshift.part.3+0x70>
   12da0:	00903533          	snez	a0,s1
   12da4:	a09d                	j	12e0a <eshift.part.3+0xb4>
   12da6:	0189d783          	lhu	a5,24(s3)
   12daa:	854e                	mv	a0,s3
   12dac:	3a41                	addiw	s4,s4,-16
   12dae:	8cdd                	or	s1,s1,a5
   12db0:	cfdff0ef          	jal	ra,12aac <eshdn6>
   12db4:	b7d1                	j	12d78 <eshift.part.3+0x22>
   12db6:	0189c783          	lbu	a5,24(s3)
   12dba:	854e                	mv	a0,s3
   12dbc:	3961                	addiw	s2,s2,-8
   12dbe:	8cdd                	or	s1,s1,a5
   12dc0:	c8bff0ef          	jal	ra,12a4a <eshdn8>
   12dc4:	b7e9                	j	12d8e <eshift.part.3+0x38>
   12dc6:	0189d783          	lhu	a5,24(s3)
   12dca:	854e                	mv	a0,s3
   12dcc:	347d                	addiw	s0,s0,-1
   12dce:	8b85                	andi	a5,a5,1
   12dd0:	8cdd                	or	s1,s1,a5
   12dd2:	bfbff0ef          	jal	ra,129cc <eshdn1>
   12dd6:	b7e1                	j	12d9e <eshift.part.3+0x48>
   12dd8:	854e                	mv	a0,s3
   12dda:	cb7ff0ef          	jal	ra,12a90 <eshup6>
   12dde:	34c1                	addiw	s1,s1,-16
   12de0:	fe994ce3          	blt	s2,s1,12dd8 <eshift.part.3+0x82>
   12de4:	0044559b          	srliw	a1,s0,0x4
   12de8:	57c1                	li	a5,-16
   12dea:	02f585bb          	mulw	a1,a1,a5
   12dee:	491d                	li	s2,7
   12df0:	00b404bb          	addw	s1,s0,a1
   12df4:	8426                	mv	s0,s1
   12df6:	02994663          	blt	s2,s1,12e22 <eshift.part.3+0xcc>
   12dfa:	0034559b          	srliw	a1,s0,0x3
   12dfe:	57e1                	li	a5,-8
   12e00:	02f585bb          	mulw	a1,a1,a5
   12e04:	9c2d                	addw	s0,s0,a1
   12e06:	e01d                	bnez	s0,12e2c <eshift.part.3+0xd6>
   12e08:	4501                	li	a0,0
   12e0a:	70e2                	ld	ra,56(sp)
   12e0c:	7442                	ld	s0,48(sp)
   12e0e:	74a2                	ld	s1,40(sp)
   12e10:	7902                	ld	s2,32(sp)
   12e12:	69e2                	ld	s3,24(sp)
   12e14:	6a42                	ld	s4,16(sp)
   12e16:	6aa2                	ld	s5,8(sp)
   12e18:	6121                	addi	sp,sp,64
   12e1a:	8082                	ret
   12e1c:	84ae                	mv	s1,a1
   12e1e:	493d                	li	s2,15
   12e20:	b7c1                	j	12de0 <eshift.part.3+0x8a>
   12e22:	854e                	mv	a0,s3
   12e24:	c4dff0ef          	jal	ra,12a70 <eshup8>
   12e28:	34e1                	addiw	s1,s1,-8
   12e2a:	b7f1                	j	12df6 <eshift.part.3+0xa0>
   12e2c:	854e                	mv	a0,s3
   12e2e:	bd7ff0ef          	jal	ra,12a04 <eshup1>
   12e32:	347d                	addiw	s0,s0,-1
   12e34:	bfc9                	j	12e06 <eshift.part.3+0xb0>

0000000000012e36 <enormlz>:
   12e36:	00455783          	lhu	a5,4(a0)
   12e3a:	1101                	addi	sp,sp,-32
   12e3c:	e426                	sd	s1,8(sp)
   12e3e:	ec06                	sd	ra,24(sp)
   12e40:	e822                	sd	s0,16(sp)
   12e42:	e04a                	sd	s2,0(sp)
   12e44:	84aa                	mv	s1,a0
   12e46:	cb99                	beqz	a5,12e5c <enormlz+0x26>
   12e48:	f007f793          	andi	a5,a5,-256
   12e4c:	4401                	li	s0,0
   12e4e:	c781                	beqz	a5,12e56 <enormlz+0x20>
   12e50:	bfbff0ef          	jal	ra,12a4a <eshdn8>
   12e54:	5461                	li	s0,-8
   12e56:	f6f00913          	li	s2,-145
   12e5a:	a0ad                	j	12ec4 <enormlz+0x8e>
   12e5c:	00651783          	lh	a5,6(a0)
   12e60:	4401                	li	s0,0
   12e62:	0a000913          	li	s2,160
   12e66:	0007df63          	bgez	a5,12e84 <enormlz+0x4e>
   12e6a:	8522                	mv	a0,s0
   12e6c:	60e2                	ld	ra,24(sp)
   12e6e:	6442                	ld	s0,16(sp)
   12e70:	64a2                	ld	s1,8(sp)
   12e72:	6902                	ld	s2,0(sp)
   12e74:	6105                	addi	sp,sp,32
   12e76:	8082                	ret
   12e78:	8526                	mv	a0,s1
   12e7a:	2441                	addiw	s0,s0,16
   12e7c:	c15ff0ef          	jal	ra,12a90 <eshup6>
   12e80:	ff2405e3          	beq	s0,s2,12e6a <enormlz+0x34>
   12e84:	0064d783          	lhu	a5,6(s1)
   12e88:	dbe5                	beqz	a5,12e78 <enormlz+0x42>
   12e8a:	0064d783          	lhu	a5,6(s1)
   12e8e:	f007f793          	andi	a5,a5,-256
   12e92:	cf91                	beqz	a5,12eae <enormlz+0x78>
   12e94:	0a000913          	li	s2,160
   12e98:	00649783          	lh	a5,6(s1)
   12e9c:	fc07c7e3          	bltz	a5,12e6a <enormlz+0x34>
   12ea0:	8526                	mv	a0,s1
   12ea2:	2405                	addiw	s0,s0,1
   12ea4:	b61ff0ef          	jal	ra,12a04 <eshup1>
   12ea8:	fe8958e3          	ble	s0,s2,12e98 <enormlz+0x62>
   12eac:	bf7d                	j	12e6a <enormlz+0x34>
   12eae:	8526                	mv	a0,s1
   12eb0:	bc1ff0ef          	jal	ra,12a70 <eshup8>
   12eb4:	2421                	addiw	s0,s0,8
   12eb6:	bfd1                	j	12e8a <enormlz+0x54>
   12eb8:	8526                	mv	a0,s1
   12eba:	347d                	addiw	s0,s0,-1
   12ebc:	b11ff0ef          	jal	ra,129cc <eshdn1>
   12ec0:	fb2405e3          	beq	s0,s2,12e6a <enormlz+0x34>
   12ec4:	0044d783          	lhu	a5,4(s1)
   12ec8:	fbe5                	bnez	a5,12eb8 <enormlz+0x82>
   12eca:	b745                	j	12e6a <enormlz+0x34>

0000000000012ecc <enan.constprop.12>:
   12ecc:	01050713          	addi	a4,a0,16
   12ed0:	87aa                	mv	a5,a0
   12ed2:	0789                	addi	a5,a5,2
   12ed4:	fe079f23          	sh	zero,-2(a5)
   12ed8:	fee79de3          	bne	a5,a4,12ed2 <enan.constprop.12+0x6>
   12edc:	7fffc7b7          	lui	a5,0x7fffc
   12ee0:	c91c                	sw	a5,16(a0)
   12ee2:	8082                	ret

0000000000012ee4 <emovo.isra.6>:
   12ee4:	872a                	mv	a4,a0
   12ee6:	00075683          	lhu	a3,0(a4) # 8000 <main-0x80b0>
   12eea:	852e                	mv	a0,a1
   12eec:	00275783          	lhu	a5,2(a4)
   12ef0:	c299                	beqz	a3,12ef6 <emovo.isra.6+0x12>
   12ef2:	76e1                	lui	a3,0xffff8
   12ef4:	8fd5                	or	a5,a5,a3
   12ef6:	00f51923          	sh	a5,18(a0)
   12efa:	00275603          	lhu	a2,2(a4)
   12efe:	66a1                	lui	a3,0x8
   12f00:	16fd                	addi	a3,a3,-1
   12f02:	00670793          	addi	a5,a4,6
   12f06:	00d61b63          	bne	a2,a3,12f1c <emovo.isra.6+0x38>
   12f0a:	0769                	addi	a4,a4,26
   12f0c:	0007d683          	lhu	a3,0(a5) # 7fffc000 <__global_pointer$+0x7ff9ed48>
   12f10:	e28d                	bnez	a3,12f32 <emovo.isra.6+0x4e>
   12f12:	0789                	addi	a5,a5,2
   12f14:	fee79ce3          	bne	a5,a4,12f0c <emovo.isra.6+0x28>
   12f18:	e1fff06f          	j	12d36 <einfin.isra.2>
   12f1c:	0541                	addi	a0,a0,16
   12f1e:	0761                	addi	a4,a4,24
   12f20:	0789                	addi	a5,a5,2
   12f22:	ffe7d683          	lhu	a3,-2(a5)
   12f26:	1579                	addi	a0,a0,-2
   12f28:	00d51123          	sh	a3,2(a0)
   12f2c:	fee79ae3          	bne	a5,a4,12f20 <emovo.isra.6+0x3c>
   12f30:	8082                	ret
   12f32:	f9bff06f          	j	12ecc <enan.constprop.12>

0000000000012f36 <e113toe.isra.8>:
   12f36:	7139                	addi	sp,sp,-64
   12f38:	f426                	sd	s1,40(sp)
   12f3a:	84aa                	mv	s1,a0
   12f3c:	850a                	mv	a0,sp
   12f3e:	f822                	sd	s0,48(sp)
   12f40:	fc06                	sd	ra,56(sp)
   12f42:	842e                	mv	s0,a1
   12f44:	a2dff0ef          	jal	ra,12970 <ecleaz>
   12f48:	00e4d703          	lhu	a4,14(s1)
   12f4c:	0107179b          	slliw	a5,a4,0x10
   12f50:	4107d79b          	sraiw	a5,a5,0x10
   12f54:	02079693          	slli	a3,a5,0x20
   12f58:	0206c763          	bltz	a3,12f86 <e113toe.isra.8+0x50>
   12f5c:	00011023          	sh	zero,0(sp)
   12f60:	66a1                	lui	a3,0x8
   12f62:	16fd                	addi	a3,a3,-1
   12f64:	8f75                	and	a4,a4,a3
   12f66:	00e48793          	addi	a5,s1,14
   12f6a:	04d71a63          	bne	a4,a3,12fbe <e113toe.isra.8+0x88>
   12f6e:	8726                	mv	a4,s1
   12f70:	00075683          	lhu	a3,0(a4)
   12f74:	ce89                	beqz	a3,12f8e <e113toe.isra.8+0x58>
   12f76:	8522                	mv	a0,s0
   12f78:	f55ff0ef          	jal	ra,12ecc <enan.constprop.12>
   12f7c:	70e2                	ld	ra,56(sp)
   12f7e:	7442                	ld	s0,48(sp)
   12f80:	74a2                	ld	s1,40(sp)
   12f82:	6121                	addi	sp,sp,64
   12f84:	8082                	ret
   12f86:	57fd                	li	a5,-1
   12f88:	00f11023          	sh	a5,0(sp)
   12f8c:	bfd1                	j	12f60 <e113toe.isra.8+0x2a>
   12f8e:	0709                	addi	a4,a4,2
   12f90:	fee790e3          	bne	a5,a4,12f70 <e113toe.isra.8+0x3a>
   12f94:	8522                	mv	a0,s0
   12f96:	9afff0ef          	jal	ra,12944 <eclear>
   12f9a:	8522                	mv	a0,s0
   12f9c:	d9bff0ef          	jal	ra,12d36 <einfin.isra.2>
   12fa0:	00e49783          	lh	a5,14(s1)
   12fa4:	fc07dce3          	bgez	a5,12f7c <e113toe.isra.8+0x46>
   12fa8:	8522                	mv	a0,s0
   12faa:	be3ff0ef          	jal	ra,12b8c <eisnan>
   12fae:	f579                	bnez	a0,12f7c <e113toe.isra.8+0x46>
   12fb0:	01245783          	lhu	a5,18(s0)
   12fb4:	7761                	lui	a4,0xffff8
   12fb6:	8fb9                	xor	a5,a5,a4
   12fb8:	00f41923          	sh	a5,18(s0)
   12fbc:	b7c1                	j	12f7c <e113toe.isra.8+0x46>
   12fbe:	00e11123          	sh	a4,2(sp)
   12fc2:	868a                	mv	a3,sp
   12fc4:	17f9                	addi	a5,a5,-2
   12fc6:	0007d603          	lhu	a2,0(a5)
   12fca:	0689                	addi	a3,a3,2
   12fcc:	00c69223          	sh	a2,4(a3) # 8004 <main-0x80ac>
   12fd0:	fef49ae3          	bne	s1,a5,12fc4 <e113toe.isra.8+0x8e>
   12fd4:	eb01                	bnez	a4,12fe4 <e113toe.isra.8+0xae>
   12fd6:	00011223          	sh	zero,4(sp)
   12fda:	85a2                	mv	a1,s0
   12fdc:	850a                	mv	a0,sp
   12fde:	f07ff0ef          	jal	ra,12ee4 <emovo.isra.6>
   12fe2:	bf69                	j	12f7c <e113toe.isra.8+0x46>
   12fe4:	4785                	li	a5,1
   12fe6:	55fd                	li	a1,-1
   12fe8:	850a                	mv	a0,sp
   12fea:	00f11223          	sh	a5,4(sp)
   12fee:	d69ff0ef          	jal	ra,12d56 <eshift.part.3>
   12ff2:	b7e5                	j	12fda <e113toe.isra.8+0xa4>

0000000000012ff4 <emdnorm>:
   12ff4:	7139                	addi	sp,sp,-64
   12ff6:	f822                	sd	s0,48(sp)
   12ff8:	f426                	sd	s1,40(sp)
   12ffa:	f04a                	sd	s2,32(sp)
   12ffc:	ec4e                	sd	s3,24(sp)
   12ffe:	e852                	sd	s4,16(sp)
   13000:	e456                	sd	s5,8(sp)
   13002:	8936                	mv	s2,a3
   13004:	843e                	mv	s0,a5
   13006:	fc06                	sd	ra,56(sp)
   13008:	84aa                	mv	s1,a0
   1300a:	89ae                	mv	s3,a1
   1300c:	8a32                	mv	s4,a2
   1300e:	8aba                	mv	s5,a4
   13010:	e27ff0ef          	jal	ra,12e36 <enormlz>
   13014:	09000793          	li	a5,144
   13018:	40a90933          	sub	s2,s2,a0
   1301c:	02a7d763          	ble	a0,a5,1304a <emdnorm+0x56>
   13020:	67a1                	lui	a5,0x8
   13022:	17f9                	addi	a5,a5,-2
   13024:	0527c063          	blt	a5,s2,13064 <emdnorm+0x70>
   13028:	00248793          	addi	a5,s1,2
   1302c:	04e9                	addi	s1,s1,26
   1302e:	0789                	addi	a5,a5,2
   13030:	fe079f23          	sh	zero,-2(a5) # 7ffe <main-0x80b2>
   13034:	fe979de3          	bne	a5,s1,1302e <emdnorm+0x3a>
   13038:	70e2                	ld	ra,56(sp)
   1303a:	7442                	ld	s0,48(sp)
   1303c:	74a2                	ld	s1,40(sp)
   1303e:	7902                	ld	s2,32(sp)
   13040:	69e2                	ld	s3,24(sp)
   13042:	6a42                	ld	s4,16(sp)
   13044:	6aa2                	ld	s5,8(sp)
   13046:	6121                	addi	sp,sp,64
   13048:	8082                	ret
   1304a:	00095d63          	bgez	s2,13064 <emdnorm+0x70>
   1304e:	f7000793          	li	a5,-144
   13052:	12f94963          	blt	s2,a5,13184 <emdnorm+0x190>
   13056:	0009059b          	sext.w	a1,s2
   1305a:	8526                	mv	a0,s1
   1305c:	cfbff0ef          	jal	ra,12d56 <eshift.part.3>
   13060:	12051b63          	bnez	a0,13196 <emdnorm+0x1a2>
   13064:	0e0a8c63          	beqz	s5,1315c <emdnorm+0x168>
   13068:	4058                	lw	a4,4(s0)
   1306a:	401c                	lw	a5,0(s0)
   1306c:	04f70863          	beq	a4,a5,130bc <emdnorm+0xc8>
   13070:	01a40513          	addi	a0,s0,26
   13074:	8fdff0ef          	jal	ra,12970 <ecleaz>
   13078:	405c                	lw	a5,4(s0)
   1307a:	03800713          	li	a4,56
   1307e:	14e78c63          	beq	a5,a4,131d6 <emdnorm+0x1e2>
   13082:	10f74c63          	blt	a4,a5,1319a <emdnorm+0x1a6>
   13086:	4761                	li	a4,24
   13088:	16e78d63          	beq	a5,a4,13202 <emdnorm+0x20e>
   1308c:	03500713          	li	a4,53
   13090:	16e78063          	beq	a5,a4,131f0 <emdnorm+0x1fc>
   13094:	80010737          	lui	a4,0x80010
   13098:	377d                	addiw	a4,a4,-1
   1309a:	c858                	sw	a4,20(s0)
   1309c:	4705                	li	a4,1
   1309e:	00e41c23          	sh	a4,24(s0)
   130a2:	472d                	li	a4,11
   130a4:	1702                	slli	a4,a4,0x20
   130a6:	0731                	addi	a4,a4,12
   130a8:	e418                	sd	a4,8(s0)
   130aa:	4458                	lw	a4,12(s0)
   130ac:	01845683          	lhu	a3,24(s0)
   130b0:	0721                	addi	a4,a4,8
   130b2:	0706                	slli	a4,a4,0x1
   130b4:	9722                	add	a4,a4,s0
   130b6:	00d71523          	sh	a3,10(a4) # ffffffff8001000a <__global_pointer$+0xffffffff7ffb2d52>
   130ba:	c01c                	sw	a5,0(s0)
   130bc:	01204f63          	bgtz	s2,130da <emdnorm+0xe6>
   130c0:	4058                	lw	a4,4(s0)
   130c2:	09000793          	li	a5,144
   130c6:	00f70a63          	beq	a4,a5,130da <emdnorm+0xe6>
   130ca:	0184d783          	lhu	a5,24(s1)
   130ce:	8526                	mv	a0,s1
   130d0:	8b85                	andi	a5,a5,1
   130d2:	00f9e9b3          	or	s3,s3,a5
   130d6:	8f7ff0ef          	jal	ra,129cc <eshdn1>
   130da:	441c                	lw	a5,8(s0)
   130dc:	01445603          	lhu	a2,20(s0)
   130e0:	404c                	lw	a1,4(s0)
   130e2:	00179693          	slli	a3,a5,0x1
   130e6:	96a6                	add	a3,a3,s1
   130e8:	0006d703          	lhu	a4,0(a3)
   130ec:	8f71                	and	a4,a4,a2
   130ee:	08f00613          	li	a2,143
   130f2:	00b64863          	blt	a2,a1,13102 <emdnorm+0x10e>
   130f6:	2785                	addiw	a5,a5,1
   130f8:	45b1                	li	a1,12
   130fa:	0007861b          	sext.w	a2,a5
   130fe:	10c5df63          	ble	a2,a1,1321c <emdnorm+0x228>
   13102:	01445783          	lhu	a5,20(s0)
   13106:	0006d603          	lhu	a2,0(a3)
   1310a:	fff7c793          	not	a5,a5
   1310e:	8ff1                	and	a5,a5,a2
   13110:	00f69023          	sh	a5,0(a3)
   13114:	01645783          	lhu	a5,22(s0)
   13118:	00e7f6b3          	and	a3,a5,a4
   1311c:	ce99                	beqz	a3,1313a <emdnorm+0x146>
   1311e:	10e79d63          	bne	a5,a4,13238 <emdnorm+0x244>
   13122:	10099963          	bnez	s3,13234 <emdnorm+0x240>
   13126:	445c                	lw	a5,12(s0)
   13128:	01845703          	lhu	a4,24(s0)
   1312c:	0786                	slli	a5,a5,0x1
   1312e:	97a6                	add	a5,a5,s1
   13130:	0007d783          	lhu	a5,0(a5)
   13134:	8ff9                	and	a5,a5,a4
   13136:	10079163          	bnez	a5,13238 <emdnorm+0x244>
   1313a:	01204a63          	bgtz	s2,1314e <emdnorm+0x15a>
   1313e:	4058                	lw	a4,4(s0)
   13140:	09000793          	li	a5,144
   13144:	00f70563          	beq	a4,a5,1314e <emdnorm+0x15a>
   13148:	8526                	mv	a0,s1
   1314a:	8bbff0ef          	jal	ra,12a04 <eshup1>
   1314e:	0044d783          	lhu	a5,4(s1)
   13152:	c789                	beqz	a5,1315c <emdnorm+0x168>
   13154:	8526                	mv	a0,s1
   13156:	877ff0ef          	jal	ra,129cc <eshdn1>
   1315a:	0905                	addi	s2,s2,1
   1315c:	67a1                	lui	a5,0x8
   1315e:	00049c23          	sh	zero,24(s1)
   13162:	17f9                	addi	a5,a5,-2
   13164:	0f27d063          	ble	s2,a5,13244 <emdnorm+0x250>
   13168:	77e1                	lui	a5,0xffff8
   1316a:	fff7c793          	not	a5,a5
   1316e:	00f49123          	sh	a5,2(s1)
   13172:	00448793          	addi	a5,s1,4
   13176:	04e1                	addi	s1,s1,24
   13178:	00079023          	sh	zero,0(a5) # ffffffffffff8000 <__global_pointer$+0xfffffffffff9ad48>
   1317c:	0789                	addi	a5,a5,2
   1317e:	fef49de3          	bne	s1,a5,13178 <emdnorm+0x184>
   13182:	bd5d                	j	13038 <emdnorm+0x44>
   13184:	00248793          	addi	a5,s1,2
   13188:	04e9                	addi	s1,s1,26
   1318a:	0789                	addi	a5,a5,2
   1318c:	fe079f23          	sh	zero,-2(a5)
   13190:	fe979de3          	bne	a5,s1,1318a <emdnorm+0x196>
   13194:	b555                	j	13038 <emdnorm+0x44>
   13196:	4985                	li	s3,1
   13198:	b5f1                	j	13064 <emdnorm+0x70>
   1319a:	04000713          	li	a4,64
   1319e:	02e78163          	beq	a5,a4,131c0 <emdnorm+0x1cc>
   131a2:	07100713          	li	a4,113
   131a6:	eee797e3          	bne	a5,a4,13094 <emdnorm+0xa0>
   131aa:	40008737          	lui	a4,0x40008
   131ae:	377d                	addiw	a4,a4,-1
   131b0:	c858                	sw	a4,20(s0)
   131b2:	7761                	lui	a4,0xffff8
   131b4:	00e41c23          	sh	a4,24(s0)
   131b8:	4729                	li	a4,10
   131ba:	1702                	slli	a4,a4,0x20
   131bc:	0729                	addi	a4,a4,10
   131be:	b5ed                	j	130a8 <emdnorm+0xb4>
   131c0:	80010737          	lui	a4,0x80010
   131c4:	377d                	addiw	a4,a4,-1
   131c6:	c858                	sw	a4,20(s0)
   131c8:	4705                	li	a4,1
   131ca:	00e41c23          	sh	a4,24(s0)
   131ce:	470d                	li	a4,3
   131d0:	1706                	slli	a4,a4,0x21
   131d2:	071d                	addi	a4,a4,7
   131d4:	bdd1                	j	130a8 <emdnorm+0xb4>
   131d6:	00800737          	lui	a4,0x800
   131da:	0ff7071b          	addiw	a4,a4,255
   131de:	c858                	sw	a4,20(s0)
   131e0:	10000713          	li	a4,256
   131e4:	00e41c23          	sh	a4,24(s0)
   131e8:	4719                	li	a4,6
   131ea:	1702                	slli	a4,a4,0x20
   131ec:	0719                	addi	a4,a4,6
   131ee:	bd6d                	j	130a8 <emdnorm+0xb4>
   131f0:	04000737          	lui	a4,0x4000
   131f4:	7ff7071b          	addiw	a4,a4,2047
   131f8:	c858                	sw	a4,20(s0)
   131fa:	6705                	lui	a4,0x1
   131fc:	8007071b          	addiw	a4,a4,-2048
   13200:	b7d5                	j	131e4 <emdnorm+0x1f0>
   13202:	00800737          	lui	a4,0x800
   13206:	0ff7071b          	addiw	a4,a4,255
   1320a:	c858                	sw	a4,20(s0)
   1320c:	10000713          	li	a4,256
   13210:	00e41c23          	sh	a4,24(s0)
   13214:	4711                	li	a4,4
   13216:	1702                	slli	a4,a4,0x20
   13218:	0711                	addi	a4,a4,4
   1321a:	b579                	j	130a8 <emdnorm+0xb4>
   1321c:	00179613          	slli	a2,a5,0x1
   13220:	9626                	add	a2,a2,s1
   13222:	00065503          	lhu	a0,0(a2)
   13226:	c119                	beqz	a0,1322c <emdnorm+0x238>
   13228:	00176713          	ori	a4,a4,1
   1322c:	00061023          	sh	zero,0(a2)
   13230:	0785                	addi	a5,a5,1
   13232:	b5e1                	j	130fa <emdnorm+0x106>
   13234:	f00a13e3          	bnez	s4,1313a <emdnorm+0x146>
   13238:	85a6                	mv	a1,s1
   1323a:	01a40513          	addi	a0,s0,26
   1323e:	88bff0ef          	jal	ra,12ac8 <eaddm>
   13242:	bde5                	j	1313a <emdnorm+0x146>
   13244:	00095563          	bgez	s2,1324e <emdnorm+0x25a>
   13248:	00049123          	sh	zero,2(s1)
   1324c:	b3f5                	j	13038 <emdnorm+0x44>
   1324e:	01249123          	sh	s2,2(s1)
   13252:	b3dd                	j	13038 <emdnorm+0x44>

0000000000013254 <eiremain>:
   13254:	7139                	addi	sp,sp,-64
   13256:	e852                	sd	s4,16(sp)
   13258:	00255a03          	lhu	s4,2(a0)
   1325c:	f822                	sd	s0,48(sp)
   1325e:	842e                	mv	s0,a1
   13260:	fc06                	sd	ra,56(sp)
   13262:	f426                	sd	s1,40(sp)
   13264:	f04a                	sd	s2,32(sp)
   13266:	e456                	sd	s5,8(sp)
   13268:	e05a                	sd	s6,0(sp)
   1326a:	8932                	mv	s2,a2
   1326c:	03460b13          	addi	s6,a2,52
   13270:	ec4e                	sd	s3,24(sp)
   13272:	8aaa                	mv	s5,a0
   13274:	bc3ff0ef          	jal	ra,12e36 <enormlz>
   13278:	00245483          	lhu	s1,2(s0)
   1327c:	40aa0a33          	sub	s4,s4,a0
   13280:	8522                	mv	a0,s0
   13282:	bb5ff0ef          	jal	ra,12e36 <enormlz>
   13286:	8c89                	sub	s1,s1,a0
   13288:	855a                	mv	a0,s6
   1328a:	ee6ff0ef          	jal	ra,12970 <ecleaz>
   1328e:	0344d363          	ble	s4,s1,132b4 <eiremain+0x60>
   13292:	8522                	mv	a0,s0
   13294:	7442                	ld	s0,48(sp)
   13296:	70e2                	ld	ra,56(sp)
   13298:	69e2                	ld	s3,24(sp)
   1329a:	6a42                	ld	s4,16(sp)
   1329c:	6aa2                	ld	s5,8(sp)
   1329e:	6b02                	ld	s6,0(sp)
   132a0:	87ca                	mv	a5,s2
   132a2:	86a6                	mv	a3,s1
   132a4:	7902                	ld	s2,32(sp)
   132a6:	74a2                	ld	s1,40(sp)
   132a8:	4701                	li	a4,0
   132aa:	4601                	li	a2,0
   132ac:	4581                	li	a1,0
   132ae:	6121                	addi	sp,sp,64
   132b0:	d45ff06f          	j	12ff4 <emdnorm>
   132b4:	85a2                	mv	a1,s0
   132b6:	8556                	mv	a0,s5
   132b8:	ee8ff0ef          	jal	ra,129a0 <ecmpm>
   132bc:	4981                	li	s3,0
   132be:	00a04763          	bgtz	a0,132cc <eiremain+0x78>
   132c2:	85a2                	mv	a1,s0
   132c4:	8556                	mv	a0,s5
   132c6:	82bff0ef          	jal	ra,12af0 <esubm>
   132ca:	4985                	li	s3,1
   132cc:	855a                	mv	a0,s6
   132ce:	f36ff0ef          	jal	ra,12a04 <eshup1>
   132d2:	04c95783          	lhu	a5,76(s2)
   132d6:	8522                	mv	a0,s0
   132d8:	14fd                	addi	s1,s1,-1
   132da:	00f9e9b3          	or	s3,s3,a5
   132de:	05391623          	sh	s3,76(s2)
   132e2:	f22ff0ef          	jal	ra,12a04 <eshup1>
   132e6:	b765                	j	1328e <eiremain+0x3a>

00000000000132e8 <emul>:
   132e8:	7171                	addi	sp,sp,-176
   132ea:	f122                	sd	s0,160(sp)
   132ec:	ed26                	sd	s1,152(sp)
   132ee:	e54e                	sd	s3,136(sp)
   132f0:	e152                	sd	s4,128(sp)
   132f2:	f506                	sd	ra,168(sp)
   132f4:	e94a                	sd	s2,144(sp)
   132f6:	fcd6                	sd	s5,120(sp)
   132f8:	f8da                	sd	s6,112(sp)
   132fa:	f4de                	sd	s7,104(sp)
   132fc:	f0e2                	sd	s8,96(sp)
   132fe:	84aa                	mv	s1,a0
   13300:	842e                	mv	s0,a1
   13302:	89b2                	mv	s3,a2
   13304:	8a36                	mv	s4,a3
   13306:	887ff0ef          	jal	ra,12b8c <eisnan>
   1330a:	c10d                	beqz	a0,1332c <emul+0x44>
   1330c:	85ce                	mv	a1,s3
   1330e:	8526                	mv	a0,s1
   13310:	e44ff0ef          	jal	ra,12954 <emov>
   13314:	70aa                	ld	ra,168(sp)
   13316:	740a                	ld	s0,160(sp)
   13318:	64ea                	ld	s1,152(sp)
   1331a:	694a                	ld	s2,144(sp)
   1331c:	69aa                	ld	s3,136(sp)
   1331e:	6a0a                	ld	s4,128(sp)
   13320:	7ae6                	ld	s5,120(sp)
   13322:	7b46                	ld	s6,112(sp)
   13324:	7ba6                	ld	s7,104(sp)
   13326:	7c06                	ld	s8,96(sp)
   13328:	614d                	addi	sp,sp,176
   1332a:	8082                	ret
   1332c:	8522                	mv	a0,s0
   1332e:	85fff0ef          	jal	ra,12b8c <eisnan>
   13332:	c501                	beqz	a0,1333a <emul+0x52>
   13334:	85ce                	mv	a1,s3
   13336:	8522                	mv	a0,s0
   13338:	bfe1                	j	13310 <emul+0x28>
   1333a:	8526                	mv	a0,s1
   1333c:	9d7ff0ef          	jal	ra,12d12 <eisinf>
   13340:	e529                	bnez	a0,1338a <emul+0xa2>
   13342:	8522                	mv	a0,s0
   13344:	9cfff0ef          	jal	ra,12d12 <eisinf>
   13348:	c909                	beqz	a0,1335a <emul+0x72>
   1334a:	0005a5b7          	lui	a1,0x5a
   1334e:	ec858593          	addi	a1,a1,-312 # 59ec8 <ezero>
   13352:	8526                	mv	a0,s1
   13354:	91bff0ef          	jal	ra,12c6e <ecmp>
   13358:	c129                	beqz	a0,1339a <emul+0xb2>
   1335a:	8526                	mv	a0,s1
   1335c:	9b7ff0ef          	jal	ra,12d12 <eisinf>
   13360:	e509                	bnez	a0,1336a <emul+0x82>
   13362:	8522                	mv	a0,s0
   13364:	9afff0ef          	jal	ra,12d12 <eisinf>
   13368:	c121                	beqz	a0,133a8 <emul+0xc0>
   1336a:	8526                	mv	a0,s1
   1336c:	847ff0ef          	jal	ra,12bb2 <eisneg>
   13370:	84aa                	mv	s1,a0
   13372:	8522                	mv	a0,s0
   13374:	83fff0ef          	jal	ra,12bb2 <eisneg>
   13378:	02a48563          	beq	s1,a0,133a2 <emul+0xba>
   1337c:	77e1                	lui	a5,0xffff8
   1337e:	00f99923          	sh	a5,18(s3)
   13382:	854e                	mv	a0,s3
   13384:	9b3ff0ef          	jal	ra,12d36 <einfin.isra.2>
   13388:	b771                	j	13314 <emul+0x2c>
   1338a:	0005a5b7          	lui	a1,0x5a
   1338e:	ec858593          	addi	a1,a1,-312 # 59ec8 <ezero>
   13392:	8522                	mv	a0,s0
   13394:	8dbff0ef          	jal	ra,12c6e <ecmp>
   13398:	f54d                	bnez	a0,13342 <emul+0x5a>
   1339a:	854e                	mv	a0,s3
   1339c:	b31ff0ef          	jal	ra,12ecc <enan.constprop.12>
   133a0:	bf95                	j	13314 <emul+0x2c>
   133a2:	00099923          	sh	zero,18(s3)
   133a6:	bff1                	j	13382 <emul+0x9a>
   133a8:	8526                	mv	a0,s1
   133aa:	858a                	mv	a1,sp
   133ac:	829ff0ef          	jal	ra,12bd4 <emovi>
   133b0:	8522                	mv	a0,s0
   133b2:	100c                	addi	a1,sp,32
   133b4:	821ff0ef          	jal	ra,12bd4 <emovi>
   133b8:	00215403          	lhu	s0,2(sp)
   133bc:	02215483          	lhu	s1,34(sp)
   133c0:	c84d                	beqz	s0,13472 <emul+0x18a>
   133c2:	02215783          	lhu	a5,34(sp)
   133c6:	8b26                	mv	s6,s1
   133c8:	cfcd                	beqz	a5,13482 <emul+0x19a>
   133ca:	5782                	lw	a5,32(sp)
   133cc:	034a0913          	addi	s2,s4,52
   133d0:	04ea0b93          	addi	s7,s4,78
   133d4:	02fa2a23          	sw	a5,52(s4)
   133d8:	038a0793          	addi	a5,s4,56
   133dc:	00079023          	sh	zero,0(a5) # ffffffffffff8000 <__global_pointer$+0xfffffffffff9ad48>
   133e0:	0789                	addi	a5,a5,2
   133e2:	ff779de3          	bne	a5,s7,133dc <emul+0xf4>
   133e6:	848a                	mv	s1,sp
   133e8:	fec10c13          	addi	s8,sp,-20
   133ec:	4a81                	li	s5,0
   133ee:	0184d503          	lhu	a0,24(s1)
   133f2:	c909                	beqz	a0,13404 <emul+0x11c>
   133f4:	100c                	addi	a1,sp,32
   133f6:	0090                	addi	a2,sp,64
   133f8:	f20ff0ef          	jal	ra,12b18 <m16m>
   133fc:	85ca                	mv	a1,s2
   133fe:	0088                	addi	a0,sp,64
   13400:	ec8ff0ef          	jal	ra,12ac8 <eaddm>
   13404:	04ca5783          	lhu	a5,76(s4)
   13408:	854a                	mv	a0,s2
   1340a:	14f9                	addi	s1,s1,-2
   1340c:	00faeab3          	or	s5,s5,a5
   13410:	e9cff0ef          	jal	ra,12aac <eshdn6>
   13414:	fc9c1de3          	bne	s8,s1,133ee <emul+0x106>
   13418:	85ca                	mv	a1,s2
   1341a:	101c                	addi	a5,sp,32
   1341c:	0005d703          	lhu	a4,0(a1)
   13420:	0589                	addi	a1,a1,2
   13422:	0789                	addi	a5,a5,2
   13424:	fee79f23          	sh	a4,-2(a5)
   13428:	ff759ae3          	bne	a1,s7,1341c <emul+0x134>
   1342c:	76f1                	lui	a3,0xffffc
   1342e:	945a                	add	s0,s0,s6
   13430:	0689                	addi	a3,a3,2
   13432:	87d2                	mv	a5,s4
   13434:	04000713          	li	a4,64
   13438:	96a2                	add	a3,a3,s0
   1343a:	4601                	li	a2,0
   1343c:	85d6                	mv	a1,s5
   1343e:	1008                	addi	a0,sp,32
   13440:	bb5ff0ef          	jal	ra,12ff4 <emdnorm>
   13444:	00015703          	lhu	a4,0(sp)
   13448:	02015783          	lhu	a5,32(sp)
   1344c:	04f71963          	bne	a4,a5,1349e <emul+0x1b6>
   13450:	02011023          	sh	zero,32(sp)
   13454:	85ce                	mv	a1,s3
   13456:	1008                	addi	a0,sp,32
   13458:	a8dff0ef          	jal	ra,12ee4 <emovo.isra.6>
   1345c:	bd65                	j	13314 <emul+0x2c>
   1345e:	0789                	addi	a5,a5,2
   13460:	0027d683          	lhu	a3,2(a5)
   13464:	ca89                	beqz	a3,13476 <emul+0x18e>
   13466:	850a                	mv	a0,sp
   13468:	9cfff0ef          	jal	ra,12e36 <enormlz>
   1346c:	40a00433          	neg	s0,a0
   13470:	bf89                	j	133c2 <emul+0xda>
   13472:	878a                	mv	a5,sp
   13474:	0858                	addi	a4,sp,20
   13476:	fee794e3          	bne	a5,a4,1345e <emul+0x176>
   1347a:	854e                	mv	a0,s3
   1347c:	cc8ff0ef          	jal	ra,12944 <eclear>
   13480:	bd51                	j	13314 <emul+0x2c>
   13482:	101c                	addi	a5,sp,32
   13484:	1858                	addi	a4,sp,52
   13486:	fee78ae3          	beq	a5,a4,1347a <emul+0x192>
   1348a:	0789                	addi	a5,a5,2
   1348c:	0027d683          	lhu	a3,2(a5)
   13490:	dafd                	beqz	a3,13486 <emul+0x19e>
   13492:	1008                	addi	a0,sp,32
   13494:	9a3ff0ef          	jal	ra,12e36 <enormlz>
   13498:	40a48b33          	sub	s6,s1,a0
   1349c:	b73d                	j	133ca <emul+0xe2>
   1349e:	57fd                	li	a5,-1
   134a0:	02f11023          	sh	a5,32(sp)
   134a4:	bf45                	j	13454 <emul+0x16c>

00000000000134a6 <ediv>:
   134a6:	7131                	addi	sp,sp,-192
   134a8:	f922                	sd	s0,176(sp)
   134aa:	f526                	sd	s1,168(sp)
   134ac:	f14a                	sd	s2,160(sp)
   134ae:	e556                	sd	s5,136(sp)
   134b0:	fd06                	sd	ra,184(sp)
   134b2:	ed4e                	sd	s3,152(sp)
   134b4:	e952                	sd	s4,144(sp)
   134b6:	e15a                	sd	s6,128(sp)
   134b8:	fcde                	sd	s7,120(sp)
   134ba:	f8e2                	sd	s8,112(sp)
   134bc:	f4e6                	sd	s9,104(sp)
   134be:	84aa                	mv	s1,a0
   134c0:	842e                	mv	s0,a1
   134c2:	8932                	mv	s2,a2
   134c4:	8ab6                	mv	s5,a3
   134c6:	ec6ff0ef          	jal	ra,12b8c <eisnan>
   134ca:	c115                	beqz	a0,134ee <ediv+0x48>
   134cc:	85ca                	mv	a1,s2
   134ce:	8526                	mv	a0,s1
   134d0:	c84ff0ef          	jal	ra,12954 <emov>
   134d4:	70ea                	ld	ra,184(sp)
   134d6:	744a                	ld	s0,176(sp)
   134d8:	74aa                	ld	s1,168(sp)
   134da:	790a                	ld	s2,160(sp)
   134dc:	69ea                	ld	s3,152(sp)
   134de:	6a4a                	ld	s4,144(sp)
   134e0:	6aaa                	ld	s5,136(sp)
   134e2:	6b0a                	ld	s6,128(sp)
   134e4:	7be6                	ld	s7,120(sp)
   134e6:	7c46                	ld	s8,112(sp)
   134e8:	7ca6                	ld	s9,104(sp)
   134ea:	6129                	addi	sp,sp,192
   134ec:	8082                	ret
   134ee:	8522                	mv	a0,s0
   134f0:	e9cff0ef          	jal	ra,12b8c <eisnan>
   134f4:	c501                	beqz	a0,134fc <ediv+0x56>
   134f6:	85ca                	mv	a1,s2
   134f8:	8522                	mv	a0,s0
   134fa:	bfd9                	j	134d0 <ediv+0x2a>
   134fc:	0005a9b7          	lui	s3,0x5a
   13500:	ec898593          	addi	a1,s3,-312 # 59ec8 <ezero>
   13504:	8526                	mv	a0,s1
   13506:	f68ff0ef          	jal	ra,12c6e <ecmp>
   1350a:	c91d                	beqz	a0,13540 <ediv+0x9a>
   1350c:	8526                	mv	a0,s1
   1350e:	805ff0ef          	jal	ra,12d12 <eisinf>
   13512:	89aa                	mv	s3,a0
   13514:	8522                	mv	a0,s0
   13516:	ffcff0ef          	jal	ra,12d12 <eisinf>
   1351a:	02099d63          	bnez	s3,13554 <ediv+0xae>
   1351e:	c121                	beqz	a0,1355e <ediv+0xb8>
   13520:	8526                	mv	a0,s1
   13522:	e90ff0ef          	jal	ra,12bb2 <eisneg>
   13526:	84aa                	mv	s1,a0
   13528:	8522                	mv	a0,s0
   1352a:	e88ff0ef          	jal	ra,12bb2 <eisneg>
   1352e:	18a48563          	beq	s1,a0,136b8 <ediv+0x212>
   13532:	77e1                	lui	a5,0xffff8
   13534:	00f91923          	sh	a5,18(s2)
   13538:	854a                	mv	a0,s2
   1353a:	ffcff0ef          	jal	ra,12d36 <einfin.isra.2>
   1353e:	bf59                	j	134d4 <ediv+0x2e>
   13540:	ec898593          	addi	a1,s3,-312
   13544:	8522                	mv	a0,s0
   13546:	f28ff0ef          	jal	ra,12c6e <ecmp>
   1354a:	f169                	bnez	a0,1350c <ediv+0x66>
   1354c:	854a                	mv	a0,s2
   1354e:	97fff0ef          	jal	ra,12ecc <enan.constprop.12>
   13552:	b749                	j	134d4 <ediv+0x2e>
   13554:	fd65                	bnez	a0,1354c <ediv+0xa6>
   13556:	854a                	mv	a0,s2
   13558:	becff0ef          	jal	ra,12944 <eclear>
   1355c:	bfa5                	j	134d4 <ediv+0x2e>
   1355e:	8526                	mv	a0,s1
   13560:	858a                	mv	a1,sp
   13562:	e72ff0ef          	jal	ra,12bd4 <emovi>
   13566:	8522                	mv	a0,s0
   13568:	100c                	addi	a1,sp,32
   1356a:	e6aff0ef          	jal	ra,12bd4 <emovi>
   1356e:	02215483          	lhu	s1,34(sp)
   13572:	00215403          	lhu	s0,2(sp)
   13576:	0e048f63          	beqz	s1,13674 <ediv+0x1ce>
   1357a:	00215783          	lhu	a5,2(sp)
   1357e:	8ba2                	mv	s7,s0
   13580:	12078263          	beqz	a5,136a4 <ediv+0x1fe>
   13584:	5702                	lw	a4,32(sp)
   13586:	038a8793          	addi	a5,s5,56
   1358a:	04ea8b13          	addi	s6,s5,78
   1358e:	02eaaa23          	sw	a4,52(s5)
   13592:	89be                	mv	s3,a5
   13594:	0789                	addi	a5,a5,2
   13596:	fe079f23          	sh	zero,-2(a5) # ffffffffffff7ffe <__global_pointer$+0xfffffffffff9ad46>
   1359a:	ff679de3          	bne	a5,s6,13594 <ediv+0xee>
   1359e:	1008                	addi	a0,sp,32
   135a0:	c2cff0ef          	jal	ra,129cc <eshdn1>
   135a4:	00615c03          	lhu	s8,6(sp)
   135a8:	6a41                	lui	s4,0x10
   135aa:	1a7d                	addi	s4,s4,-1
   135ac:	034c0cb3          	mul	s9,s8,s4
   135b0:	02415783          	lhu	a5,36(sp)
   135b4:	02615403          	lhu	s0,38(sp)
   135b8:	07c2                	slli	a5,a5,0x10
   135ba:	97a2                	add	a5,a5,s0
   135bc:	8452                	mv	s0,s4
   135be:	00fce663          	bltu	s9,a5,135ca <ediv+0x124>
   135c2:	0387d433          	divu	s0,a5,s8
   135c6:	1442                	slli	s0,s0,0x30
   135c8:	9041                	srli	s0,s0,0x30
   135ca:	858a                	mv	a1,sp
   135cc:	8522                	mv	a0,s0
   135ce:	0090                	addi	a2,sp,64
   135d0:	d48ff0ef          	jal	ra,12b18 <m16m>
   135d4:	100c                	addi	a1,sp,32
   135d6:	0088                	addi	a0,sp,64
   135d8:	bc8ff0ef          	jal	ra,129a0 <ecmpm>
   135dc:	00a05f63          	blez	a0,135fa <ediv+0x154>
   135e0:	008c                	addi	a1,sp,64
   135e2:	850a                	mv	a0,sp
   135e4:	d0cff0ef          	jal	ra,12af0 <esubm>
   135e8:	100c                	addi	a1,sp,32
   135ea:	0088                	addi	a0,sp,64
   135ec:	bb4ff0ef          	jal	ra,129a0 <ecmpm>
   135f0:	0ca04763          	bgtz	a0,136be <ediv+0x218>
   135f4:	347d                	addiw	s0,s0,-1
   135f6:	1442                	slli	s0,s0,0x30
   135f8:	9041                	srli	s0,s0,0x30
   135fa:	100c                	addi	a1,sp,32
   135fc:	0088                	addi	a0,sp,64
   135fe:	cf2ff0ef          	jal	ra,12af0 <esubm>
   13602:	1008                	addi	a0,sp,32
   13604:	00899023          	sh	s0,0(s3)
   13608:	0989                	addi	s3,s3,2
   1360a:	c86ff0ef          	jal	ra,12a90 <eshup6>
   1360e:	fb3b11e3          	bne	s6,s3,135b0 <ediv+0x10a>
   13612:	1018                	addi	a4,sp,32
   13614:	03610693          	addi	a3,sp,54
   13618:	87ba                	mv	a5,a4
   1361a:	4581                	li	a1,0
   1361c:	0047d603          	lhu	a2,4(a5)
   13620:	0789                	addi	a5,a5,2
   13622:	8dd1                	or	a1,a1,a2
   13624:	fef69ce3          	bne	a3,a5,1361c <ediv+0x176>
   13628:	2581                	sext.w	a1,a1
   1362a:	00b035b3          	snez	a1,a1
   1362e:	034a8793          	addi	a5,s5,52
   13632:	0007d683          	lhu	a3,0(a5)
   13636:	0789                	addi	a5,a5,2
   13638:	0709                	addi	a4,a4,2
   1363a:	fed71f23          	sh	a3,-2(a4) # 7ffffe <__global_pointer$+0x7a2d46>
   1363e:	fefb1ae3          	bne	s6,a5,13632 <ediv+0x18c>
   13642:	6691                	lui	a3,0x4
   13644:	417484b3          	sub	s1,s1,s7
   13648:	16fd                	addi	a3,a3,-1
   1364a:	87d6                	mv	a5,s5
   1364c:	04000713          	li	a4,64
   13650:	96a6                	add	a3,a3,s1
   13652:	4601                	li	a2,0
   13654:	1008                	addi	a0,sp,32
   13656:	99fff0ef          	jal	ra,12ff4 <emdnorm>
   1365a:	00015703          	lhu	a4,0(sp)
   1365e:	02015783          	lhu	a5,32(sp)
   13662:	06f71663          	bne	a4,a5,136ce <ediv+0x228>
   13666:	02011023          	sh	zero,32(sp)
   1366a:	85ca                	mv	a1,s2
   1366c:	1008                	addi	a0,sp,32
   1366e:	877ff0ef          	jal	ra,12ee4 <emovo.isra.6>
   13672:	b58d                	j	134d4 <ediv+0x2e>
   13674:	101c                	addi	a5,sp,32
   13676:	1858                	addi	a4,sp,52
   13678:	ece78fe3          	beq	a5,a4,13556 <ediv+0xb0>
   1367c:	0789                	addi	a5,a5,2
   1367e:	0027d683          	lhu	a3,2(a5)
   13682:	dafd                	beqz	a3,13678 <ediv+0x1d2>
   13684:	1008                	addi	a0,sp,32
   13686:	fb0ff0ef          	jal	ra,12e36 <enormlz>
   1368a:	40a004b3          	neg	s1,a0
   1368e:	b5f5                	j	1357a <ediv+0xd4>
   13690:	0789                	addi	a5,a5,2
   13692:	0027d683          	lhu	a3,2(a5)
   13696:	ca89                	beqz	a3,136a8 <ediv+0x202>
   13698:	850a                	mv	a0,sp
   1369a:	f9cff0ef          	jal	ra,12e36 <enormlz>
   1369e:	40a40bb3          	sub	s7,s0,a0
   136a2:	b5cd                	j	13584 <ediv+0xde>
   136a4:	878a                	mv	a5,sp
   136a6:	0858                	addi	a4,sp,20
   136a8:	fee794e3          	bne	a5,a4,13690 <ediv+0x1ea>
   136ac:	00015703          	lhu	a4,0(sp)
   136b0:	02015783          	lhu	a5,32(sp)
   136b4:	e6f71fe3          	bne	a4,a5,13532 <ediv+0x8c>
   136b8:	00091923          	sh	zero,18(s2)
   136bc:	bdb5                	j	13538 <ediv+0x92>
   136be:	3479                	addiw	s0,s0,-2
   136c0:	1442                	slli	s0,s0,0x30
   136c2:	008c                	addi	a1,sp,64
   136c4:	850a                	mv	a0,sp
   136c6:	9041                	srli	s0,s0,0x30
   136c8:	c28ff0ef          	jal	ra,12af0 <esubm>
   136cc:	b73d                	j	135fa <ediv+0x154>
   136ce:	57fd                	li	a5,-1
   136d0:	02f11023          	sh	a5,32(sp)
   136d4:	bf59                	j	1366a <ediv+0x1c4>

00000000000136d6 <_ldtoa_r>:
   136d6:	db010113          	addi	sp,sp,-592
   136da:	21813023          	sd	s8,512(sp)
   136de:	8c3e                	mv	s8,a5
   136e0:	09100793          	li	a5,145
   136e4:	e0ae                	sd	a1,64(sp)
   136e6:	1782                	slli	a5,a5,0x20
   136e8:	712c                	ld	a1,96(a0)
   136ea:	17fd                	addi	a5,a5,-1
   136ec:	24813023          	sd	s0,576(sp)
   136f0:	23413023          	sd	s4,544(sp)
   136f4:	21613823          	sd	s6,528(sp)
   136f8:	21713423          	sd	s7,520(sp)
   136fc:	24113423          	sd	ra,584(sp)
   13700:	22913c23          	sd	s1,568(sp)
   13704:	23213823          	sd	s2,560(sp)
   13708:	23313423          	sd	s3,552(sp)
   1370c:	21513c23          	sd	s5,536(sp)
   13710:	ffe6                	sd	s9,504(sp)
   13712:	fbea                	sd	s10,496(sp)
   13714:	f7ee                	sd	s11,488(sp)
   13716:	f046                	sd	a7,32(sp)
   13718:	e4b2                	sd	a2,72(sp)
   1371a:	eb3e                	sd	a5,400(sp)
   1371c:	8a2a                	mv	s4,a0
   1371e:	8b36                	mv	s6,a3
   13720:	8bba                	mv	s7,a4
   13722:	8442                	mv	s0,a6
   13724:	c999                	beqz	a1,1373a <_ldtoa_r+0x64>
   13726:	5538                	lw	a4,104(a0)
   13728:	4785                	li	a5,1
   1372a:	00e797bb          	sllw	a5,a5,a4
   1372e:	c598                	sw	a4,8(a1)
   13730:	c5dc                	sw	a5,12(a1)
   13732:	080010ef          	jal	ra,147b2 <_Bfree>
   13736:	060a3023          	sd	zero,96(s4) # 10060 <main-0x50>
   1373a:	0088                	addi	a0,sp,64
   1373c:	188c                	addi	a1,sp,112
   1373e:	ff8ff0ef          	jal	ra,12f36 <e113toe.isra.8>
   13742:	1888                	addi	a0,sp,112
   13744:	c6eff0ef          	jal	ra,12bb2 <eisneg>
   13748:	cd4d                	beqz	a0,13802 <_ldtoa_r+0x12c>
   1374a:	4785                	li	a5,1
   1374c:	c01c                	sw	a5,0(s0)
   1374e:	478d                	li	a5,3
   13750:	0afb0c63          	beq	s6,a5,13808 <_ldtoa_r+0x132>
   13754:	49d1                	li	s3,20
   13756:	000b0c63          	beqz	s6,1376e <_ldtoa_r+0x98>
   1375a:	fffb879b          	addiw	a5,s7,-1
   1375e:	02a00713          	li	a4,42
   13762:	0007899b          	sext.w	s3,a5
   13766:	00f75463          	ble	a5,a4,1376e <_ldtoa_r+0x98>
   1376a:	02a00993          	li	s3,42
   1376e:	19412783          	lw	a5,404(sp)
   13772:	1888                	addi	a0,sp,112
   13774:	f43e                	sd	a5,40(sp)
   13776:	c16ff0ef          	jal	ra,12b8c <eisnan>
   1377a:	842a                	mv	s0,a0
   1377c:	c941                	beqz	a0,1380c <_ldtoa_r+0x136>
   1377e:	0005a5b7          	lui	a1,0x5a
   13782:	13058593          	addi	a1,a1,304 # 5a130 <emtens+0x108>
   13786:	0a88                	addi	a0,sp,336
   13788:	6409                	lui	s0,0x2
   1378a:	669010ef          	jal	ra,155f2 <sprintf>
   1378e:	70f40413          	addi	s0,s0,1807 # 270f <main-0xd9a1>
   13792:	77a2                	ld	a5,40(sp)
   13794:	1888                	addi	a0,sp,112
   13796:	1a812023          	sw	s0,416(sp)
   1379a:	18f12a23          	sw	a5,404(sp)
   1379e:	d74ff0ef          	jal	ra,12d12 <eisinf>
   137a2:	15010913          	addi	s2,sp,336
   137a6:	e511                	bnez	a0,137b2 <_ldtoa_r+0xdc>
   137a8:	1888                	addi	a0,sp,112
   137aa:	be2ff0ef          	jal	ra,12b8c <eisnan>
   137ae:	6e050663          	beqz	a0,13e9a <_ldtoa_r+0x7c4>
   137b2:	6789                	lui	a5,0x2
   137b4:	70f7879b          	addiw	a5,a5,1807
   137b8:	00fc2023          	sw	a5,0(s8)
   137bc:	87ca                	mv	a5,s2
   137be:	02000613          	li	a2,32
   137c2:	02d00693          	li	a3,45
   137c6:	0007c703          	lbu	a4,0(a5) # 2000 <main-0xe0b0>
   137ca:	70c70d63          	beq	a4,a2,13ee4 <_ldtoa_r+0x80e>
   137ce:	70d70b63          	beq	a4,a3,13ee4 <_ldtoa_r+0x80e>
   137d2:	84ca                	mv	s1,s2
   137d4:	0785                	addi	a5,a5,1
   137d6:	fff7c703          	lbu	a4,-1(a5)
   137da:	00148693          	addi	a3,s1,1
   137de:	fee68fa3          	sb	a4,-1(a3) # 3fff <main-0xc0b1>
   137e2:	70071463          	bnez	a4,13eea <_ldtoa_r+0x814>
   137e6:	4709                	li	a4,2
   137e8:	4785                	li	a5,1
   137ea:	00eb0863          	beq	s6,a4,137fa <_ldtoa_r+0x124>
   137ee:	0009879b          	sext.w	a5,s3
   137f2:	0089d463          	ble	s0,s3,137fa <_ldtoa_r+0x124>
   137f6:	0004079b          	sext.w	a5,s0
   137fa:	03000693          	li	a3,48
   137fe:	6f80006f          	j	13ef6 <_ldtoa_r+0x820>
   13802:	00042023          	sw	zero,0(s0)
   13806:	b7a1                	j	1374e <_ldtoa_r+0x78>
   13808:	87de                	mv	a5,s7
   1380a:	bf91                	j	1375e <_ldtoa_r+0x88>
   1380c:	09000793          	li	a5,144
   13810:	090c                	addi	a1,sp,144
   13812:	1888                	addi	a0,sp,112
   13814:	18f12a23          	sw	a5,404(sp)
   13818:	93cff0ef          	jal	ra,12954 <emov>
   1381c:	0a215783          	lhu	a5,162(sp)
   13820:	e402                	sd	zero,8(sp)
   13822:	0107971b          	slliw	a4,a5,0x10
   13826:	4107571b          	sraiw	a4,a4,0x10
   1382a:	02071693          	slli	a3,a4,0x20
   1382e:	0006d963          	bgez	a3,13840 <_ldtoa_r+0x16a>
   13832:	17c6                	slli	a5,a5,0x31
   13834:	93c5                	srli	a5,a5,0x31
   13836:	0af11123          	sh	a5,162(sp)
   1383a:	67c1                	lui	a5,0x10
   1383c:	17fd                	addi	a5,a5,-1
   1383e:	e43e                	sd	a5,8(sp)
   13840:	0005a4b7          	lui	s1,0x5a
   13844:	ec848513          	addi	a0,s1,-312 # 59ec8 <ezero>
   13848:	190c                	addi	a1,sp,176
   1384a:	12050513          	addi	a0,a0,288
   1384e:	906ff0ef          	jal	ra,12954 <emov>
   13852:	0a215703          	lhu	a4,162(sp)
   13856:	ec26                	sd	s1,24(sp)
   13858:	0005a937          	lui	s2,0x5a
   1385c:	ec848493          	addi	s1,s1,-312
   13860:	fe890913          	addi	s2,s2,-24 # 59fe8 <eone>
   13864:	72071d63          	bnez	a4,13f9e <_ldtoa_r+0x8c8>
   13868:	091c                	addi	a5,sp,144
   1386a:	0a210713          	addi	a4,sp,162
   1386e:	0007d683          	lhu	a3,0(a5) # 10000 <main-0xb0>
   13872:	eae1                	bnez	a3,13942 <_ldtoa_r+0x26c>
   13874:	0789                	addi	a5,a5,2
   13876:	fef71ce3          	bne	a4,a5,1386e <_ldtoa_r+0x198>
   1387a:	198c                	addi	a1,sp,240
   1387c:	1908                	addi	a0,sp,176
   1387e:	b56ff0ef          	jal	ra,12bd4 <emovi>
   13882:	190c                	addi	a1,sp,176
   13884:	1988                	addi	a0,sp,240
   13886:	8faff0ef          	jal	ra,12980 <emovz>
   1388a:	198c                	addi	a1,sp,240
   1388c:	0908                	addi	a0,sp,144
   1388e:	b46ff0ef          	jal	ra,12bd4 <emovi>
   13892:	090c                	addi	a1,sp,144
   13894:	1988                	addi	a0,sp,240
   13896:	8eaff0ef          	jal	ra,12980 <emovz>
   1389a:	0b10                	addi	a2,sp,400
   1389c:	090c                	addi	a1,sp,144
   1389e:	1908                	addi	a0,sp,176
   138a0:	9b5ff0ef          	jal	ra,13254 <eiremain>
   138a4:	1dc15483          	lhu	s1,476(sp)
   138a8:	e889                	bnez	s1,138ba <_ldtoa_r+0x1e4>
   138aa:	67e2                	ld	a5,24(sp)
   138ac:	0908                	addi	a0,sp,144
   138ae:	ec878593          	addi	a1,a5,-312
   138b2:	bbcff0ef          	jal	ra,12c6e <ecmp>
   138b6:	4a051663          	bnez	a0,13d62 <_ldtoa_r+0x68c>
   138ba:	67a2                	ld	a5,8(sp)
   138bc:	4c078d63          	beqz	a5,13d96 <_ldtoa_r+0x6c0>
   138c0:	02d00793          	li	a5,45
   138c4:	14f10823          	sb	a5,336(sp)
   138c8:	478d                	li	a5,3
   138ca:	894e                	mv	s2,s3
   138cc:	00fb1b63          	bne	s6,a5,138e2 <_ldtoa_r+0x20c>
   138d0:	0089873b          	addw	a4,s3,s0
   138d4:	02a00793          	li	a5,42
   138d8:	893a                	mv	s2,a4
   138da:	00e7d463          	ble	a4,a5,138e2 <_ldtoa_r+0x20c>
   138de:	02a00913          	li	s2,42
   138e2:	47a9                	li	a5,10
   138e4:	4af49c63          	bne	s1,a5,13d9c <_ldtoa_r+0x6c6>
   138e8:	03100793          	li	a5,49
   138ec:	14f108a3          	sb	a5,337(sp)
   138f0:	02e00793          	li	a5,46
   138f4:	14f10923          	sb	a5,338(sp)
   138f8:	15310a93          	addi	s5,sp,339
   138fc:	01205963          	blez	s2,1390e <_ldtoa_r+0x238>
   13900:	03000793          	li	a5,48
   13904:	14f109a3          	sb	a5,339(sp)
   13908:	397d                	addiw	s2,s2,-1
   1390a:	15410a93          	addi	s5,sp,340
   1390e:	2405                	addiw	s0,s0,1
   13910:	4a095063          	bgez	s2,13db0 <_ldtoa_r+0x6da>
   13914:	0005a5b7          	lui	a1,0x5a
   13918:	8622                	mv	a2,s0
   1391a:	16058593          	addi	a1,a1,352 # 5a160 <emtens+0x138>
   1391e:	8556                	mv	a0,s5
   13920:	4d3010ef          	jal	ra,155f2 <sprintf>
   13924:	b5bd                	j	13792 <_ldtoa_r+0xbc>
   13926:	0005a5b7          	lui	a1,0x5a
   1392a:	14858593          	addi	a1,a1,328 # 5a148 <emtens+0x120>
   1392e:	bda1                	j	13786 <_ldtoa_r+0xb0>
   13930:	0a011783          	lh	a5,160(sp)
   13934:	0007c763          	bltz	a5,13942 <_ldtoa_r+0x26c>
   13938:	0005a5b7          	lui	a1,0x5a
   1393c:	15858593          	addi	a1,a1,344 # 5a158 <emtens+0x130>
   13940:	b599                	j	13786 <_ldtoa_r+0xb0>
   13942:	090c                	addi	a1,sp,144
   13944:	854a                	mv	a0,s2
   13946:	b28ff0ef          	jal	ra,12c6e <ecmp>
   1394a:	d905                	beqz	a0,1387a <_ldtoa_r+0x1a4>
   1394c:	30055063          	bgez	a0,13c4c <_ldtoa_r+0x576>
   13950:	098c                	addi	a1,sp,208
   13952:	0908                	addi	a0,sp,144
   13954:	800ff0ef          	jal	ra,12954 <emov>
   13958:	6791                	lui	a5,0x4
   1395a:	08e7879b          	addiw	a5,a5,142
   1395e:	0ef11123          	sh	a5,226(sp)
   13962:	47c1                	li	a5,16
   13964:	e83e                	sd	a5,16(sp)
   13966:	67a1                	lui	a5,0x8
   13968:	17fd                	addi	a5,a5,-1
   1396a:	f83e                	sd	a5,48(sp)
   1396c:	77f1                	lui	a5,0xffffc
   1396e:	2789                	addiw	a5,a5,2
   13970:	0b848c93          	addi	s9,s1,184
   13974:	de3e                	sw	a5,60(sp)
   13976:	0b14                	addi	a3,sp,400
   13978:	1910                	addi	a2,sp,176
   1397a:	098c                	addi	a1,sp,208
   1397c:	8566                	mv	a0,s9
   1397e:	b29ff0ef          	jal	ra,134a6 <ediv>
   13982:	08ac                	addi	a1,sp,88
   13984:	1908                	addi	a0,sp,176
   13986:	fcffe0ef          	jal	ra,12954 <emov>
   1398a:	77c2                	ld	a5,48(sp)
   1398c:	06a15a83          	lhu	s5,106(sp)
   13990:	00fafdb3          	and	s11,s5,a5
   13994:	57f2                	lw	a5,60(sp)
   13996:	00fd87bb          	addw	a5,s11,a5
   1399a:	8dbe                	mv	s11,a5
   1399c:	04f04163          	bgtz	a5,139de <_ldtoa_r+0x308>
   139a0:	1988                	addi	a0,sp,240
   139a2:	fa3fe0ef          	jal	ra,12944 <eclear>
   139a6:	010a9a9b          	slliw	s5,s5,0x10
   139aa:	410ada9b          	sraiw	s5,s5,0x10
   139ae:	020a9793          	slli	a5,s5,0x20
   139b2:	0a07df63          	bgez	a5,13a70 <_ldtoa_r+0x39a>
   139b6:	4781                	li	a5,0
   139b8:	08b8                	addi	a4,sp,88
   139ba:	973e                	add	a4,a4,a5
   139bc:	00075683          	lhu	a3,0(a4)
   139c0:	1998                	addi	a4,sp,240
   139c2:	973e                	add	a4,a4,a5
   139c4:	00075703          	lhu	a4,0(a4)
   139c8:	26e68d63          	beq	a3,a4,13c42 <_ldtoa_r+0x56c>
   139cc:	854a                	mv	a0,s2
   139ce:	9beff0ef          	jal	ra,12b8c <eisnan>
   139d2:	c12d                	beqz	a0,13a34 <_ldtoa_r+0x35e>
   139d4:	198c                	addi	a1,sp,240
   139d6:	854a                	mv	a0,s2
   139d8:	f7dfe0ef          	jal	ra,12954 <emov>
   139dc:	a851                	j	13a70 <_ldtoa_r+0x39a>
   139de:	09000793          	li	a5,144
   139e2:	41b78d3b          	subw	s10,a5,s11
   139e6:	198c                	addi	a1,sp,240
   139e8:	08a8                	addi	a0,sp,88
   139ea:	8dea                	mv	s11,s10
   139ec:	f69fe0ef          	jal	ra,12954 <emov>
   139f0:	09a05063          	blez	s10,13a70 <_ldtoa_r+0x39a>
   139f4:	199c                	addi	a5,sp,240
   139f6:	876a                	mv	a4,s10
   139f8:	46bd                	li	a3,15
   139fa:	02e6c863          	blt	a3,a4,13a2a <_ldtoa_r+0x354>
   139fe:	004dd69b          	srliw	a3,s11,0x4
   13a02:	02069713          	slli	a4,a3,0x20
   13a06:	199c                	addi	a5,sp,240
   13a08:	837d                	srli	a4,a4,0x1f
   13a0a:	973e                	add	a4,a4,a5
   13a0c:	57c1                	li	a5,-16
   13a0e:	02d787bb          	mulw	a5,a5,a3
   13a12:	00075683          	lhu	a3,0(a4)
   13a16:	01b787bb          	addw	a5,a5,s11
   13a1a:	0786                	slli	a5,a5,0x1
   13a1c:	97a6                	add	a5,a5,s1
   13a1e:	1387d783          	lhu	a5,312(a5) # ffffffffffffc138 <__global_pointer$+0xfffffffffff9ee80>
   13a22:	8ff5                	and	a5,a5,a3
   13a24:	00f71023          	sh	a5,0(a4)
   13a28:	bfbd                	j	139a6 <_ldtoa_r+0x2d0>
   13a2a:	00079023          	sh	zero,0(a5)
   13a2e:	3741                	addiw	a4,a4,-16
   13a30:	0789                	addi	a5,a5,2
   13a32:	b7e1                	j	139fa <_ldtoa_r+0x324>
   13a34:	1988                	addi	a0,sp,240
   13a36:	956ff0ef          	jal	ra,12b8c <eisnan>
   13a3a:	c501                	beqz	a0,13a42 <_ldtoa_r+0x36c>
   13a3c:	198c                	addi	a1,sp,240
   13a3e:	852e                	mv	a0,a1
   13a40:	bf61                	j	139d8 <_ldtoa_r+0x302>
   13a42:	854a                	mv	a0,s2
   13a44:	aceff0ef          	jal	ra,12d12 <eisinf>
   13a48:	8aaa                	mv	s5,a0
   13a4a:	1988                	addi	a0,sp,240
   13a4c:	ac6ff0ef          	jal	ra,12d12 <eisinf>
   13a50:	8d2a                	mv	s10,a0
   13a52:	0e0a8363          	beqz	s5,13b38 <_ldtoa_r+0x462>
   13a56:	c171                	beqz	a0,13b1a <_ldtoa_r+0x444>
   13a58:	854a                	mv	a0,s2
   13a5a:	958ff0ef          	jal	ra,12bb2 <eisneg>
   13a5e:	8aaa                	mv	s5,a0
   13a60:	1988                	addi	a0,sp,240
   13a62:	950ff0ef          	jal	ra,12bb2 <eisneg>
   13a66:	0aaa9a63          	bne	s5,a0,13b1a <_ldtoa_r+0x444>
   13a6a:	1988                	addi	a0,sp,240
   13a6c:	c60ff0ef          	jal	ra,12ecc <enan.constprop.12>
   13a70:	4781                	li	a5,0
   13a72:	1918                	addi	a4,sp,176
   13a74:	973e                	add	a4,a4,a5
   13a76:	00075683          	lhu	a3,0(a4)
   13a7a:	1998                	addi	a4,sp,240
   13a7c:	973e                	add	a4,a4,a5
   13a7e:	00075703          	lhu	a4,0(a4)
   13a82:	00e69c63          	bne	a3,a4,13a9a <_ldtoa_r+0x3c4>
   13a86:	0789                	addi	a5,a5,2
   13a88:	4749                	li	a4,18
   13a8a:	fee794e3          	bne	a5,a4,13a72 <_ldtoa_r+0x39c>
   13a8e:	098c                	addi	a1,sp,208
   13a90:	1908                	addi	a0,sp,176
   13a92:	ec3fe0ef          	jal	ra,12954 <emov>
   13a96:	67c2                	ld	a5,16(sp)
   13a98:	9c3d                	addw	s0,s0,a5
   13a9a:	67c2                	ld	a5,16(sp)
   13a9c:	0cd1                	addi	s9,s9,20
   13a9e:	01848d13          	addi	s10,s1,24
   13aa2:	8385                	srli	a5,a5,0x1
   13aa4:	e83e                	sd	a5,16(sp)
   13aa6:	11c48793          	addi	a5,s1,284
   13aaa:	ecfc96e3          	bne	s9,a5,13976 <_ldtoa_r+0x2a0>
   13aae:	0e215783          	lhu	a5,226(sp)
   13ab2:	0a215703          	lhu	a4,162(sp)
   13ab6:	090c                	addi	a1,sp,144
   13ab8:	0988                	addi	a0,sp,208
   13aba:	9fb9                	addw	a5,a5,a4
   13abc:	7771                	lui	a4,0xffffc
   13abe:	f727071b          	addiw	a4,a4,-142
   13ac2:	9fb9                	addw	a5,a5,a4
   13ac4:	0ef11123          	sh	a5,226(sp)
   13ac8:	e8dfe0ef          	jal	ra,12954 <emov>
   13acc:	190c                	addi	a1,sp,176
   13ace:	854a                	mv	a0,s2
   13ad0:	e85fe0ef          	jal	ra,12954 <emov>
   13ad4:	6a85                	lui	s5,0x1
   13ad6:	10848493          	addi	s1,s1,264
   13ada:	098c                	addi	a1,sp,208
   13adc:	8526                	mv	a0,s1
   13ade:	990ff0ef          	jal	ra,12c6e <ecmp>
   13ae2:	d8a04ce3          	bgtz	a0,1387a <_ldtoa_r+0x1a4>
   13ae6:	098c                	addi	a1,sp,208
   13ae8:	856a                	mv	a0,s10
   13aea:	984ff0ef          	jal	ra,12c6e <ecmp>
   13aee:	02a04063          	bgtz	a0,13b0e <_ldtoa_r+0x438>
   13af2:	0990                	addi	a2,sp,208
   13af4:	85b2                	mv	a1,a2
   13af6:	0b14                	addi	a3,sp,400
   13af8:	856a                	mv	a0,s10
   13afa:	9adff0ef          	jal	ra,134a6 <ediv>
   13afe:	1910                	addi	a2,sp,176
   13b00:	0b14                	addi	a3,sp,400
   13b02:	85b2                	mv	a1,a2
   13b04:	856a                	mv	a0,s10
   13b06:	fe2ff0ef          	jal	ra,132e8 <emul>
   13b0a:	008a843b          	addw	s0,s5,s0
   13b0e:	001ada93          	srli	s5,s5,0x1
   13b12:	d69d04e3          	beq	s10,s1,1387a <_ldtoa_r+0x1a4>
   13b16:	0d51                	addi	s10,s10,20
   13b18:	b7c9                	j	13ada <_ldtoa_r+0x404>
   13b1a:	854a                	mv	a0,s2
   13b1c:	198c                	addi	a1,sp,240
   13b1e:	e37fe0ef          	jal	ra,12954 <emov>
   13b22:	1988                	addi	a0,sp,240
   13b24:	868ff0ef          	jal	ra,12b8c <eisnan>
   13b28:	f521                	bnez	a0,13a70 <_ldtoa_r+0x39a>
   13b2a:	10215783          	lhu	a5,258(sp)
   13b2e:	7761                	lui	a4,0xffff8
   13b30:	8fb9                	xor	a5,a5,a4
   13b32:	10f11123          	sh	a5,258(sp)
   13b36:	bf2d                	j	13a70 <_ldtoa_r+0x39a>
   13b38:	f00512e3          	bnez	a0,13a3c <_ldtoa_r+0x366>
   13b3c:	0a0c                	addi	a1,sp,272
   13b3e:	854a                	mv	a0,s2
   13b40:	894ff0ef          	jal	ra,12bd4 <emovi>
   13b44:	1a0c                	addi	a1,sp,304
   13b46:	1988                	addi	a0,sp,240
   13b48:	88cff0ef          	jal	ra,12bd4 <emovi>
   13b4c:	11015783          	lhu	a5,272(sp)
   13b50:	11215d83          	lhu	s11,274(sp)
   13b54:	13215a83          	lhu	s5,306(sp)
   13b58:	fff7c793          	not	a5,a5
   13b5c:	10f11823          	sh	a5,272(sp)
   13b60:	415d85b3          	sub	a1,s11,s5
   13b64:	02b05263          	blez	a1,13b88 <_ldtoa_r+0x4b2>
   13b68:	0a8c                	addi	a1,sp,336
   13b6a:	1a08                	addi	a0,sp,304
   13b6c:	e15fe0ef          	jal	ra,12980 <emovz>
   13b70:	1a0c                	addi	a1,sp,304
   13b72:	0a08                	addi	a0,sp,272
   13b74:	e0dfe0ef          	jal	ra,12980 <emovz>
   13b78:	0a0c                	addi	a1,sp,272
   13b7a:	0a88                	addi	a0,sp,336
   13b7c:	e05fe0ef          	jal	ra,12980 <emovz>
   13b80:	41ba85b3          	sub	a1,s5,s11
   13b84:	13215a83          	lhu	s5,306(sp)
   13b88:	cd8d                	beqz	a1,13bc2 <_ldtoa_r+0x4ec>
   13b8a:	f6f00793          	li	a5,-145
   13b8e:	06f5c363          	blt	a1,a5,13bf4 <_ldtoa_r+0x51e>
   13b92:	0a08                	addi	a0,sp,272
   13b94:	9c2ff0ef          	jal	ra,12d56 <eshift.part.3>
   13b98:	8daa                	mv	s11,a0
   13b9a:	11015703          	lhu	a4,272(sp)
   13b9e:	13015783          	lhu	a5,304(sp)
   13ba2:	1a0c                	addi	a1,sp,304
   13ba4:	0a08                	addi	a0,sp,272
   13ba6:	08f71a63          	bne	a4,a5,13c3a <_ldtoa_r+0x564>
   13baa:	f1ffe0ef          	jal	ra,12ac8 <eaddm>
   13bae:	0b1c                	addi	a5,sp,400
   13bb0:	04000713          	li	a4,64
   13bb4:	86d6                	mv	a3,s5
   13bb6:	866a                	mv	a2,s10
   13bb8:	85ee                	mv	a1,s11
   13bba:	1a08                	addi	a0,sp,304
   13bbc:	c38ff0ef          	jal	ra,12ff4 <emdnorm>
   13bc0:	a815                	j	13bf4 <_ldtoa_r+0x51e>
   13bc2:	1a0c                	addi	a1,sp,304
